
oscillator.elf:     file format elf32-littlearm

Sections:
Idx Name          Size      VMA       LMA       File off  Algn
  0 .isr_vector   000001d8  08000000  08000000  00010000  2**0
                  CONTENTS, ALLOC, LOAD, READONLY, DATA
  1 .text         00006ba4  080001d8  080001d8  000101d8  2**3
                  CONTENTS, ALLOC, LOAD, READONLY, CODE
  2 .rodata       00000088  08006d80  08006d80  00016d80  2**3
                  CONTENTS, ALLOC, LOAD, READONLY, DATA
  3 .ARM.extab    00000000  08006e08  08006e08  00022080  2**0
                  CONTENTS
  4 .ARM          00000008  08006e08  08006e08  00016e08  2**2
                  CONTENTS, ALLOC, LOAD, READONLY, DATA
  5 .preinit_array 00000000  08006e10  08006e10  00022080  2**0
                  CONTENTS, ALLOC, LOAD, DATA
  6 .init_array   00000004  08006e10  08006e10  00016e10  2**2
                  CONTENTS, ALLOC, LOAD, DATA
  7 .fini_array   00000004  08006e14  08006e14  00016e14  2**2
                  CONTENTS, ALLOC, LOAD, DATA
  8 .data         00002080  20000000  08006e18  00020000  2**2
                  CONTENTS, ALLOC, LOAD, DATA
  9 .bss          00000180  20002080  08008e98  00022080  2**2
                  ALLOC
 10 ._user_heap_stack 00000600  20002200  08008e98  00022200  2**0
                  ALLOC
 11 .ARM.attributes 00000030  00000000  00000000  00022080  2**0
                  CONTENTS, READONLY
 12 .debug_info   0001a080  00000000  00000000  000220b0  2**0
                  CONTENTS, READONLY, DEBUGGING, OCTETS
 13 .debug_abbrev 00002dd1  00000000  00000000  0003c130  2**0
                  CONTENTS, READONLY, DEBUGGING, OCTETS
 14 .debug_aranges 000014f0  00000000  00000000  0003ef08  2**3
                  CONTENTS, READONLY, DEBUGGING, OCTETS
 15 .debug_ranges 000013c0  00000000  00000000  000403f8  2**3
                  CONTENTS, READONLY, DEBUGGING, OCTETS
 16 .debug_macro  00021496  00000000  00000000  000417b8  2**0
                  CONTENTS, READONLY, DEBUGGING, OCTETS
 17 .debug_line   000164f6  00000000  00000000  00062c4e  2**0
                  CONTENTS, READONLY, DEBUGGING, OCTETS
 18 .debug_str    000dcb1a  00000000  00000000  00079144  2**0
                  CONTENTS, READONLY, DEBUGGING, OCTETS
 19 .comment      00000053  00000000  00000000  00155c5e  2**0
                  CONTENTS, READONLY
 20 .debug_frame  00005d78  00000000  00000000  00155cb4  2**2
                  CONTENTS, READONLY, DEBUGGING, OCTETS

Disassembly of section .text:

080001d8 <__do_global_dtors_aux>:
 80001d8:	b510      	push	{r4, lr}
 80001da:	4c05      	ldr	r4, [pc, #20]	; (80001f0 <__do_global_dtors_aux+0x18>)
 80001dc:	7823      	ldrb	r3, [r4, #0]
 80001de:	b933      	cbnz	r3, 80001ee <__do_global_dtors_aux+0x16>
 80001e0:	4b04      	ldr	r3, [pc, #16]	; (80001f4 <__do_global_dtors_aux+0x1c>)
 80001e2:	b113      	cbz	r3, 80001ea <__do_global_dtors_aux+0x12>
 80001e4:	4804      	ldr	r0, [pc, #16]	; (80001f8 <__do_global_dtors_aux+0x20>)
 80001e6:	f3af 8000 	nop.w
 80001ea:	2301      	movs	r3, #1
 80001ec:	7023      	strb	r3, [r4, #0]
 80001ee:	bd10      	pop	{r4, pc}
 80001f0:	20002080 	.word	0x20002080
 80001f4:	00000000 	.word	0x00000000
 80001f8:	08006d64 	.word	0x08006d64

080001fc <frame_dummy>:
 80001fc:	b508      	push	{r3, lr}
 80001fe:	4b03      	ldr	r3, [pc, #12]	; (800020c <frame_dummy+0x10>)
 8000200:	b11b      	cbz	r3, 800020a <frame_dummy+0xe>
 8000202:	4903      	ldr	r1, [pc, #12]	; (8000210 <frame_dummy+0x14>)
 8000204:	4803      	ldr	r0, [pc, #12]	; (8000214 <frame_dummy+0x18>)
 8000206:	f3af 8000 	nop.w
 800020a:	bd08      	pop	{r3, pc}
 800020c:	00000000 	.word	0x00000000
 8000210:	20002084 	.word	0x20002084
 8000214:	08006d64 	.word	0x08006d64

08000218 <__aeabi_drsub>:
 8000218:	f081 4100 	eor.w	r1, r1, #2147483648	; 0x80000000
 800021c:	e002      	b.n	8000224 <__adddf3>
 800021e:	bf00      	nop

08000220 <__aeabi_dsub>:
 8000220:	f083 4300 	eor.w	r3, r3, #2147483648	; 0x80000000

08000224 <__adddf3>:
 8000224:	b530      	push	{r4, r5, lr}
 8000226:	ea4f 0441 	mov.w	r4, r1, lsl #1
 800022a:	ea4f 0543 	mov.w	r5, r3, lsl #1
 800022e:	ea94 0f05 	teq	r4, r5
 8000232:	bf08      	it	eq
 8000234:	ea90 0f02 	teqeq	r0, r2
 8000238:	bf1f      	itttt	ne
 800023a:	ea54 0c00 	orrsne.w	ip, r4, r0
 800023e:	ea55 0c02 	orrsne.w	ip, r5, r2
 8000242:	ea7f 5c64 	mvnsne.w	ip, r4, asr #21
 8000246:	ea7f 5c65 	mvnsne.w	ip, r5, asr #21
 800024a:	f000 80e2 	beq.w	8000412 <__adddf3+0x1ee>
 800024e:	ea4f 5454 	mov.w	r4, r4, lsr #21
 8000252:	ebd4 5555 	rsbs	r5, r4, r5, lsr #21
 8000256:	bfb8      	it	lt
 8000258:	426d      	neglt	r5, r5
 800025a:	dd0c      	ble.n	8000276 <__adddf3+0x52>
 800025c:	442c      	add	r4, r5
 800025e:	ea80 0202 	eor.w	r2, r0, r2
 8000262:	ea81 0303 	eor.w	r3, r1, r3
 8000266:	ea82 0000 	eor.w	r0, r2, r0
 800026a:	ea83 0101 	eor.w	r1, r3, r1
 800026e:	ea80 0202 	eor.w	r2, r0, r2
 8000272:	ea81 0303 	eor.w	r3, r1, r3
 8000276:	2d36      	cmp	r5, #54	; 0x36
 8000278:	bf88      	it	hi
 800027a:	bd30      	pophi	{r4, r5, pc}
 800027c:	f011 4f00 	tst.w	r1, #2147483648	; 0x80000000
 8000280:	ea4f 3101 	mov.w	r1, r1, lsl #12
 8000284:	f44f 1c80 	mov.w	ip, #1048576	; 0x100000
 8000288:	ea4c 3111 	orr.w	r1, ip, r1, lsr #12
 800028c:	d002      	beq.n	8000294 <__adddf3+0x70>
 800028e:	4240      	negs	r0, r0
 8000290:	eb61 0141 	sbc.w	r1, r1, r1, lsl #1
 8000294:	f013 4f00 	tst.w	r3, #2147483648	; 0x80000000
 8000298:	ea4f 3303 	mov.w	r3, r3, lsl #12
 800029c:	ea4c 3313 	orr.w	r3, ip, r3, lsr #12
 80002a0:	d002      	beq.n	80002a8 <__adddf3+0x84>
 80002a2:	4252      	negs	r2, r2
 80002a4:	eb63 0343 	sbc.w	r3, r3, r3, lsl #1
 80002a8:	ea94 0f05 	teq	r4, r5
 80002ac:	f000 80a7 	beq.w	80003fe <__adddf3+0x1da>
 80002b0:	f1a4 0401 	sub.w	r4, r4, #1
 80002b4:	f1d5 0e20 	rsbs	lr, r5, #32
 80002b8:	db0d      	blt.n	80002d6 <__adddf3+0xb2>
 80002ba:	fa02 fc0e 	lsl.w	ip, r2, lr
 80002be:	fa22 f205 	lsr.w	r2, r2, r5
 80002c2:	1880      	adds	r0, r0, r2
 80002c4:	f141 0100 	adc.w	r1, r1, #0
 80002c8:	fa03 f20e 	lsl.w	r2, r3, lr
 80002cc:	1880      	adds	r0, r0, r2
 80002ce:	fa43 f305 	asr.w	r3, r3, r5
 80002d2:	4159      	adcs	r1, r3
 80002d4:	e00e      	b.n	80002f4 <__adddf3+0xd0>
 80002d6:	f1a5 0520 	sub.w	r5, r5, #32
 80002da:	f10e 0e20 	add.w	lr, lr, #32
 80002de:	2a01      	cmp	r2, #1
 80002e0:	fa03 fc0e 	lsl.w	ip, r3, lr
 80002e4:	bf28      	it	cs
 80002e6:	f04c 0c02 	orrcs.w	ip, ip, #2
 80002ea:	fa43 f305 	asr.w	r3, r3, r5
 80002ee:	18c0      	adds	r0, r0, r3
 80002f0:	eb51 71e3 	adcs.w	r1, r1, r3, asr #31
 80002f4:	f001 4500 	and.w	r5, r1, #2147483648	; 0x80000000
 80002f8:	d507      	bpl.n	800030a <__adddf3+0xe6>
 80002fa:	f04f 0e00 	mov.w	lr, #0
 80002fe:	f1dc 0c00 	rsbs	ip, ip, #0
 8000302:	eb7e 0000 	sbcs.w	r0, lr, r0
 8000306:	eb6e 0101 	sbc.w	r1, lr, r1
 800030a:	f5b1 1f80 	cmp.w	r1, #1048576	; 0x100000
 800030e:	d31b      	bcc.n	8000348 <__adddf3+0x124>
 8000310:	f5b1 1f00 	cmp.w	r1, #2097152	; 0x200000
 8000314:	d30c      	bcc.n	8000330 <__adddf3+0x10c>
 8000316:	0849      	lsrs	r1, r1, #1
 8000318:	ea5f 0030 	movs.w	r0, r0, rrx
 800031c:	ea4f 0c3c 	mov.w	ip, ip, rrx
 8000320:	f104 0401 	add.w	r4, r4, #1
 8000324:	ea4f 5244 	mov.w	r2, r4, lsl #21
 8000328:	f512 0f80 	cmn.w	r2, #4194304	; 0x400000
 800032c:	f080 809a 	bcs.w	8000464 <__adddf3+0x240>
 8000330:	f1bc 4f00 	cmp.w	ip, #2147483648	; 0x80000000
 8000334:	bf08      	it	eq
 8000336:	ea5f 0c50 	movseq.w	ip, r0, lsr #1
 800033a:	f150 0000 	adcs.w	r0, r0, #0
 800033e:	eb41 5104 	adc.w	r1, r1, r4, lsl #20
 8000342:	ea41 0105 	orr.w	r1, r1, r5
 8000346:	bd30      	pop	{r4, r5, pc}
 8000348:	ea5f 0c4c 	movs.w	ip, ip, lsl #1
 800034c:	4140      	adcs	r0, r0
 800034e:	eb41 0101 	adc.w	r1, r1, r1
 8000352:	3c01      	subs	r4, #1
 8000354:	bf28      	it	cs
 8000356:	f5b1 1f80 	cmpcs.w	r1, #1048576	; 0x100000
 800035a:	d2e9      	bcs.n	8000330 <__adddf3+0x10c>
 800035c:	f091 0f00 	teq	r1, #0
 8000360:	bf04      	itt	eq
 8000362:	4601      	moveq	r1, r0
 8000364:	2000      	moveq	r0, #0
 8000366:	fab1 f381 	clz	r3, r1
 800036a:	bf08      	it	eq
 800036c:	3320      	addeq	r3, #32
 800036e:	f1a3 030b 	sub.w	r3, r3, #11
 8000372:	f1b3 0220 	subs.w	r2, r3, #32
 8000376:	da0c      	bge.n	8000392 <__adddf3+0x16e>
 8000378:	320c      	adds	r2, #12
 800037a:	dd08      	ble.n	800038e <__adddf3+0x16a>
 800037c:	f102 0c14 	add.w	ip, r2, #20
 8000380:	f1c2 020c 	rsb	r2, r2, #12
 8000384:	fa01 f00c 	lsl.w	r0, r1, ip
 8000388:	fa21 f102 	lsr.w	r1, r1, r2
 800038c:	e00c      	b.n	80003a8 <__adddf3+0x184>
 800038e:	f102 0214 	add.w	r2, r2, #20
 8000392:	bfd8      	it	le
 8000394:	f1c2 0c20 	rsble	ip, r2, #32
 8000398:	fa01 f102 	lsl.w	r1, r1, r2
 800039c:	fa20 fc0c 	lsr.w	ip, r0, ip
 80003a0:	bfdc      	itt	le
 80003a2:	ea41 010c 	orrle.w	r1, r1, ip
 80003a6:	4090      	lslle	r0, r2
 80003a8:	1ae4      	subs	r4, r4, r3
 80003aa:	bfa2      	ittt	ge
 80003ac:	eb01 5104 	addge.w	r1, r1, r4, lsl #20
 80003b0:	4329      	orrge	r1, r5
 80003b2:	bd30      	popge	{r4, r5, pc}
 80003b4:	ea6f 0404 	mvn.w	r4, r4
 80003b8:	3c1f      	subs	r4, #31
 80003ba:	da1c      	bge.n	80003f6 <__adddf3+0x1d2>
 80003bc:	340c      	adds	r4, #12
 80003be:	dc0e      	bgt.n	80003de <__adddf3+0x1ba>
 80003c0:	f104 0414 	add.w	r4, r4, #20
 80003c4:	f1c4 0220 	rsb	r2, r4, #32
 80003c8:	fa20 f004 	lsr.w	r0, r0, r4
 80003cc:	fa01 f302 	lsl.w	r3, r1, r2
 80003d0:	ea40 0003 	orr.w	r0, r0, r3
 80003d4:	fa21 f304 	lsr.w	r3, r1, r4
 80003d8:	ea45 0103 	orr.w	r1, r5, r3
 80003dc:	bd30      	pop	{r4, r5, pc}
 80003de:	f1c4 040c 	rsb	r4, r4, #12
 80003e2:	f1c4 0220 	rsb	r2, r4, #32
 80003e6:	fa20 f002 	lsr.w	r0, r0, r2
 80003ea:	fa01 f304 	lsl.w	r3, r1, r4
 80003ee:	ea40 0003 	orr.w	r0, r0, r3
 80003f2:	4629      	mov	r1, r5
 80003f4:	bd30      	pop	{r4, r5, pc}
 80003f6:	fa21 f004 	lsr.w	r0, r1, r4
 80003fa:	4629      	mov	r1, r5
 80003fc:	bd30      	pop	{r4, r5, pc}
 80003fe:	f094 0f00 	teq	r4, #0
 8000402:	f483 1380 	eor.w	r3, r3, #1048576	; 0x100000
 8000406:	bf06      	itte	eq
 8000408:	f481 1180 	eoreq.w	r1, r1, #1048576	; 0x100000
 800040c:	3401      	addeq	r4, #1
 800040e:	3d01      	subne	r5, #1
 8000410:	e74e      	b.n	80002b0 <__adddf3+0x8c>
 8000412:	ea7f 5c64 	mvns.w	ip, r4, asr #21
 8000416:	bf18      	it	ne
 8000418:	ea7f 5c65 	mvnsne.w	ip, r5, asr #21
 800041c:	d029      	beq.n	8000472 <__adddf3+0x24e>
 800041e:	ea94 0f05 	teq	r4, r5
 8000422:	bf08      	it	eq
 8000424:	ea90 0f02 	teqeq	r0, r2
 8000428:	d005      	beq.n	8000436 <__adddf3+0x212>
 800042a:	ea54 0c00 	orrs.w	ip, r4, r0
 800042e:	bf04      	itt	eq
 8000430:	4619      	moveq	r1, r3
 8000432:	4610      	moveq	r0, r2
 8000434:	bd30      	pop	{r4, r5, pc}
 8000436:	ea91 0f03 	teq	r1, r3
 800043a:	bf1e      	ittt	ne
 800043c:	2100      	movne	r1, #0
 800043e:	2000      	movne	r0, #0
 8000440:	bd30      	popne	{r4, r5, pc}
 8000442:	ea5f 5c54 	movs.w	ip, r4, lsr #21
 8000446:	d105      	bne.n	8000454 <__adddf3+0x230>
 8000448:	0040      	lsls	r0, r0, #1
 800044a:	4149      	adcs	r1, r1
 800044c:	bf28      	it	cs
 800044e:	f041 4100 	orrcs.w	r1, r1, #2147483648	; 0x80000000
 8000452:	bd30      	pop	{r4, r5, pc}
 8000454:	f514 0480 	adds.w	r4, r4, #4194304	; 0x400000
 8000458:	bf3c      	itt	cc
 800045a:	f501 1180 	addcc.w	r1, r1, #1048576	; 0x100000
 800045e:	bd30      	popcc	{r4, r5, pc}
 8000460:	f001 4500 	and.w	r5, r1, #2147483648	; 0x80000000
 8000464:	f045 41fe 	orr.w	r1, r5, #2130706432	; 0x7f000000
 8000468:	f441 0170 	orr.w	r1, r1, #15728640	; 0xf00000
 800046c:	f04f 0000 	mov.w	r0, #0
 8000470:	bd30      	pop	{r4, r5, pc}
 8000472:	ea7f 5c64 	mvns.w	ip, r4, asr #21
 8000476:	bf1a      	itte	ne
 8000478:	4619      	movne	r1, r3
 800047a:	4610      	movne	r0, r2
 800047c:	ea7f 5c65 	mvnseq.w	ip, r5, asr #21
 8000480:	bf1c      	itt	ne
 8000482:	460b      	movne	r3, r1
 8000484:	4602      	movne	r2, r0
 8000486:	ea50 3401 	orrs.w	r4, r0, r1, lsl #12
 800048a:	bf06      	itte	eq
 800048c:	ea52 3503 	orrseq.w	r5, r2, r3, lsl #12
 8000490:	ea91 0f03 	teqeq	r1, r3
 8000494:	f441 2100 	orrne.w	r1, r1, #524288	; 0x80000
 8000498:	bd30      	pop	{r4, r5, pc}
 800049a:	bf00      	nop

0800049c <__aeabi_ui2d>:
 800049c:	f090 0f00 	teq	r0, #0
 80004a0:	bf04      	itt	eq
 80004a2:	2100      	moveq	r1, #0
 80004a4:	4770      	bxeq	lr
 80004a6:	b530      	push	{r4, r5, lr}
 80004a8:	f44f 6480 	mov.w	r4, #1024	; 0x400
 80004ac:	f104 0432 	add.w	r4, r4, #50	; 0x32
 80004b0:	f04f 0500 	mov.w	r5, #0
 80004b4:	f04f 0100 	mov.w	r1, #0
 80004b8:	e750      	b.n	800035c <__adddf3+0x138>
 80004ba:	bf00      	nop

080004bc <__aeabi_i2d>:
 80004bc:	f090 0f00 	teq	r0, #0
 80004c0:	bf04      	itt	eq
 80004c2:	2100      	moveq	r1, #0
 80004c4:	4770      	bxeq	lr
 80004c6:	b530      	push	{r4, r5, lr}
 80004c8:	f44f 6480 	mov.w	r4, #1024	; 0x400
 80004cc:	f104 0432 	add.w	r4, r4, #50	; 0x32
 80004d0:	f010 4500 	ands.w	r5, r0, #2147483648	; 0x80000000
 80004d4:	bf48      	it	mi
 80004d6:	4240      	negmi	r0, r0
 80004d8:	f04f 0100 	mov.w	r1, #0
 80004dc:	e73e      	b.n	800035c <__adddf3+0x138>
 80004de:	bf00      	nop

080004e0 <__aeabi_f2d>:
 80004e0:	0042      	lsls	r2, r0, #1
 80004e2:	ea4f 01e2 	mov.w	r1, r2, asr #3
 80004e6:	ea4f 0131 	mov.w	r1, r1, rrx
 80004ea:	ea4f 7002 	mov.w	r0, r2, lsl #28
 80004ee:	bf1f      	itttt	ne
 80004f0:	f012 437f 	andsne.w	r3, r2, #4278190080	; 0xff000000
 80004f4:	f093 4f7f 	teqne	r3, #4278190080	; 0xff000000
 80004f8:	f081 5160 	eorne.w	r1, r1, #939524096	; 0x38000000
 80004fc:	4770      	bxne	lr
 80004fe:	f032 427f 	bics.w	r2, r2, #4278190080	; 0xff000000
 8000502:	bf08      	it	eq
 8000504:	4770      	bxeq	lr
 8000506:	f093 4f7f 	teq	r3, #4278190080	; 0xff000000
 800050a:	bf04      	itt	eq
 800050c:	f441 2100 	orreq.w	r1, r1, #524288	; 0x80000
 8000510:	4770      	bxeq	lr
 8000512:	b530      	push	{r4, r5, lr}
 8000514:	f44f 7460 	mov.w	r4, #896	; 0x380
 8000518:	f001 4500 	and.w	r5, r1, #2147483648	; 0x80000000
 800051c:	f021 4100 	bic.w	r1, r1, #2147483648	; 0x80000000
 8000520:	e71c      	b.n	800035c <__adddf3+0x138>
 8000522:	bf00      	nop

08000524 <__aeabi_ul2d>:
 8000524:	ea50 0201 	orrs.w	r2, r0, r1
 8000528:	bf08      	it	eq
 800052a:	4770      	bxeq	lr
 800052c:	b530      	push	{r4, r5, lr}
 800052e:	f04f 0500 	mov.w	r5, #0
 8000532:	e00a      	b.n	800054a <__aeabi_l2d+0x16>

08000534 <__aeabi_l2d>:
 8000534:	ea50 0201 	orrs.w	r2, r0, r1
 8000538:	bf08      	it	eq
 800053a:	4770      	bxeq	lr
 800053c:	b530      	push	{r4, r5, lr}
 800053e:	f011 4500 	ands.w	r5, r1, #2147483648	; 0x80000000
 8000542:	d502      	bpl.n	800054a <__aeabi_l2d+0x16>
 8000544:	4240      	negs	r0, r0
 8000546:	eb61 0141 	sbc.w	r1, r1, r1, lsl #1
 800054a:	f44f 6480 	mov.w	r4, #1024	; 0x400
 800054e:	f104 0432 	add.w	r4, r4, #50	; 0x32
 8000552:	ea5f 5c91 	movs.w	ip, r1, lsr #22
 8000556:	f43f aed8 	beq.w	800030a <__adddf3+0xe6>
 800055a:	f04f 0203 	mov.w	r2, #3
 800055e:	ea5f 0cdc 	movs.w	ip, ip, lsr #3
 8000562:	bf18      	it	ne
 8000564:	3203      	addne	r2, #3
 8000566:	ea5f 0cdc 	movs.w	ip, ip, lsr #3
 800056a:	bf18      	it	ne
 800056c:	3203      	addne	r2, #3
 800056e:	eb02 02dc 	add.w	r2, r2, ip, lsr #3
 8000572:	f1c2 0320 	rsb	r3, r2, #32
 8000576:	fa00 fc03 	lsl.w	ip, r0, r3
 800057a:	fa20 f002 	lsr.w	r0, r0, r2
 800057e:	fa01 fe03 	lsl.w	lr, r1, r3
 8000582:	ea40 000e 	orr.w	r0, r0, lr
 8000586:	fa21 f102 	lsr.w	r1, r1, r2
 800058a:	4414      	add	r4, r2
 800058c:	e6bd      	b.n	800030a <__adddf3+0xe6>
 800058e:	bf00      	nop

08000590 <__aeabi_dmul>:
 8000590:	b570      	push	{r4, r5, r6, lr}
 8000592:	f04f 0cff 	mov.w	ip, #255	; 0xff
 8000596:	f44c 6ce0 	orr.w	ip, ip, #1792	; 0x700
 800059a:	ea1c 5411 	ands.w	r4, ip, r1, lsr #20
 800059e:	bf1d      	ittte	ne
 80005a0:	ea1c 5513 	andsne.w	r5, ip, r3, lsr #20
 80005a4:	ea94 0f0c 	teqne	r4, ip
 80005a8:	ea95 0f0c 	teqne	r5, ip
 80005ac:	f000 f8de 	bleq	800076c <__aeabi_dmul+0x1dc>
 80005b0:	442c      	add	r4, r5
 80005b2:	ea81 0603 	eor.w	r6, r1, r3
 80005b6:	ea21 514c 	bic.w	r1, r1, ip, lsl #21
 80005ba:	ea23 534c 	bic.w	r3, r3, ip, lsl #21
 80005be:	ea50 3501 	orrs.w	r5, r0, r1, lsl #12
 80005c2:	bf18      	it	ne
 80005c4:	ea52 3503 	orrsne.w	r5, r2, r3, lsl #12
 80005c8:	f441 1180 	orr.w	r1, r1, #1048576	; 0x100000
 80005cc:	f443 1380 	orr.w	r3, r3, #1048576	; 0x100000
 80005d0:	d038      	beq.n	8000644 <__aeabi_dmul+0xb4>
 80005d2:	fba0 ce02 	umull	ip, lr, r0, r2
 80005d6:	f04f 0500 	mov.w	r5, #0
 80005da:	fbe1 e502 	umlal	lr, r5, r1, r2
 80005de:	f006 4200 	and.w	r2, r6, #2147483648	; 0x80000000
 80005e2:	fbe0 e503 	umlal	lr, r5, r0, r3
 80005e6:	f04f 0600 	mov.w	r6, #0
 80005ea:	fbe1 5603 	umlal	r5, r6, r1, r3
 80005ee:	f09c 0f00 	teq	ip, #0
 80005f2:	bf18      	it	ne
 80005f4:	f04e 0e01 	orrne.w	lr, lr, #1
 80005f8:	f1a4 04ff 	sub.w	r4, r4, #255	; 0xff
 80005fc:	f5b6 7f00 	cmp.w	r6, #512	; 0x200
 8000600:	f564 7440 	sbc.w	r4, r4, #768	; 0x300
 8000604:	d204      	bcs.n	8000610 <__aeabi_dmul+0x80>
 8000606:	ea5f 0e4e 	movs.w	lr, lr, lsl #1
 800060a:	416d      	adcs	r5, r5
 800060c:	eb46 0606 	adc.w	r6, r6, r6
 8000610:	ea42 21c6 	orr.w	r1, r2, r6, lsl #11
 8000614:	ea41 5155 	orr.w	r1, r1, r5, lsr #21
 8000618:	ea4f 20c5 	mov.w	r0, r5, lsl #11
 800061c:	ea40 505e 	orr.w	r0, r0, lr, lsr #21
 8000620:	ea4f 2ece 	mov.w	lr, lr, lsl #11
 8000624:	f1b4 0cfd 	subs.w	ip, r4, #253	; 0xfd
 8000628:	bf88      	it	hi
 800062a:	f5bc 6fe0 	cmphi.w	ip, #1792	; 0x700
 800062e:	d81e      	bhi.n	800066e <__aeabi_dmul+0xde>
 8000630:	f1be 4f00 	cmp.w	lr, #2147483648	; 0x80000000
 8000634:	bf08      	it	eq
 8000636:	ea5f 0e50 	movseq.w	lr, r0, lsr #1
 800063a:	f150 0000 	adcs.w	r0, r0, #0
 800063e:	eb41 5104 	adc.w	r1, r1, r4, lsl #20
 8000642:	bd70      	pop	{r4, r5, r6, pc}
 8000644:	f006 4600 	and.w	r6, r6, #2147483648	; 0x80000000
 8000648:	ea46 0101 	orr.w	r1, r6, r1
 800064c:	ea40 0002 	orr.w	r0, r0, r2
 8000650:	ea81 0103 	eor.w	r1, r1, r3
 8000654:	ebb4 045c 	subs.w	r4, r4, ip, lsr #1
 8000658:	bfc2      	ittt	gt
 800065a:	ebd4 050c 	rsbsgt	r5, r4, ip
 800065e:	ea41 5104 	orrgt.w	r1, r1, r4, lsl #20
 8000662:	bd70      	popgt	{r4, r5, r6, pc}
 8000664:	f441 1180 	orr.w	r1, r1, #1048576	; 0x100000
 8000668:	f04f 0e00 	mov.w	lr, #0
 800066c:	3c01      	subs	r4, #1
 800066e:	f300 80ab 	bgt.w	80007c8 <__aeabi_dmul+0x238>
 8000672:	f114 0f36 	cmn.w	r4, #54	; 0x36
 8000676:	bfde      	ittt	le
 8000678:	2000      	movle	r0, #0
 800067a:	f001 4100 	andle.w	r1, r1, #2147483648	; 0x80000000
 800067e:	bd70      	pople	{r4, r5, r6, pc}
 8000680:	f1c4 0400 	rsb	r4, r4, #0
 8000684:	3c20      	subs	r4, #32
 8000686:	da35      	bge.n	80006f4 <__aeabi_dmul+0x164>
 8000688:	340c      	adds	r4, #12
 800068a:	dc1b      	bgt.n	80006c4 <__aeabi_dmul+0x134>
 800068c:	f104 0414 	add.w	r4, r4, #20
 8000690:	f1c4 0520 	rsb	r5, r4, #32
 8000694:	fa00 f305 	lsl.w	r3, r0, r5
 8000698:	fa20 f004 	lsr.w	r0, r0, r4
 800069c:	fa01 f205 	lsl.w	r2, r1, r5
 80006a0:	ea40 0002 	orr.w	r0, r0, r2
 80006a4:	f001 4200 	and.w	r2, r1, #2147483648	; 0x80000000
 80006a8:	f021 4100 	bic.w	r1, r1, #2147483648	; 0x80000000
 80006ac:	eb10 70d3 	adds.w	r0, r0, r3, lsr #31
 80006b0:	fa21 f604 	lsr.w	r6, r1, r4
 80006b4:	eb42 0106 	adc.w	r1, r2, r6
 80006b8:	ea5e 0e43 	orrs.w	lr, lr, r3, lsl #1
 80006bc:	bf08      	it	eq
 80006be:	ea20 70d3 	biceq.w	r0, r0, r3, lsr #31
 80006c2:	bd70      	pop	{r4, r5, r6, pc}
 80006c4:	f1c4 040c 	rsb	r4, r4, #12
 80006c8:	f1c4 0520 	rsb	r5, r4, #32
 80006cc:	fa00 f304 	lsl.w	r3, r0, r4
 80006d0:	fa20 f005 	lsr.w	r0, r0, r5
 80006d4:	fa01 f204 	lsl.w	r2, r1, r4
 80006d8:	ea40 0002 	orr.w	r0, r0, r2
 80006dc:	f001 4100 	and.w	r1, r1, #2147483648	; 0x80000000
 80006e0:	eb10 70d3 	adds.w	r0, r0, r3, lsr #31
 80006e4:	f141 0100 	adc.w	r1, r1, #0
 80006e8:	ea5e 0e43 	orrs.w	lr, lr, r3, lsl #1
 80006ec:	bf08      	it	eq
 80006ee:	ea20 70d3 	biceq.w	r0, r0, r3, lsr #31
 80006f2:	bd70      	pop	{r4, r5, r6, pc}
 80006f4:	f1c4 0520 	rsb	r5, r4, #32
 80006f8:	fa00 f205 	lsl.w	r2, r0, r5
 80006fc:	ea4e 0e02 	orr.w	lr, lr, r2
 8000700:	fa20 f304 	lsr.w	r3, r0, r4
 8000704:	fa01 f205 	lsl.w	r2, r1, r5
 8000708:	ea43 0302 	orr.w	r3, r3, r2
 800070c:	fa21 f004 	lsr.w	r0, r1, r4
 8000710:	f001 4100 	and.w	r1, r1, #2147483648	; 0x80000000
 8000714:	fa21 f204 	lsr.w	r2, r1, r4
 8000718:	ea20 0002 	bic.w	r0, r0, r2
 800071c:	eb00 70d3 	add.w	r0, r0, r3, lsr #31
 8000720:	ea5e 0e43 	orrs.w	lr, lr, r3, lsl #1
 8000724:	bf08      	it	eq
 8000726:	ea20 70d3 	biceq.w	r0, r0, r3, lsr #31
 800072a:	bd70      	pop	{r4, r5, r6, pc}
 800072c:	f094 0f00 	teq	r4, #0
 8000730:	d10f      	bne.n	8000752 <__aeabi_dmul+0x1c2>
 8000732:	f001 4600 	and.w	r6, r1, #2147483648	; 0x80000000
 8000736:	0040      	lsls	r0, r0, #1
 8000738:	eb41 0101 	adc.w	r1, r1, r1
 800073c:	f411 1f80 	tst.w	r1, #1048576	; 0x100000
 8000740:	bf08      	it	eq
 8000742:	3c01      	subeq	r4, #1
 8000744:	d0f7      	beq.n	8000736 <__aeabi_dmul+0x1a6>
 8000746:	ea41 0106 	orr.w	r1, r1, r6
 800074a:	f095 0f00 	teq	r5, #0
 800074e:	bf18      	it	ne
 8000750:	4770      	bxne	lr
 8000752:	f003 4600 	and.w	r6, r3, #2147483648	; 0x80000000
 8000756:	0052      	lsls	r2, r2, #1
 8000758:	eb43 0303 	adc.w	r3, r3, r3
 800075c:	f413 1f80 	tst.w	r3, #1048576	; 0x100000
 8000760:	bf08      	it	eq
 8000762:	3d01      	subeq	r5, #1
 8000764:	d0f7      	beq.n	8000756 <__aeabi_dmul+0x1c6>
 8000766:	ea43 0306 	orr.w	r3, r3, r6
 800076a:	4770      	bx	lr
 800076c:	ea94 0f0c 	teq	r4, ip
 8000770:	ea0c 5513 	and.w	r5, ip, r3, lsr #20
 8000774:	bf18      	it	ne
 8000776:	ea95 0f0c 	teqne	r5, ip
 800077a:	d00c      	beq.n	8000796 <__aeabi_dmul+0x206>
 800077c:	ea50 0641 	orrs.w	r6, r0, r1, lsl #1
 8000780:	bf18      	it	ne
 8000782:	ea52 0643 	orrsne.w	r6, r2, r3, lsl #1
 8000786:	d1d1      	bne.n	800072c <__aeabi_dmul+0x19c>
 8000788:	ea81 0103 	eor.w	r1, r1, r3
 800078c:	f001 4100 	and.w	r1, r1, #2147483648	; 0x80000000
 8000790:	f04f 0000 	mov.w	r0, #0
 8000794:	bd70      	pop	{r4, r5, r6, pc}
 8000796:	ea50 0641 	orrs.w	r6, r0, r1, lsl #1
 800079a:	bf06      	itte	eq
 800079c:	4610      	moveq	r0, r2
 800079e:	4619      	moveq	r1, r3
 80007a0:	ea52 0643 	orrsne.w	r6, r2, r3, lsl #1
 80007a4:	d019      	beq.n	80007da <__aeabi_dmul+0x24a>
 80007a6:	ea94 0f0c 	teq	r4, ip
 80007aa:	d102      	bne.n	80007b2 <__aeabi_dmul+0x222>
 80007ac:	ea50 3601 	orrs.w	r6, r0, r1, lsl #12
 80007b0:	d113      	bne.n	80007da <__aeabi_dmul+0x24a>
 80007b2:	ea95 0f0c 	teq	r5, ip
 80007b6:	d105      	bne.n	80007c4 <__aeabi_dmul+0x234>
 80007b8:	ea52 3603 	orrs.w	r6, r2, r3, lsl #12
 80007bc:	bf1c      	itt	ne
 80007be:	4610      	movne	r0, r2
 80007c0:	4619      	movne	r1, r3
 80007c2:	d10a      	bne.n	80007da <__aeabi_dmul+0x24a>
 80007c4:	ea81 0103 	eor.w	r1, r1, r3
 80007c8:	f001 4100 	and.w	r1, r1, #2147483648	; 0x80000000
 80007cc:	f041 41fe 	orr.w	r1, r1, #2130706432	; 0x7f000000
 80007d0:	f441 0170 	orr.w	r1, r1, #15728640	; 0xf00000
 80007d4:	f04f 0000 	mov.w	r0, #0
 80007d8:	bd70      	pop	{r4, r5, r6, pc}
 80007da:	f041 41fe 	orr.w	r1, r1, #2130706432	; 0x7f000000
 80007de:	f441 0178 	orr.w	r1, r1, #16252928	; 0xf80000
 80007e2:	bd70      	pop	{r4, r5, r6, pc}

080007e4 <__aeabi_ddiv>:
 80007e4:	b570      	push	{r4, r5, r6, lr}
 80007e6:	f04f 0cff 	mov.w	ip, #255	; 0xff
 80007ea:	f44c 6ce0 	orr.w	ip, ip, #1792	; 0x700
 80007ee:	ea1c 5411 	ands.w	r4, ip, r1, lsr #20
 80007f2:	bf1d      	ittte	ne
 80007f4:	ea1c 5513 	andsne.w	r5, ip, r3, lsr #20
 80007f8:	ea94 0f0c 	teqne	r4, ip
 80007fc:	ea95 0f0c 	teqne	r5, ip
 8000800:	f000 f8a7 	bleq	8000952 <__aeabi_ddiv+0x16e>
 8000804:	eba4 0405 	sub.w	r4, r4, r5
 8000808:	ea81 0e03 	eor.w	lr, r1, r3
 800080c:	ea52 3503 	orrs.w	r5, r2, r3, lsl #12
 8000810:	ea4f 3101 	mov.w	r1, r1, lsl #12
 8000814:	f000 8088 	beq.w	8000928 <__aeabi_ddiv+0x144>
 8000818:	ea4f 3303 	mov.w	r3, r3, lsl #12
 800081c:	f04f 5580 	mov.w	r5, #268435456	; 0x10000000
 8000820:	ea45 1313 	orr.w	r3, r5, r3, lsr #4
 8000824:	ea43 6312 	orr.w	r3, r3, r2, lsr #24
 8000828:	ea4f 2202 	mov.w	r2, r2, lsl #8
 800082c:	ea45 1511 	orr.w	r5, r5, r1, lsr #4
 8000830:	ea45 6510 	orr.w	r5, r5, r0, lsr #24
 8000834:	ea4f 2600 	mov.w	r6, r0, lsl #8
 8000838:	f00e 4100 	and.w	r1, lr, #2147483648	; 0x80000000
 800083c:	429d      	cmp	r5, r3
 800083e:	bf08      	it	eq
 8000840:	4296      	cmpeq	r6, r2
 8000842:	f144 04fd 	adc.w	r4, r4, #253	; 0xfd
 8000846:	f504 7440 	add.w	r4, r4, #768	; 0x300
 800084a:	d202      	bcs.n	8000852 <__aeabi_ddiv+0x6e>
 800084c:	085b      	lsrs	r3, r3, #1
 800084e:	ea4f 0232 	mov.w	r2, r2, rrx
 8000852:	1ab6      	subs	r6, r6, r2
 8000854:	eb65 0503 	sbc.w	r5, r5, r3
 8000858:	085b      	lsrs	r3, r3, #1
 800085a:	ea4f 0232 	mov.w	r2, r2, rrx
 800085e:	f44f 1080 	mov.w	r0, #1048576	; 0x100000
 8000862:	f44f 2c00 	mov.w	ip, #524288	; 0x80000
 8000866:	ebb6 0e02 	subs.w	lr, r6, r2
 800086a:	eb75 0e03 	sbcs.w	lr, r5, r3
 800086e:	bf22      	ittt	cs
 8000870:	1ab6      	subcs	r6, r6, r2
 8000872:	4675      	movcs	r5, lr
 8000874:	ea40 000c 	orrcs.w	r0, r0, ip
 8000878:	085b      	lsrs	r3, r3, #1
 800087a:	ea4f 0232 	mov.w	r2, r2, rrx
 800087e:	ebb6 0e02 	subs.w	lr, r6, r2
 8000882:	eb75 0e03 	sbcs.w	lr, r5, r3
 8000886:	bf22      	ittt	cs
 8000888:	1ab6      	subcs	r6, r6, r2
 800088a:	4675      	movcs	r5, lr
 800088c:	ea40 005c 	orrcs.w	r0, r0, ip, lsr #1
 8000890:	085b      	lsrs	r3, r3, #1
 8000892:	ea4f 0232 	mov.w	r2, r2, rrx
 8000896:	ebb6 0e02 	subs.w	lr, r6, r2
 800089a:	eb75 0e03 	sbcs.w	lr, r5, r3
 800089e:	bf22      	ittt	cs
 80008a0:	1ab6      	subcs	r6, r6, r2
 80008a2:	4675      	movcs	r5, lr
 80008a4:	ea40 009c 	orrcs.w	r0, r0, ip, lsr #2
 80008a8:	085b      	lsrs	r3, r3, #1
 80008aa:	ea4f 0232 	mov.w	r2, r2, rrx
 80008ae:	ebb6 0e02 	subs.w	lr, r6, r2
 80008b2:	eb75 0e03 	sbcs.w	lr, r5, r3
 80008b6:	bf22      	ittt	cs
 80008b8:	1ab6      	subcs	r6, r6, r2
 80008ba:	4675      	movcs	r5, lr
 80008bc:	ea40 00dc 	orrcs.w	r0, r0, ip, lsr #3
 80008c0:	ea55 0e06 	orrs.w	lr, r5, r6
 80008c4:	d018      	beq.n	80008f8 <__aeabi_ddiv+0x114>
 80008c6:	ea4f 1505 	mov.w	r5, r5, lsl #4
 80008ca:	ea45 7516 	orr.w	r5, r5, r6, lsr #28
 80008ce:	ea4f 1606 	mov.w	r6, r6, lsl #4
 80008d2:	ea4f 03c3 	mov.w	r3, r3, lsl #3
 80008d6:	ea43 7352 	orr.w	r3, r3, r2, lsr #29
 80008da:	ea4f 02c2 	mov.w	r2, r2, lsl #3
 80008de:	ea5f 1c1c 	movs.w	ip, ip, lsr #4
 80008e2:	d1c0      	bne.n	8000866 <__aeabi_ddiv+0x82>
 80008e4:	f411 1f80 	tst.w	r1, #1048576	; 0x100000
 80008e8:	d10b      	bne.n	8000902 <__aeabi_ddiv+0x11e>
 80008ea:	ea41 0100 	orr.w	r1, r1, r0
 80008ee:	f04f 0000 	mov.w	r0, #0
 80008f2:	f04f 4c00 	mov.w	ip, #2147483648	; 0x80000000
 80008f6:	e7b6      	b.n	8000866 <__aeabi_ddiv+0x82>
 80008f8:	f411 1f80 	tst.w	r1, #1048576	; 0x100000
 80008fc:	bf04      	itt	eq
 80008fe:	4301      	orreq	r1, r0
 8000900:	2000      	moveq	r0, #0
 8000902:	f1b4 0cfd 	subs.w	ip, r4, #253	; 0xfd
 8000906:	bf88      	it	hi
 8000908:	f5bc 6fe0 	cmphi.w	ip, #1792	; 0x700
 800090c:	f63f aeaf 	bhi.w	800066e <__aeabi_dmul+0xde>
 8000910:	ebb5 0c03 	subs.w	ip, r5, r3
 8000914:	bf04      	itt	eq
 8000916:	ebb6 0c02 	subseq.w	ip, r6, r2
 800091a:	ea5f 0c50 	movseq.w	ip, r0, lsr #1
 800091e:	f150 0000 	adcs.w	r0, r0, #0
 8000922:	eb41 5104 	adc.w	r1, r1, r4, lsl #20
 8000926:	bd70      	pop	{r4, r5, r6, pc}
 8000928:	f00e 4e00 	and.w	lr, lr, #2147483648	; 0x80000000
 800092c:	ea4e 3111 	orr.w	r1, lr, r1, lsr #12
 8000930:	eb14 045c 	adds.w	r4, r4, ip, lsr #1
 8000934:	bfc2      	ittt	gt
 8000936:	ebd4 050c 	rsbsgt	r5, r4, ip
 800093a:	ea41 5104 	orrgt.w	r1, r1, r4, lsl #20
 800093e:	bd70      	popgt	{r4, r5, r6, pc}
 8000940:	f441 1180 	orr.w	r1, r1, #1048576	; 0x100000
 8000944:	f04f 0e00 	mov.w	lr, #0
 8000948:	3c01      	subs	r4, #1
 800094a:	e690      	b.n	800066e <__aeabi_dmul+0xde>
 800094c:	ea45 0e06 	orr.w	lr, r5, r6
 8000950:	e68d      	b.n	800066e <__aeabi_dmul+0xde>
 8000952:	ea0c 5513 	and.w	r5, ip, r3, lsr #20
 8000956:	ea94 0f0c 	teq	r4, ip
 800095a:	bf08      	it	eq
 800095c:	ea95 0f0c 	teqeq	r5, ip
 8000960:	f43f af3b 	beq.w	80007da <__aeabi_dmul+0x24a>
 8000964:	ea94 0f0c 	teq	r4, ip
 8000968:	d10a      	bne.n	8000980 <__aeabi_ddiv+0x19c>
 800096a:	ea50 3401 	orrs.w	r4, r0, r1, lsl #12
 800096e:	f47f af34 	bne.w	80007da <__aeabi_dmul+0x24a>
 8000972:	ea95 0f0c 	teq	r5, ip
 8000976:	f47f af25 	bne.w	80007c4 <__aeabi_dmul+0x234>
 800097a:	4610      	mov	r0, r2
 800097c:	4619      	mov	r1, r3
 800097e:	e72c      	b.n	80007da <__aeabi_dmul+0x24a>
 8000980:	ea95 0f0c 	teq	r5, ip
 8000984:	d106      	bne.n	8000994 <__aeabi_ddiv+0x1b0>
 8000986:	ea52 3503 	orrs.w	r5, r2, r3, lsl #12
 800098a:	f43f aefd 	beq.w	8000788 <__aeabi_dmul+0x1f8>
 800098e:	4610      	mov	r0, r2
 8000990:	4619      	mov	r1, r3
 8000992:	e722      	b.n	80007da <__aeabi_dmul+0x24a>
 8000994:	ea50 0641 	orrs.w	r6, r0, r1, lsl #1
 8000998:	bf18      	it	ne
 800099a:	ea52 0643 	orrsne.w	r6, r2, r3, lsl #1
 800099e:	f47f aec5 	bne.w	800072c <__aeabi_dmul+0x19c>
 80009a2:	ea50 0441 	orrs.w	r4, r0, r1, lsl #1
 80009a6:	f47f af0d 	bne.w	80007c4 <__aeabi_dmul+0x234>
 80009aa:	ea52 0543 	orrs.w	r5, r2, r3, lsl #1
 80009ae:	f47f aeeb 	bne.w	8000788 <__aeabi_dmul+0x1f8>
 80009b2:	e712      	b.n	80007da <__aeabi_dmul+0x24a>

080009b4 <__gedf2>:
 80009b4:	f04f 3cff 	mov.w	ip, #4294967295
 80009b8:	e006      	b.n	80009c8 <__cmpdf2+0x4>
 80009ba:	bf00      	nop

080009bc <__ledf2>:
 80009bc:	f04f 0c01 	mov.w	ip, #1
 80009c0:	e002      	b.n	80009c8 <__cmpdf2+0x4>
 80009c2:	bf00      	nop

080009c4 <__cmpdf2>:
 80009c4:	f04f 0c01 	mov.w	ip, #1
 80009c8:	f84d cd04 	str.w	ip, [sp, #-4]!
 80009cc:	ea4f 0c41 	mov.w	ip, r1, lsl #1
 80009d0:	ea7f 5c6c 	mvns.w	ip, ip, asr #21
 80009d4:	ea4f 0c43 	mov.w	ip, r3, lsl #1
 80009d8:	bf18      	it	ne
 80009da:	ea7f 5c6c 	mvnsne.w	ip, ip, asr #21
 80009de:	d01b      	beq.n	8000a18 <__cmpdf2+0x54>
 80009e0:	b001      	add	sp, #4
 80009e2:	ea50 0c41 	orrs.w	ip, r0, r1, lsl #1
 80009e6:	bf0c      	ite	eq
 80009e8:	ea52 0c43 	orrseq.w	ip, r2, r3, lsl #1
 80009ec:	ea91 0f03 	teqne	r1, r3
 80009f0:	bf02      	ittt	eq
 80009f2:	ea90 0f02 	teqeq	r0, r2
 80009f6:	2000      	moveq	r0, #0
 80009f8:	4770      	bxeq	lr
 80009fa:	f110 0f00 	cmn.w	r0, #0
 80009fe:	ea91 0f03 	teq	r1, r3
 8000a02:	bf58      	it	pl
 8000a04:	4299      	cmppl	r1, r3
 8000a06:	bf08      	it	eq
 8000a08:	4290      	cmpeq	r0, r2
 8000a0a:	bf2c      	ite	cs
 8000a0c:	17d8      	asrcs	r0, r3, #31
 8000a0e:	ea6f 70e3 	mvncc.w	r0, r3, asr #31
 8000a12:	f040 0001 	orr.w	r0, r0, #1
 8000a16:	4770      	bx	lr
 8000a18:	ea4f 0c41 	mov.w	ip, r1, lsl #1
 8000a1c:	ea7f 5c6c 	mvns.w	ip, ip, asr #21
 8000a20:	d102      	bne.n	8000a28 <__cmpdf2+0x64>
 8000a22:	ea50 3c01 	orrs.w	ip, r0, r1, lsl #12
 8000a26:	d107      	bne.n	8000a38 <__cmpdf2+0x74>
 8000a28:	ea4f 0c43 	mov.w	ip, r3, lsl #1
 8000a2c:	ea7f 5c6c 	mvns.w	ip, ip, asr #21
 8000a30:	d1d6      	bne.n	80009e0 <__cmpdf2+0x1c>
 8000a32:	ea52 3c03 	orrs.w	ip, r2, r3, lsl #12
 8000a36:	d0d3      	beq.n	80009e0 <__cmpdf2+0x1c>
 8000a38:	f85d 0b04 	ldr.w	r0, [sp], #4
 8000a3c:	4770      	bx	lr
 8000a3e:	bf00      	nop

08000a40 <__aeabi_cdrcmple>:
 8000a40:	4684      	mov	ip, r0
 8000a42:	4610      	mov	r0, r2
 8000a44:	4662      	mov	r2, ip
 8000a46:	468c      	mov	ip, r1
 8000a48:	4619      	mov	r1, r3
 8000a4a:	4663      	mov	r3, ip
 8000a4c:	e000      	b.n	8000a50 <__aeabi_cdcmpeq>
 8000a4e:	bf00      	nop

08000a50 <__aeabi_cdcmpeq>:
 8000a50:	b501      	push	{r0, lr}
 8000a52:	f7ff ffb7 	bl	80009c4 <__cmpdf2>
 8000a56:	2800      	cmp	r0, #0
 8000a58:	bf48      	it	mi
 8000a5a:	f110 0f00 	cmnmi.w	r0, #0
 8000a5e:	bd01      	pop	{r0, pc}

08000a60 <__aeabi_dcmpeq>:
 8000a60:	f84d ed08 	str.w	lr, [sp, #-8]!
 8000a64:	f7ff fff4 	bl	8000a50 <__aeabi_cdcmpeq>
 8000a68:	bf0c      	ite	eq
 8000a6a:	2001      	moveq	r0, #1
 8000a6c:	2000      	movne	r0, #0
 8000a6e:	f85d fb08 	ldr.w	pc, [sp], #8
 8000a72:	bf00      	nop

08000a74 <__aeabi_dcmplt>:
 8000a74:	f84d ed08 	str.w	lr, [sp, #-8]!
 8000a78:	f7ff ffea 	bl	8000a50 <__aeabi_cdcmpeq>
 8000a7c:	bf34      	ite	cc
 8000a7e:	2001      	movcc	r0, #1
 8000a80:	2000      	movcs	r0, #0
 8000a82:	f85d fb08 	ldr.w	pc, [sp], #8
 8000a86:	bf00      	nop

08000a88 <__aeabi_dcmple>:
 8000a88:	f84d ed08 	str.w	lr, [sp, #-8]!
 8000a8c:	f7ff ffe0 	bl	8000a50 <__aeabi_cdcmpeq>
 8000a90:	bf94      	ite	ls
 8000a92:	2001      	movls	r0, #1
 8000a94:	2000      	movhi	r0, #0
 8000a96:	f85d fb08 	ldr.w	pc, [sp], #8
 8000a9a:	bf00      	nop

08000a9c <__aeabi_dcmpge>:
 8000a9c:	f84d ed08 	str.w	lr, [sp, #-8]!
 8000aa0:	f7ff ffce 	bl	8000a40 <__aeabi_cdrcmple>
 8000aa4:	bf94      	ite	ls
 8000aa6:	2001      	movls	r0, #1
 8000aa8:	2000      	movhi	r0, #0
 8000aaa:	f85d fb08 	ldr.w	pc, [sp], #8
 8000aae:	bf00      	nop

08000ab0 <__aeabi_dcmpgt>:
 8000ab0:	f84d ed08 	str.w	lr, [sp, #-8]!
 8000ab4:	f7ff ffc4 	bl	8000a40 <__aeabi_cdrcmple>
 8000ab8:	bf34      	ite	cc
 8000aba:	2001      	movcc	r0, #1
 8000abc:	2000      	movcs	r0, #0
 8000abe:	f85d fb08 	ldr.w	pc, [sp], #8
 8000ac2:	bf00      	nop

08000ac4 <__aeabi_dcmpun>:
 8000ac4:	ea4f 0c41 	mov.w	ip, r1, lsl #1
 8000ac8:	ea7f 5c6c 	mvns.w	ip, ip, asr #21
 8000acc:	d102      	bne.n	8000ad4 <__aeabi_dcmpun+0x10>
 8000ace:	ea50 3c01 	orrs.w	ip, r0, r1, lsl #12
 8000ad2:	d10a      	bne.n	8000aea <__aeabi_dcmpun+0x26>
 8000ad4:	ea4f 0c43 	mov.w	ip, r3, lsl #1
 8000ad8:	ea7f 5c6c 	mvns.w	ip, ip, asr #21
 8000adc:	d102      	bne.n	8000ae4 <__aeabi_dcmpun+0x20>
 8000ade:	ea52 3c03 	orrs.w	ip, r2, r3, lsl #12
 8000ae2:	d102      	bne.n	8000aea <__aeabi_dcmpun+0x26>
 8000ae4:	f04f 0000 	mov.w	r0, #0
 8000ae8:	4770      	bx	lr
 8000aea:	f04f 0001 	mov.w	r0, #1
 8000aee:	4770      	bx	lr

08000af0 <__aeabi_d2f>:
 8000af0:	ea4f 0241 	mov.w	r2, r1, lsl #1
 8000af4:	f1b2 43e0 	subs.w	r3, r2, #1879048192	; 0x70000000
 8000af8:	bf24      	itt	cs
 8000afa:	f5b3 1c00 	subscs.w	ip, r3, #2097152	; 0x200000
 8000afe:	f1dc 5cfe 	rsbscs	ip, ip, #532676608	; 0x1fc00000
 8000b02:	d90d      	bls.n	8000b20 <__aeabi_d2f+0x30>
 8000b04:	f001 4c00 	and.w	ip, r1, #2147483648	; 0x80000000
 8000b08:	ea4f 02c0 	mov.w	r2, r0, lsl #3
 8000b0c:	ea4c 7050 	orr.w	r0, ip, r0, lsr #29
 8000b10:	f1b2 4f00 	cmp.w	r2, #2147483648	; 0x80000000
 8000b14:	eb40 0083 	adc.w	r0, r0, r3, lsl #2
 8000b18:	bf08      	it	eq
 8000b1a:	f020 0001 	biceq.w	r0, r0, #1
 8000b1e:	4770      	bx	lr
 8000b20:	f011 4f80 	tst.w	r1, #1073741824	; 0x40000000
 8000b24:	d121      	bne.n	8000b6a <__aeabi_d2f+0x7a>
 8000b26:	f113 7238 	adds.w	r2, r3, #48234496	; 0x2e00000
 8000b2a:	bfbc      	itt	lt
 8000b2c:	f001 4000 	andlt.w	r0, r1, #2147483648	; 0x80000000
 8000b30:	4770      	bxlt	lr
 8000b32:	f441 1180 	orr.w	r1, r1, #1048576	; 0x100000
 8000b36:	ea4f 5252 	mov.w	r2, r2, lsr #21
 8000b3a:	f1c2 0218 	rsb	r2, r2, #24
 8000b3e:	f1c2 0c20 	rsb	ip, r2, #32
 8000b42:	fa10 f30c 	lsls.w	r3, r0, ip
 8000b46:	fa20 f002 	lsr.w	r0, r0, r2
 8000b4a:	bf18      	it	ne
 8000b4c:	f040 0001 	orrne.w	r0, r0, #1
 8000b50:	ea4f 23c1 	mov.w	r3, r1, lsl #11
 8000b54:	ea4f 23d3 	mov.w	r3, r3, lsr #11
 8000b58:	fa03 fc0c 	lsl.w	ip, r3, ip
 8000b5c:	ea40 000c 	orr.w	r0, r0, ip
 8000b60:	fa23 f302 	lsr.w	r3, r3, r2
 8000b64:	ea4f 0343 	mov.w	r3, r3, lsl #1
 8000b68:	e7cc      	b.n	8000b04 <__aeabi_d2f+0x14>
 8000b6a:	ea7f 5362 	mvns.w	r3, r2, asr #21
 8000b6e:	d107      	bne.n	8000b80 <__aeabi_d2f+0x90>
 8000b70:	ea50 3301 	orrs.w	r3, r0, r1, lsl #12
 8000b74:	bf1e      	ittt	ne
 8000b76:	f04f 40fe 	movne.w	r0, #2130706432	; 0x7f000000
 8000b7a:	f440 0040 	orrne.w	r0, r0, #12582912	; 0xc00000
 8000b7e:	4770      	bxne	lr
 8000b80:	f001 4000 	and.w	r0, r1, #2147483648	; 0x80000000
 8000b84:	f040 40fe 	orr.w	r0, r0, #2130706432	; 0x7f000000
 8000b88:	f440 0000 	orr.w	r0, r0, #8388608	; 0x800000
 8000b8c:	4770      	bx	lr
 8000b8e:	bf00      	nop

08000b90 <__aeabi_uldivmod>:
 8000b90:	b953      	cbnz	r3, 8000ba8 <__aeabi_uldivmod+0x18>
 8000b92:	b94a      	cbnz	r2, 8000ba8 <__aeabi_uldivmod+0x18>
 8000b94:	2900      	cmp	r1, #0
 8000b96:	bf08      	it	eq
 8000b98:	2800      	cmpeq	r0, #0
 8000b9a:	bf1c      	itt	ne
 8000b9c:	f04f 31ff 	movne.w	r1, #4294967295
 8000ba0:	f04f 30ff 	movne.w	r0, #4294967295
 8000ba4:	f000 b96e 	b.w	8000e84 <__aeabi_idiv0>
 8000ba8:	f1ad 0c08 	sub.w	ip, sp, #8
 8000bac:	e96d ce04 	strd	ip, lr, [sp, #-16]!
 8000bb0:	f000 f806 	bl	8000bc0 <__udivmoddi4>
 8000bb4:	f8dd e004 	ldr.w	lr, [sp, #4]
 8000bb8:	e9dd 2302 	ldrd	r2, r3, [sp, #8]
 8000bbc:	b004      	add	sp, #16
 8000bbe:	4770      	bx	lr

08000bc0 <__udivmoddi4>:
 8000bc0:	e92d 47f0 	stmdb	sp!, {r4, r5, r6, r7, r8, r9, sl, lr}
 8000bc4:	9d08      	ldr	r5, [sp, #32]
 8000bc6:	4604      	mov	r4, r0
 8000bc8:	468c      	mov	ip, r1
 8000bca:	2b00      	cmp	r3, #0
 8000bcc:	f040 8083 	bne.w	8000cd6 <__udivmoddi4+0x116>
 8000bd0:	428a      	cmp	r2, r1
 8000bd2:	4617      	mov	r7, r2
 8000bd4:	d947      	bls.n	8000c66 <__udivmoddi4+0xa6>
 8000bd6:	fab2 f282 	clz	r2, r2
 8000bda:	b142      	cbz	r2, 8000bee <__udivmoddi4+0x2e>
 8000bdc:	f1c2 0020 	rsb	r0, r2, #32
 8000be0:	fa24 f000 	lsr.w	r0, r4, r0
 8000be4:	4091      	lsls	r1, r2
 8000be6:	4097      	lsls	r7, r2
 8000be8:	ea40 0c01 	orr.w	ip, r0, r1
 8000bec:	4094      	lsls	r4, r2
 8000bee:	ea4f 4817 	mov.w	r8, r7, lsr #16
 8000bf2:	0c23      	lsrs	r3, r4, #16
 8000bf4:	fbbc f6f8 	udiv	r6, ip, r8
 8000bf8:	fa1f fe87 	uxth.w	lr, r7
 8000bfc:	fb08 c116 	mls	r1, r8, r6, ip
 8000c00:	ea43 4301 	orr.w	r3, r3, r1, lsl #16
 8000c04:	fb06 f10e 	mul.w	r1, r6, lr
 8000c08:	4299      	cmp	r1, r3
 8000c0a:	d909      	bls.n	8000c20 <__udivmoddi4+0x60>
 8000c0c:	18fb      	adds	r3, r7, r3
 8000c0e:	f106 30ff 	add.w	r0, r6, #4294967295
 8000c12:	f080 8119 	bcs.w	8000e48 <__udivmoddi4+0x288>
 8000c16:	4299      	cmp	r1, r3
 8000c18:	f240 8116 	bls.w	8000e48 <__udivmoddi4+0x288>
 8000c1c:	3e02      	subs	r6, #2
 8000c1e:	443b      	add	r3, r7
 8000c20:	1a5b      	subs	r3, r3, r1
 8000c22:	b2a4      	uxth	r4, r4
 8000c24:	fbb3 f0f8 	udiv	r0, r3, r8
 8000c28:	fb08 3310 	mls	r3, r8, r0, r3
 8000c2c:	ea44 4403 	orr.w	r4, r4, r3, lsl #16
 8000c30:	fb00 fe0e 	mul.w	lr, r0, lr
 8000c34:	45a6      	cmp	lr, r4
 8000c36:	d909      	bls.n	8000c4c <__udivmoddi4+0x8c>
 8000c38:	193c      	adds	r4, r7, r4
 8000c3a:	f100 33ff 	add.w	r3, r0, #4294967295
 8000c3e:	f080 8105 	bcs.w	8000e4c <__udivmoddi4+0x28c>
 8000c42:	45a6      	cmp	lr, r4
 8000c44:	f240 8102 	bls.w	8000e4c <__udivmoddi4+0x28c>
 8000c48:	3802      	subs	r0, #2
 8000c4a:	443c      	add	r4, r7
 8000c4c:	ea40 4006 	orr.w	r0, r0, r6, lsl #16
 8000c50:	eba4 040e 	sub.w	r4, r4, lr
 8000c54:	2600      	movs	r6, #0
 8000c56:	b11d      	cbz	r5, 8000c60 <__udivmoddi4+0xa0>
 8000c58:	40d4      	lsrs	r4, r2
 8000c5a:	2300      	movs	r3, #0
 8000c5c:	e9c5 4300 	strd	r4, r3, [r5]
 8000c60:	4631      	mov	r1, r6
 8000c62:	e8bd 87f0 	ldmia.w	sp!, {r4, r5, r6, r7, r8, r9, sl, pc}
 8000c66:	b902      	cbnz	r2, 8000c6a <__udivmoddi4+0xaa>
 8000c68:	deff      	udf	#255	; 0xff
 8000c6a:	fab2 f282 	clz	r2, r2
 8000c6e:	2a00      	cmp	r2, #0
 8000c70:	d150      	bne.n	8000d14 <__udivmoddi4+0x154>
 8000c72:	1bcb      	subs	r3, r1, r7
 8000c74:	ea4f 4e17 	mov.w	lr, r7, lsr #16
 8000c78:	fa1f f887 	uxth.w	r8, r7
 8000c7c:	2601      	movs	r6, #1
 8000c7e:	fbb3 fcfe 	udiv	ip, r3, lr
 8000c82:	0c21      	lsrs	r1, r4, #16
 8000c84:	fb0e 331c 	mls	r3, lr, ip, r3
 8000c88:	ea41 4103 	orr.w	r1, r1, r3, lsl #16
 8000c8c:	fb08 f30c 	mul.w	r3, r8, ip
 8000c90:	428b      	cmp	r3, r1
 8000c92:	d907      	bls.n	8000ca4 <__udivmoddi4+0xe4>
 8000c94:	1879      	adds	r1, r7, r1
 8000c96:	f10c 30ff 	add.w	r0, ip, #4294967295
 8000c9a:	d202      	bcs.n	8000ca2 <__udivmoddi4+0xe2>
 8000c9c:	428b      	cmp	r3, r1
 8000c9e:	f200 80e9 	bhi.w	8000e74 <__udivmoddi4+0x2b4>
 8000ca2:	4684      	mov	ip, r0
 8000ca4:	1ac9      	subs	r1, r1, r3
 8000ca6:	b2a3      	uxth	r3, r4
 8000ca8:	fbb1 f0fe 	udiv	r0, r1, lr
 8000cac:	fb0e 1110 	mls	r1, lr, r0, r1
 8000cb0:	ea43 4401 	orr.w	r4, r3, r1, lsl #16
 8000cb4:	fb08 f800 	mul.w	r8, r8, r0
 8000cb8:	45a0      	cmp	r8, r4
 8000cba:	d907      	bls.n	8000ccc <__udivmoddi4+0x10c>
 8000cbc:	193c      	adds	r4, r7, r4
 8000cbe:	f100 33ff 	add.w	r3, r0, #4294967295
 8000cc2:	d202      	bcs.n	8000cca <__udivmoddi4+0x10a>
 8000cc4:	45a0      	cmp	r8, r4
 8000cc6:	f200 80d9 	bhi.w	8000e7c <__udivmoddi4+0x2bc>
 8000cca:	4618      	mov	r0, r3
 8000ccc:	eba4 0408 	sub.w	r4, r4, r8
 8000cd0:	ea40 400c 	orr.w	r0, r0, ip, lsl #16
 8000cd4:	e7bf      	b.n	8000c56 <__udivmoddi4+0x96>
 8000cd6:	428b      	cmp	r3, r1
 8000cd8:	d909      	bls.n	8000cee <__udivmoddi4+0x12e>
 8000cda:	2d00      	cmp	r5, #0
 8000cdc:	f000 80b1 	beq.w	8000e42 <__udivmoddi4+0x282>
 8000ce0:	2600      	movs	r6, #0
 8000ce2:	e9c5 0100 	strd	r0, r1, [r5]
 8000ce6:	4630      	mov	r0, r6
 8000ce8:	4631      	mov	r1, r6
 8000cea:	e8bd 87f0 	ldmia.w	sp!, {r4, r5, r6, r7, r8, r9, sl, pc}
 8000cee:	fab3 f683 	clz	r6, r3
 8000cf2:	2e00      	cmp	r6, #0
 8000cf4:	d14a      	bne.n	8000d8c <__udivmoddi4+0x1cc>
 8000cf6:	428b      	cmp	r3, r1
 8000cf8:	d302      	bcc.n	8000d00 <__udivmoddi4+0x140>
 8000cfa:	4282      	cmp	r2, r0
 8000cfc:	f200 80b8 	bhi.w	8000e70 <__udivmoddi4+0x2b0>
 8000d00:	1a84      	subs	r4, r0, r2
 8000d02:	eb61 0103 	sbc.w	r1, r1, r3
 8000d06:	2001      	movs	r0, #1
 8000d08:	468c      	mov	ip, r1
 8000d0a:	2d00      	cmp	r5, #0
 8000d0c:	d0a8      	beq.n	8000c60 <__udivmoddi4+0xa0>
 8000d0e:	e9c5 4c00 	strd	r4, ip, [r5]
 8000d12:	e7a5      	b.n	8000c60 <__udivmoddi4+0xa0>
 8000d14:	f1c2 0320 	rsb	r3, r2, #32
 8000d18:	fa20 f603 	lsr.w	r6, r0, r3
 8000d1c:	4097      	lsls	r7, r2
 8000d1e:	fa01 f002 	lsl.w	r0, r1, r2
 8000d22:	ea4f 4e17 	mov.w	lr, r7, lsr #16
 8000d26:	40d9      	lsrs	r1, r3
 8000d28:	4330      	orrs	r0, r6
 8000d2a:	0c03      	lsrs	r3, r0, #16
 8000d2c:	fbb1 f6fe 	udiv	r6, r1, lr
 8000d30:	fa1f f887 	uxth.w	r8, r7
 8000d34:	fb0e 1116 	mls	r1, lr, r6, r1
 8000d38:	ea43 4301 	orr.w	r3, r3, r1, lsl #16
 8000d3c:	fb06 f108 	mul.w	r1, r6, r8
 8000d40:	4299      	cmp	r1, r3
 8000d42:	fa04 f402 	lsl.w	r4, r4, r2
 8000d46:	d909      	bls.n	8000d5c <__udivmoddi4+0x19c>
 8000d48:	18fb      	adds	r3, r7, r3
 8000d4a:	f106 3cff 	add.w	ip, r6, #4294967295
 8000d4e:	f080 808d 	bcs.w	8000e6c <__udivmoddi4+0x2ac>
 8000d52:	4299      	cmp	r1, r3
 8000d54:	f240 808a 	bls.w	8000e6c <__udivmoddi4+0x2ac>
 8000d58:	3e02      	subs	r6, #2
 8000d5a:	443b      	add	r3, r7
 8000d5c:	1a5b      	subs	r3, r3, r1
 8000d5e:	b281      	uxth	r1, r0
 8000d60:	fbb3 f0fe 	udiv	r0, r3, lr
 8000d64:	fb0e 3310 	mls	r3, lr, r0, r3
 8000d68:	ea41 4103 	orr.w	r1, r1, r3, lsl #16
 8000d6c:	fb00 f308 	mul.w	r3, r0, r8
 8000d70:	428b      	cmp	r3, r1
 8000d72:	d907      	bls.n	8000d84 <__udivmoddi4+0x1c4>
 8000d74:	1879      	adds	r1, r7, r1
 8000d76:	f100 3cff 	add.w	ip, r0, #4294967295
 8000d7a:	d273      	bcs.n	8000e64 <__udivmoddi4+0x2a4>
 8000d7c:	428b      	cmp	r3, r1
 8000d7e:	d971      	bls.n	8000e64 <__udivmoddi4+0x2a4>
 8000d80:	3802      	subs	r0, #2
 8000d82:	4439      	add	r1, r7
 8000d84:	1acb      	subs	r3, r1, r3
 8000d86:	ea40 4606 	orr.w	r6, r0, r6, lsl #16
 8000d8a:	e778      	b.n	8000c7e <__udivmoddi4+0xbe>
 8000d8c:	f1c6 0c20 	rsb	ip, r6, #32
 8000d90:	fa03 f406 	lsl.w	r4, r3, r6
 8000d94:	fa22 f30c 	lsr.w	r3, r2, ip
 8000d98:	431c      	orrs	r4, r3
 8000d9a:	fa20 f70c 	lsr.w	r7, r0, ip
 8000d9e:	fa01 f306 	lsl.w	r3, r1, r6
 8000da2:	ea4f 4e14 	mov.w	lr, r4, lsr #16
 8000da6:	fa21 f10c 	lsr.w	r1, r1, ip
 8000daa:	431f      	orrs	r7, r3
 8000dac:	0c3b      	lsrs	r3, r7, #16
 8000dae:	fbb1 f9fe 	udiv	r9, r1, lr
 8000db2:	fa1f f884 	uxth.w	r8, r4
 8000db6:	fb0e 1119 	mls	r1, lr, r9, r1
 8000dba:	ea43 4101 	orr.w	r1, r3, r1, lsl #16
 8000dbe:	fb09 fa08 	mul.w	sl, r9, r8
 8000dc2:	458a      	cmp	sl, r1
 8000dc4:	fa02 f206 	lsl.w	r2, r2, r6
 8000dc8:	fa00 f306 	lsl.w	r3, r0, r6
 8000dcc:	d908      	bls.n	8000de0 <__udivmoddi4+0x220>
 8000dce:	1861      	adds	r1, r4, r1
 8000dd0:	f109 30ff 	add.w	r0, r9, #4294967295
 8000dd4:	d248      	bcs.n	8000e68 <__udivmoddi4+0x2a8>
 8000dd6:	458a      	cmp	sl, r1
 8000dd8:	d946      	bls.n	8000e68 <__udivmoddi4+0x2a8>
 8000dda:	f1a9 0902 	sub.w	r9, r9, #2
 8000dde:	4421      	add	r1, r4
 8000de0:	eba1 010a 	sub.w	r1, r1, sl
 8000de4:	b2bf      	uxth	r7, r7
 8000de6:	fbb1 f0fe 	udiv	r0, r1, lr
 8000dea:	fb0e 1110 	mls	r1, lr, r0, r1
 8000dee:	ea47 4701 	orr.w	r7, r7, r1, lsl #16
 8000df2:	fb00 f808 	mul.w	r8, r0, r8
 8000df6:	45b8      	cmp	r8, r7
 8000df8:	d907      	bls.n	8000e0a <__udivmoddi4+0x24a>
 8000dfa:	19e7      	adds	r7, r4, r7
 8000dfc:	f100 31ff 	add.w	r1, r0, #4294967295
 8000e00:	d22e      	bcs.n	8000e60 <__udivmoddi4+0x2a0>
 8000e02:	45b8      	cmp	r8, r7
 8000e04:	d92c      	bls.n	8000e60 <__udivmoddi4+0x2a0>
 8000e06:	3802      	subs	r0, #2
 8000e08:	4427      	add	r7, r4
 8000e0a:	ea40 4009 	orr.w	r0, r0, r9, lsl #16
 8000e0e:	eba7 0708 	sub.w	r7, r7, r8
 8000e12:	fba0 8902 	umull	r8, r9, r0, r2
 8000e16:	454f      	cmp	r7, r9
 8000e18:	46c6      	mov	lr, r8
 8000e1a:	4649      	mov	r1, r9
 8000e1c:	d31a      	bcc.n	8000e54 <__udivmoddi4+0x294>
 8000e1e:	d017      	beq.n	8000e50 <__udivmoddi4+0x290>
 8000e20:	b15d      	cbz	r5, 8000e3a <__udivmoddi4+0x27a>
 8000e22:	ebb3 020e 	subs.w	r2, r3, lr
 8000e26:	eb67 0701 	sbc.w	r7, r7, r1
 8000e2a:	fa07 fc0c 	lsl.w	ip, r7, ip
 8000e2e:	40f2      	lsrs	r2, r6
 8000e30:	ea4c 0202 	orr.w	r2, ip, r2
 8000e34:	40f7      	lsrs	r7, r6
 8000e36:	e9c5 2700 	strd	r2, r7, [r5]
 8000e3a:	2600      	movs	r6, #0
 8000e3c:	4631      	mov	r1, r6
 8000e3e:	e8bd 87f0 	ldmia.w	sp!, {r4, r5, r6, r7, r8, r9, sl, pc}
 8000e42:	462e      	mov	r6, r5
 8000e44:	4628      	mov	r0, r5
 8000e46:	e70b      	b.n	8000c60 <__udivmoddi4+0xa0>
 8000e48:	4606      	mov	r6, r0
 8000e4a:	e6e9      	b.n	8000c20 <__udivmoddi4+0x60>
 8000e4c:	4618      	mov	r0, r3
 8000e4e:	e6fd      	b.n	8000c4c <__udivmoddi4+0x8c>
 8000e50:	4543      	cmp	r3, r8
 8000e52:	d2e5      	bcs.n	8000e20 <__udivmoddi4+0x260>
 8000e54:	ebb8 0e02 	subs.w	lr, r8, r2
 8000e58:	eb69 0104 	sbc.w	r1, r9, r4
 8000e5c:	3801      	subs	r0, #1
 8000e5e:	e7df      	b.n	8000e20 <__udivmoddi4+0x260>
 8000e60:	4608      	mov	r0, r1
 8000e62:	e7d2      	b.n	8000e0a <__udivmoddi4+0x24a>
 8000e64:	4660      	mov	r0, ip
 8000e66:	e78d      	b.n	8000d84 <__udivmoddi4+0x1c4>
 8000e68:	4681      	mov	r9, r0
 8000e6a:	e7b9      	b.n	8000de0 <__udivmoddi4+0x220>
 8000e6c:	4666      	mov	r6, ip
 8000e6e:	e775      	b.n	8000d5c <__udivmoddi4+0x19c>
 8000e70:	4630      	mov	r0, r6
 8000e72:	e74a      	b.n	8000d0a <__udivmoddi4+0x14a>
 8000e74:	f1ac 0c02 	sub.w	ip, ip, #2
 8000e78:	4439      	add	r1, r7
 8000e7a:	e713      	b.n	8000ca4 <__udivmoddi4+0xe4>
 8000e7c:	3802      	subs	r0, #2
 8000e7e:	443c      	add	r4, r7
 8000e80:	e724      	b.n	8000ccc <__udivmoddi4+0x10c>
 8000e82:	bf00      	nop

08000e84 <__aeabi_idiv0>:
 8000e84:	4770      	bx	lr
 8000e86:	bf00      	nop

08000e88 <HAL_ADC_ConvCpltCallback>:

#include <math.h>
#include "adc.h"
#include "dac.h"

void HAL_ADC_ConvCpltCallback(ADC_HandleTypeDef* hadc) {
 8000e88:	b580      	push	{r7, lr}
 8000e8a:	b086      	sub	sp, #24
 8000e8c:	af00      	add	r7, sp, #0
 8000e8e:	6078      	str	r0, [r7, #4]
	if (hadc->Instance == ADC1) {
 8000e90:	687b      	ldr	r3, [r7, #4]
 8000e92:	681b      	ldr	r3, [r3, #0]
 8000e94:	f1b3 4fa0 	cmp.w	r3, #1342177280	; 0x50000000
 8000e98:	d146      	bne.n	8000f28 <HAL_ADC_ConvCpltCallback+0xa0>
		float note_number = HAL_ADC_GetValue(hadc) / 32;
 8000e9a:	6878      	ldr	r0, [r7, #4]
 8000e9c:	f001 fa8c 	bl	80023b8 <HAL_ADC_GetValue>
 8000ea0:	4603      	mov	r3, r0
 8000ea2:	095b      	lsrs	r3, r3, #5
 8000ea4:	ee07 3a90 	vmov	s15, r3
 8000ea8:	eef8 7a67 	vcvt.f32.u32	s15, s15
 8000eac:	edc7 7a05 	vstr	s15, [r7, #20]
		float target_frequency = 440 * pow(2, (note_number - 69) / 12);
 8000eb0:	edd7 7a05 	vldr	s15, [r7, #20]
 8000eb4:	ed9f 7a2c 	vldr	s14, [pc, #176]	; 8000f68 <HAL_ADC_ConvCpltCallback+0xe0>
 8000eb8:	ee77 7ac7 	vsub.f32	s15, s15, s14
 8000ebc:	eeb2 7a08 	vmov.f32	s14, #40	; 0x41400000  12.0
 8000ec0:	eec7 6a87 	vdiv.f32	s13, s15, s14
 8000ec4:	ee16 0a90 	vmov	r0, s13
 8000ec8:	f7ff fb0a 	bl	80004e0 <__aeabi_f2d>
 8000ecc:	4602      	mov	r2, r0
 8000ece:	460b      	mov	r3, r1
 8000ed0:	ec43 2b11 	vmov	d1, r2, r3
 8000ed4:	ed9f 0b22 	vldr	d0, [pc, #136]	; 8000f60 <HAL_ADC_ConvCpltCallback+0xd8>
 8000ed8:	f004 ff8e 	bl	8005df8 <pow>
 8000edc:	ec51 0b10 	vmov	r0, r1, d0
 8000ee0:	f04f 0200 	mov.w	r2, #0
 8000ee4:	4b21      	ldr	r3, [pc, #132]	; (8000f6c <HAL_ADC_ConvCpltCallback+0xe4>)
 8000ee6:	f7ff fb53 	bl	8000590 <__aeabi_dmul>
 8000eea:	4602      	mov	r2, r0
 8000eec:	460b      	mov	r3, r1
 8000eee:	4610      	mov	r0, r2
 8000ef0:	4619      	mov	r1, r3
 8000ef2:	f7ff fdfd 	bl	8000af0 <__aeabi_d2f>
 8000ef6:	4603      	mov	r3, r0
 8000ef8:	613b      	str	r3, [r7, #16]
		float delta = (DAC_OUTPUT_MAX + 1) * target_frequency / SAMPLE_RATE / 2;
 8000efa:	edd7 7a04 	vldr	s15, [r7, #16]
 8000efe:	ed9f 7a1c 	vldr	s14, [pc, #112]	; 8000f70 <HAL_ADC_ConvCpltCallback+0xe8>
 8000f02:	ee67 7a87 	vmul.f32	s15, s15, s14
 8000f06:	eddf 6a1b 	vldr	s13, [pc, #108]	; 8000f74 <HAL_ADC_ConvCpltCallback+0xec>
 8000f0a:	ee87 7aa6 	vdiv.f32	s14, s15, s13
 8000f0e:	eef0 6a00 	vmov.f32	s13, #0	; 0x40000000  2.0
 8000f12:	eec7 7a26 	vdiv.f32	s15, s14, s13
 8000f16:	edc7 7a03 	vstr	s15, [r7, #12]
		dac_delta = delta;
 8000f1a:	4a17      	ldr	r2, [pc, #92]	; (8000f78 <HAL_ADC_ConvCpltCallback+0xf0>)
 8000f1c:	68fb      	ldr	r3, [r7, #12]
 8000f1e:	6013      	str	r3, [r2, #0]
		HAL_ADC_Start_IT(&hadc1);
 8000f20:	4816      	ldr	r0, [pc, #88]	; (8000f7c <HAL_ADC_ConvCpltCallback+0xf4>)
 8000f22:	f001 f917 	bl	8002154 <HAL_ADC_Start_IT>
	} else if (hadc->Instance == ADC2) {
		pulse_width = HAL_ADC_GetValue(hadc) / DAC_OUTPUT_MAX;
	}
}
 8000f26:	e016      	b.n	8000f56 <HAL_ADC_ConvCpltCallback+0xce>
	} else if (hadc->Instance == ADC2) {
 8000f28:	687b      	ldr	r3, [r7, #4]
 8000f2a:	681b      	ldr	r3, [r3, #0]
 8000f2c:	4a14      	ldr	r2, [pc, #80]	; (8000f80 <HAL_ADC_ConvCpltCallback+0xf8>)
 8000f2e:	4293      	cmp	r3, r2
 8000f30:	d111      	bne.n	8000f56 <HAL_ADC_ConvCpltCallback+0xce>
		pulse_width = HAL_ADC_GetValue(hadc) / DAC_OUTPUT_MAX;
 8000f32:	6878      	ldr	r0, [r7, #4]
 8000f34:	f001 fa40 	bl	80023b8 <HAL_ADC_GetValue>
 8000f38:	4602      	mov	r2, r0
 8000f3a:	4b12      	ldr	r3, [pc, #72]	; (8000f84 <HAL_ADC_ConvCpltCallback+0xfc>)
 8000f3c:	fba3 1302 	umull	r1, r3, r3, r2
 8000f40:	1ad2      	subs	r2, r2, r3
 8000f42:	0852      	lsrs	r2, r2, #1
 8000f44:	4413      	add	r3, r2
 8000f46:	0adb      	lsrs	r3, r3, #11
 8000f48:	ee07 3a90 	vmov	s15, r3
 8000f4c:	eef8 7a67 	vcvt.f32.u32	s15, s15
 8000f50:	4b0d      	ldr	r3, [pc, #52]	; (8000f88 <HAL_ADC_ConvCpltCallback+0x100>)
 8000f52:	edc3 7a00 	vstr	s15, [r3]
}
 8000f56:	bf00      	nop
 8000f58:	3718      	adds	r7, #24
 8000f5a:	46bd      	mov	sp, r7
 8000f5c:	bd80      	pop	{r7, pc}
 8000f5e:	bf00      	nop
 8000f60:	00000000 	.word	0x00000000
 8000f64:	40000000 	.word	0x40000000
 8000f68:	428a0000 	.word	0x428a0000
 8000f6c:	407b8000 	.word	0x407b8000
 8000f70:	45800000 	.word	0x45800000
 8000f74:	473b8000 	.word	0x473b8000
 8000f78:	20000004 	.word	0x20000004
 8000f7c:	200020b4 	.word	0x200020b4
 8000f80:	50000100 	.word	0x50000100
 8000f84:	00100101 	.word	0x00100101
 8000f88:	20000008 	.word	0x20000008

08000f8c <render_wave>:

float dac_value = 0;
float dac_delta = 1;
float pulse_width = 0.5;

void render_wave(DAC_HandleTypeDef* dac, uint8_t channel, WaveType wave_type, float* value, float* delta) {
 8000f8c:	b580      	push	{r7, lr}
 8000f8e:	b086      	sub	sp, #24
 8000f90:	af00      	add	r7, sp, #0
 8000f92:	60f8      	str	r0, [r7, #12]
 8000f94:	607b      	str	r3, [r7, #4]
 8000f96:	460b      	mov	r3, r1
 8000f98:	72fb      	strb	r3, [r7, #11]
 8000f9a:	4613      	mov	r3, r2
 8000f9c:	72bb      	strb	r3, [r7, #10]
	float out;

	*value += *delta;
 8000f9e:	687b      	ldr	r3, [r7, #4]
 8000fa0:	ed93 7a00 	vldr	s14, [r3]
 8000fa4:	6a3b      	ldr	r3, [r7, #32]
 8000fa6:	edd3 7a00 	vldr	s15, [r3]
 8000faa:	ee77 7a27 	vadd.f32	s15, s14, s15
 8000fae:	687b      	ldr	r3, [r7, #4]
 8000fb0:	edc3 7a00 	vstr	s15, [r3]
	if (*value > DAC_OUTPUT_MAX) {
 8000fb4:	687b      	ldr	r3, [r7, #4]
 8000fb6:	edd3 7a00 	vldr	s15, [r3]
 8000fba:	ed9f 7a36 	vldr	s14, [pc, #216]	; 8001094 <render_wave+0x108>
 8000fbe:	eef4 7ac7 	vcmpe.f32	s15, s14
 8000fc2:	eef1 fa10 	vmrs	APSR_nzcv, fpscr
 8000fc6:	dd03      	ble.n	8000fd0 <render_wave+0x44>
		*value = 0;
 8000fc8:	687b      	ldr	r3, [r7, #4]
 8000fca:	f04f 0200 	mov.w	r2, #0
 8000fce:	601a      	str	r2, [r3, #0]
	}

	if (wave_type == Triangle_Wave) {
 8000fd0:	7abb      	ldrb	r3, [r7, #10]
 8000fd2:	2b01      	cmp	r3, #1
 8000fd4:	d121      	bne.n	800101a <render_wave+0x8e>
		if (*value < (DAC_OUTPUT_MAX + 1) / 2) {
 8000fd6:	687b      	ldr	r3, [r7, #4]
 8000fd8:	edd3 7a00 	vldr	s15, [r3]
 8000fdc:	ed9f 7a2e 	vldr	s14, [pc, #184]	; 8001098 <render_wave+0x10c>
 8000fe0:	eef4 7ac7 	vcmpe.f32	s15, s14
 8000fe4:	eef1 fa10 	vmrs	APSR_nzcv, fpscr
 8000fe8:	d507      	bpl.n	8000ffa <render_wave+0x6e>
			out = *value * 2;
 8000fea:	687b      	ldr	r3, [r7, #4]
 8000fec:	edd3 7a00 	vldr	s15, [r3]
 8000ff0:	ee77 7aa7 	vadd.f32	s15, s15, s15
 8000ff4:	edc7 7a05 	vstr	s15, [r7, #20]
 8000ff8:	e03c      	b.n	8001074 <render_wave+0xe8>
		} else {
			out = DAC_OUTPUT_MAX - (*value - DAC_OUTPUT_MAX / 2) * 2;
 8000ffa:	687b      	ldr	r3, [r7, #4]
 8000ffc:	edd3 7a00 	vldr	s15, [r3]
 8001000:	ed9f 7a26 	vldr	s14, [pc, #152]	; 800109c <render_wave+0x110>
 8001004:	ee77 7ac7 	vsub.f32	s15, s15, s14
 8001008:	ee77 7aa7 	vadd.f32	s15, s15, s15
 800100c:	ed9f 7a21 	vldr	s14, [pc, #132]	; 8001094 <render_wave+0x108>
 8001010:	ee77 7a67 	vsub.f32	s15, s14, s15
 8001014:	edc7 7a05 	vstr	s15, [r7, #20]
 8001018:	e02c      	b.n	8001074 <render_wave+0xe8>
		}
	} else if (wave_type == Sawtooth_Down_Wave) {
 800101a:	7abb      	ldrb	r3, [r7, #10]
 800101c:	2b03      	cmp	r3, #3
 800101e:	d10d      	bne.n	800103c <render_wave+0xb0>
		out = DAC_OUTPUT_MAX - *value - 1;
 8001020:	687b      	ldr	r3, [r7, #4]
 8001022:	edd3 7a00 	vldr	s15, [r3]
 8001026:	ed9f 7a1b 	vldr	s14, [pc, #108]	; 8001094 <render_wave+0x108>
 800102a:	ee77 7a67 	vsub.f32	s15, s14, s15
 800102e:	eeb7 7a00 	vmov.f32	s14, #112	; 0x3f800000  1.0
 8001032:	ee77 7ac7 	vsub.f32	s15, s15, s14
 8001036:	edc7 7a05 	vstr	s15, [r7, #20]
 800103a:	e01b      	b.n	8001074 <render_wave+0xe8>
	} else if (wave_type == Sawtooth_Up_Wave) {
 800103c:	7abb      	ldrb	r3, [r7, #10]
 800103e:	2b02      	cmp	r3, #2
 8001040:	d103      	bne.n	800104a <render_wave+0xbe>
		out = *value;
 8001042:	687b      	ldr	r3, [r7, #4]
 8001044:	681b      	ldr	r3, [r3, #0]
 8001046:	617b      	str	r3, [r7, #20]
 8001048:	e014      	b.n	8001074 <render_wave+0xe8>
	} else if (wave_type == Sine_Wave) {
 800104a:	7abb      	ldrb	r3, [r7, #10]
 800104c:	2b04      	cmp	r3, #4
 800104e:	d111      	bne.n	8001074 <render_wave+0xe8>
		out = sine_lut[(uint16_t)*value];
 8001050:	687b      	ldr	r3, [r7, #4]
 8001052:	edd3 7a00 	vldr	s15, [r3]
 8001056:	eefc 7ae7 	vcvt.u32.f32	s15, s15
 800105a:	ee17 3a90 	vmov	r3, s15
 800105e:	b29b      	uxth	r3, r3
 8001060:	461a      	mov	r2, r3
 8001062:	4b0f      	ldr	r3, [pc, #60]	; (80010a0 <render_wave+0x114>)
 8001064:	f833 3012 	ldrh.w	r3, [r3, r2, lsl #1]
 8001068:	ee07 3a90 	vmov	s15, r3
 800106c:	eef8 7a67 	vcvt.f32.u32	s15, s15
 8001070:	edc7 7a05 	vstr	s15, [r7, #20]
	}

	HAL_DAC_SetValue(dac, channel, DAC_ALIGN_12B_R, (uint16_t)out);
 8001074:	7af9      	ldrb	r1, [r7, #11]
 8001076:	edd7 7a05 	vldr	s15, [r7, #20]
 800107a:	eefc 7ae7 	vcvt.u32.f32	s15, s15
 800107e:	ee17 3a90 	vmov	r3, s15
 8001082:	b29b      	uxth	r3, r3
 8001084:	2200      	movs	r2, #0
 8001086:	68f8      	ldr	r0, [r7, #12]
 8001088:	f002 faa4 	bl	80035d4 <HAL_DAC_SetValue>
}
 800108c:	bf00      	nop
 800108e:	3718      	adds	r7, #24
 8001090:	46bd      	mov	sp, r7
 8001092:	bd80      	pop	{r7, pc}
 8001094:	457ff000 	.word	0x457ff000
 8001098:	45000000 	.word	0x45000000
 800109c:	44ffe000 	.word	0x44ffe000
 80010a0:	2000000c 	.word	0x2000000c

080010a4 <render_pulse>:

void render_pulse(GPIO_TypeDef *GPIOx, uint16_t GPIO_Pin, float* value, float* delta) {
 80010a4:	b580      	push	{r7, lr}
 80010a6:	b084      	sub	sp, #16
 80010a8:	af00      	add	r7, sp, #0
 80010aa:	60f8      	str	r0, [r7, #12]
 80010ac:	607a      	str	r2, [r7, #4]
 80010ae:	603b      	str	r3, [r7, #0]
 80010b0:	460b      	mov	r3, r1
 80010b2:	817b      	strh	r3, [r7, #10]
	HAL_GPIO_WritePin(GPIOx, GPIO_Pin, *value / DAC_OUTPUT_MAX < pulse_width);
 80010b4:	687b      	ldr	r3, [r7, #4]
 80010b6:	edd3 7a00 	vldr	s15, [r3]
 80010ba:	eddf 6a0c 	vldr	s13, [pc, #48]	; 80010ec <render_pulse+0x48>
 80010be:	ee87 7aa6 	vdiv.f32	s14, s15, s13
 80010c2:	4b0b      	ldr	r3, [pc, #44]	; (80010f0 <render_pulse+0x4c>)
 80010c4:	edd3 7a00 	vldr	s15, [r3]
 80010c8:	eeb4 7ae7 	vcmpe.f32	s14, s15
 80010cc:	eef1 fa10 	vmrs	APSR_nzcv, fpscr
 80010d0:	bf4c      	ite	mi
 80010d2:	2301      	movmi	r3, #1
 80010d4:	2300      	movpl	r3, #0
 80010d6:	b2db      	uxtb	r3, r3
 80010d8:	461a      	mov	r2, r3
 80010da:	897b      	ldrh	r3, [r7, #10]
 80010dc:	4619      	mov	r1, r3
 80010de:	68f8      	ldr	r0, [r7, #12]
 80010e0:	f002 fdca 	bl	8003c78 <HAL_GPIO_WritePin>
}
 80010e4:	bf00      	nop
 80010e6:	3710      	adds	r7, #16
 80010e8:	46bd      	mov	sp, r7
 80010ea:	bd80      	pop	{r7, pc}
 80010ec:	457ff000 	.word	0x457ff000
 80010f0:	20000008 	.word	0x20000008

080010f4 <main>:
/**
  * @brief  The application entry point.
  * @retval int
  */
int main(void)
{
 80010f4:	b580      	push	{r7, lr}
 80010f6:	af00      	add	r7, sp, #0

  /* MCU Configuration--------------------------------------------------------*/

  /* Reset of all peripherals, Initializes the Flash interface and the Systick. */

	HAL_Init();
 80010f8:	f000 fbcf 	bl	800189a <HAL_Init>
  /* USER CODE BEGIN Init */

  /* USER CODE END Init */

  /* Configure the system clock */
  SystemClock_Config();
 80010fc:	f000 f820 	bl	8001140 <SystemClock_Config>
  /* USER CODE BEGIN SysInit */

  /* USER CODE END SysInit */

  /* Initialize all configured peripherals */
  MX_GPIO_Init();
 8001100:	f000 f9b6 	bl	8001470 <MX_GPIO_Init>
  MX_USART2_UART_Init();
 8001104:	f000 f968 	bl	80013d8 <MX_USART2_UART_Init>
  MX_ADC1_Init();
 8001108:	f000 f884 	bl	8001214 <MX_ADC1_Init>
  MX_DAC1_Init();
 800110c:	f000 f8fa 	bl	8001304 <MX_DAC1_Init>
  MX_TIM16_Init();
 8001110:	f000 f93c 	bl	800138c <MX_TIM16_Init>
  /* USER CODE BEGIN 2 */
  HAL_ADC_Start_IT(&hadc1);
 8001114:	4807      	ldr	r0, [pc, #28]	; (8001134 <main+0x40>)
 8001116:	f001 f81d 	bl	8002154 <HAL_ADC_Start_IT>
  // HAL_ADC_Start_IT(&hadc2);

  HAL_TIM_Base_Start_IT(&htim16);
 800111a:	4807      	ldr	r0, [pc, #28]	; (8001138 <main+0x44>)
 800111c:	f003 fdf4 	bl	8004d08 <HAL_TIM_Base_Start_IT>
  HAL_DAC_Start(&hdac1, DAC_CHANNEL_1);
 8001120:	2100      	movs	r1, #0
 8001122:	4806      	ldr	r0, [pc, #24]	; (800113c <main+0x48>)
 8001124:	f002 fa03 	bl	800352e <HAL_DAC_Start>
  HAL_DAC_Start(&hdac1, DAC_CHANNEL_2);
 8001128:	2110      	movs	r1, #16
 800112a:	4804      	ldr	r0, [pc, #16]	; (800113c <main+0x48>)
 800112c:	f002 f9ff 	bl	800352e <HAL_DAC_Start>

  /* USER CODE END 2 */

  /* Infinite loop */
  /* USER CODE BEGIN WHILE */
  while (1)
 8001130:	e7fe      	b.n	8001130 <main+0x3c>
 8001132:	bf00      	nop
 8001134:	200020b4 	.word	0x200020b4
 8001138:	200021b0 	.word	0x200021b0
 800113c:	200020a0 	.word	0x200020a0

08001140 <SystemClock_Config>:
/**
  * @brief System Clock Configuration
  * @retval None
  */
void SystemClock_Config(void)
{
 8001140:	b580      	push	{r7, lr}
 8001142:	b0a4      	sub	sp, #144	; 0x90
 8001144:	af00      	add	r7, sp, #0
  RCC_OscInitTypeDef RCC_OscInitStruct = {0};
 8001146:	f107 0358 	add.w	r3, r7, #88	; 0x58
 800114a:	2238      	movs	r2, #56	; 0x38
 800114c:	2100      	movs	r1, #0
 800114e:	4618      	mov	r0, r3
 8001150:	f004 fe4a 	bl	8005de8 <memset>
  RCC_ClkInitTypeDef RCC_ClkInitStruct = {0};
 8001154:	f107 0344 	add.w	r3, r7, #68	; 0x44
 8001158:	2200      	movs	r2, #0
 800115a:	601a      	str	r2, [r3, #0]
 800115c:	605a      	str	r2, [r3, #4]
 800115e:	609a      	str	r2, [r3, #8]
 8001160:	60da      	str	r2, [r3, #12]
 8001162:	611a      	str	r2, [r3, #16]
  RCC_PeriphCLKInitTypeDef PeriphClkInit = {0};
 8001164:	463b      	mov	r3, r7
 8001166:	2244      	movs	r2, #68	; 0x44
 8001168:	2100      	movs	r1, #0
 800116a:	4618      	mov	r0, r3
 800116c:	f004 fe3c 	bl	8005de8 <memset>

  /** Configure the main internal regulator output voltage
  */
  HAL_PWREx_ControlVoltageScaling(PWR_REGULATOR_VOLTAGE_SCALE1);
 8001170:	f44f 7000 	mov.w	r0, #512	; 0x200
 8001174:	f002 fd98 	bl	8003ca8 <HAL_PWREx_ControlVoltageScaling>
  /** Initializes the RCC Oscillators according to the specified parameters
  * in the RCC_OscInitTypeDef structure.
  */
  RCC_OscInitStruct.OscillatorType = RCC_OSCILLATORTYPE_HSI;
 8001178:	2302      	movs	r3, #2
 800117a:	65bb      	str	r3, [r7, #88]	; 0x58
  RCC_OscInitStruct.HSIState = RCC_HSI_ON;
 800117c:	f44f 7380 	mov.w	r3, #256	; 0x100
 8001180:	667b      	str	r3, [r7, #100]	; 0x64
  RCC_OscInitStruct.HSICalibrationValue = RCC_HSICALIBRATION_DEFAULT;
 8001182:	2340      	movs	r3, #64	; 0x40
 8001184:	66bb      	str	r3, [r7, #104]	; 0x68
  RCC_OscInitStruct.PLL.PLLState = RCC_PLL_ON;
 8001186:	2302      	movs	r3, #2
 8001188:	677b      	str	r3, [r7, #116]	; 0x74
  RCC_OscInitStruct.PLL.PLLSource = RCC_PLLSOURCE_HSI;
 800118a:	2302      	movs	r3, #2
 800118c:	67bb      	str	r3, [r7, #120]	; 0x78
  RCC_OscInitStruct.PLL.PLLM = RCC_PLLM_DIV1;
 800118e:	2301      	movs	r3, #1
 8001190:	67fb      	str	r3, [r7, #124]	; 0x7c
  RCC_OscInitStruct.PLL.PLLN = 12;
 8001192:	230c      	movs	r3, #12
 8001194:	f8c7 3080 	str.w	r3, [r7, #128]	; 0x80
  RCC_OscInitStruct.PLL.PLLP = RCC_PLLP_DIV2;
 8001198:	2302      	movs	r3, #2
 800119a:	f8c7 3084 	str.w	r3, [r7, #132]	; 0x84
  RCC_OscInitStruct.PLL.PLLQ = RCC_PLLQ_DIV2;
 800119e:	2302      	movs	r3, #2
 80011a0:	f8c7 3088 	str.w	r3, [r7, #136]	; 0x88
  RCC_OscInitStruct.PLL.PLLR = RCC_PLLR_DIV2;
 80011a4:	2302      	movs	r3, #2
 80011a6:	f8c7 308c 	str.w	r3, [r7, #140]	; 0x8c
  if (HAL_RCC_OscConfig(&RCC_OscInitStruct) != HAL_OK)
 80011aa:	f107 0358 	add.w	r3, r7, #88	; 0x58
 80011ae:	4618      	mov	r0, r3
 80011b0:	f002 fe2e 	bl	8003e10 <HAL_RCC_OscConfig>
 80011b4:	4603      	mov	r3, r0
 80011b6:	2b00      	cmp	r3, #0
 80011b8:	d001      	beq.n	80011be <SystemClock_Config+0x7e>
  {
    Error_Handler();
 80011ba:	f000 f9af 	bl	800151c <Error_Handler>
  }
  /** Initializes the CPU, AHB and APB buses clocks
  */
  RCC_ClkInitStruct.ClockType = RCC_CLOCKTYPE_HCLK|RCC_CLOCKTYPE_SYSCLK
 80011be:	230f      	movs	r3, #15
 80011c0:	647b      	str	r3, [r7, #68]	; 0x44
                              |RCC_CLOCKTYPE_PCLK1|RCC_CLOCKTYPE_PCLK2;
  RCC_ClkInitStruct.SYSCLKSource = RCC_SYSCLKSOURCE_PLLCLK;
 80011c2:	2303      	movs	r3, #3
 80011c4:	64bb      	str	r3, [r7, #72]	; 0x48
  RCC_ClkInitStruct.AHBCLKDivider = RCC_SYSCLK_DIV1;
 80011c6:	2300      	movs	r3, #0
 80011c8:	64fb      	str	r3, [r7, #76]	; 0x4c
  RCC_ClkInitStruct.APB1CLKDivider = RCC_HCLK_DIV1;
 80011ca:	2300      	movs	r3, #0
 80011cc:	653b      	str	r3, [r7, #80]	; 0x50
  RCC_ClkInitStruct.APB2CLKDivider = RCC_HCLK_DIV1;
 80011ce:	2300      	movs	r3, #0
 80011d0:	657b      	str	r3, [r7, #84]	; 0x54

  if (HAL_RCC_ClockConfig(&RCC_ClkInitStruct, FLASH_LATENCY_2) != HAL_OK)
 80011d2:	f107 0344 	add.w	r3, r7, #68	; 0x44
 80011d6:	2102      	movs	r1, #2
 80011d8:	4618      	mov	r0, r3
 80011da:	f003 f931 	bl	8004440 <HAL_RCC_ClockConfig>
 80011de:	4603      	mov	r3, r0
 80011e0:	2b00      	cmp	r3, #0
 80011e2:	d001      	beq.n	80011e8 <SystemClock_Config+0xa8>
  {
    Error_Handler();
 80011e4:	f000 f99a 	bl	800151c <Error_Handler>
  }
  /** Initializes the peripherals clocks
  */
  PeriphClkInit.PeriphClockSelection = RCC_PERIPHCLK_USART2|RCC_PERIPHCLK_ADC12;
 80011e8:	f248 0302 	movw	r3, #32770	; 0x8002
 80011ec:	603b      	str	r3, [r7, #0]
  PeriphClkInit.Usart2ClockSelection = RCC_USART2CLKSOURCE_PCLK1;
 80011ee:	2300      	movs	r3, #0
 80011f0:	60bb      	str	r3, [r7, #8]
  PeriphClkInit.Adc12ClockSelection = RCC_ADC12CLKSOURCE_SYSCLK;
 80011f2:	f04f 5300 	mov.w	r3, #536870912	; 0x20000000
 80011f6:	63fb      	str	r3, [r7, #60]	; 0x3c
  if (HAL_RCCEx_PeriphCLKConfig(&PeriphClkInit) != HAL_OK)
 80011f8:	463b      	mov	r3, r7
 80011fa:	4618      	mov	r0, r3
 80011fc:	f003 fb3c 	bl	8004878 <HAL_RCCEx_PeriphCLKConfig>
 8001200:	4603      	mov	r3, r0
 8001202:	2b00      	cmp	r3, #0
 8001204:	d001      	beq.n	800120a <SystemClock_Config+0xca>
  {
    Error_Handler();
 8001206:	f000 f989 	bl	800151c <Error_Handler>
  }
}
 800120a:	bf00      	nop
 800120c:	3790      	adds	r7, #144	; 0x90
 800120e:	46bd      	mov	sp, r7
 8001210:	bd80      	pop	{r7, pc}
	...

08001214 <MX_ADC1_Init>:
  * @brief ADC1 Initialization Function
  * @param None
  * @retval None
  */
static void MX_ADC1_Init(void)
{
 8001214:	b580      	push	{r7, lr}
 8001216:	b08c      	sub	sp, #48	; 0x30
 8001218:	af00      	add	r7, sp, #0

  /* USER CODE BEGIN ADC1_Init 0 */

  /* USER CODE END ADC1_Init 0 */

  ADC_MultiModeTypeDef multimode = {0};
 800121a:	f107 0324 	add.w	r3, r7, #36	; 0x24
 800121e:	2200      	movs	r2, #0
 8001220:	601a      	str	r2, [r3, #0]
 8001222:	605a      	str	r2, [r3, #4]
 8001224:	609a      	str	r2, [r3, #8]
  ADC_ChannelConfTypeDef sConfig = {0};
 8001226:	1d3b      	adds	r3, r7, #4
 8001228:	2220      	movs	r2, #32
 800122a:	2100      	movs	r1, #0
 800122c:	4618      	mov	r0, r3
 800122e:	f004 fddb 	bl	8005de8 <memset>
  /* USER CODE BEGIN ADC1_Init 1 */

  /* USER CODE END ADC1_Init 1 */
  /** Common config
  */
  hadc1.Instance = ADC1;
 8001232:	4b32      	ldr	r3, [pc, #200]	; (80012fc <MX_ADC1_Init+0xe8>)
 8001234:	f04f 42a0 	mov.w	r2, #1342177280	; 0x50000000
 8001238:	601a      	str	r2, [r3, #0]
  hadc1.Init.ClockPrescaler = ADC_CLOCK_ASYNC_DIV256;
 800123a:	4b30      	ldr	r3, [pc, #192]	; (80012fc <MX_ADC1_Init+0xe8>)
 800123c:	f44f 1230 	mov.w	r2, #2883584	; 0x2c0000
 8001240:	605a      	str	r2, [r3, #4]
  hadc1.Init.Resolution = ADC_RESOLUTION_12B;
 8001242:	4b2e      	ldr	r3, [pc, #184]	; (80012fc <MX_ADC1_Init+0xe8>)
 8001244:	2200      	movs	r2, #0
 8001246:	609a      	str	r2, [r3, #8]
  hadc1.Init.DataAlign = ADC_DATAALIGN_RIGHT;
 8001248:	4b2c      	ldr	r3, [pc, #176]	; (80012fc <MX_ADC1_Init+0xe8>)
 800124a:	2200      	movs	r2, #0
 800124c:	60da      	str	r2, [r3, #12]
  hadc1.Init.GainCompensation = 0;
 800124e:	4b2b      	ldr	r3, [pc, #172]	; (80012fc <MX_ADC1_Init+0xe8>)
 8001250:	2200      	movs	r2, #0
 8001252:	611a      	str	r2, [r3, #16]
  hadc1.Init.ScanConvMode = ADC_SCAN_DISABLE;
 8001254:	4b29      	ldr	r3, [pc, #164]	; (80012fc <MX_ADC1_Init+0xe8>)
 8001256:	2200      	movs	r2, #0
 8001258:	615a      	str	r2, [r3, #20]
  hadc1.Init.EOCSelection = ADC_EOC_SINGLE_CONV;
 800125a:	4b28      	ldr	r3, [pc, #160]	; (80012fc <MX_ADC1_Init+0xe8>)
 800125c:	2204      	movs	r2, #4
 800125e:	619a      	str	r2, [r3, #24]
  hadc1.Init.LowPowerAutoWait = DISABLE;
 8001260:	4b26      	ldr	r3, [pc, #152]	; (80012fc <MX_ADC1_Init+0xe8>)
 8001262:	2200      	movs	r2, #0
 8001264:	771a      	strb	r2, [r3, #28]
  hadc1.Init.ContinuousConvMode = ENABLE;
 8001266:	4b25      	ldr	r3, [pc, #148]	; (80012fc <MX_ADC1_Init+0xe8>)
 8001268:	2201      	movs	r2, #1
 800126a:	775a      	strb	r2, [r3, #29]
  hadc1.Init.NbrOfConversion = 1;
 800126c:	4b23      	ldr	r3, [pc, #140]	; (80012fc <MX_ADC1_Init+0xe8>)
 800126e:	2201      	movs	r2, #1
 8001270:	621a      	str	r2, [r3, #32]
  hadc1.Init.DiscontinuousConvMode = DISABLE;
 8001272:	4b22      	ldr	r3, [pc, #136]	; (80012fc <MX_ADC1_Init+0xe8>)
 8001274:	2200      	movs	r2, #0
 8001276:	f883 2024 	strb.w	r2, [r3, #36]	; 0x24
  hadc1.Init.ExternalTrigConv = ADC_SOFTWARE_START;
 800127a:	4b20      	ldr	r3, [pc, #128]	; (80012fc <MX_ADC1_Init+0xe8>)
 800127c:	2200      	movs	r2, #0
 800127e:	62da      	str	r2, [r3, #44]	; 0x2c
  hadc1.Init.ExternalTrigConvEdge = ADC_EXTERNALTRIGCONVEDGE_NONE;
 8001280:	4b1e      	ldr	r3, [pc, #120]	; (80012fc <MX_ADC1_Init+0xe8>)
 8001282:	2200      	movs	r2, #0
 8001284:	631a      	str	r2, [r3, #48]	; 0x30
  hadc1.Init.DMAContinuousRequests = DISABLE;
 8001286:	4b1d      	ldr	r3, [pc, #116]	; (80012fc <MX_ADC1_Init+0xe8>)
 8001288:	2200      	movs	r2, #0
 800128a:	f883 2038 	strb.w	r2, [r3, #56]	; 0x38
  hadc1.Init.Overrun = ADC_OVR_DATA_PRESERVED;
 800128e:	4b1b      	ldr	r3, [pc, #108]	; (80012fc <MX_ADC1_Init+0xe8>)
 8001290:	2200      	movs	r2, #0
 8001292:	63da      	str	r2, [r3, #60]	; 0x3c
  hadc1.Init.OversamplingMode = DISABLE;
 8001294:	4b19      	ldr	r3, [pc, #100]	; (80012fc <MX_ADC1_Init+0xe8>)
 8001296:	2200      	movs	r2, #0
 8001298:	f883 2040 	strb.w	r2, [r3, #64]	; 0x40
  if (HAL_ADC_Init(&hadc1) != HAL_OK)
 800129c:	4817      	ldr	r0, [pc, #92]	; (80012fc <MX_ADC1_Init+0xe8>)
 800129e:	f000 fdcf 	bl	8001e40 <HAL_ADC_Init>
 80012a2:	4603      	mov	r3, r0
 80012a4:	2b00      	cmp	r3, #0
 80012a6:	d001      	beq.n	80012ac <MX_ADC1_Init+0x98>
  {
    Error_Handler();
 80012a8:	f000 f938 	bl	800151c <Error_Handler>
  }
  /** Configure the ADC multi-mode
  */
  multimode.Mode = ADC_MODE_INDEPENDENT;
 80012ac:	2300      	movs	r3, #0
 80012ae:	627b      	str	r3, [r7, #36]	; 0x24
  if (HAL_ADCEx_MultiModeConfigChannel(&hadc1, &multimode) != HAL_OK)
 80012b0:	f107 0324 	add.w	r3, r7, #36	; 0x24
 80012b4:	4619      	mov	r1, r3
 80012b6:	4811      	ldr	r0, [pc, #68]	; (80012fc <MX_ADC1_Init+0xe8>)
 80012b8:	f001 ff64 	bl	8003184 <HAL_ADCEx_MultiModeConfigChannel>
 80012bc:	4603      	mov	r3, r0
 80012be:	2b00      	cmp	r3, #0
 80012c0:	d001      	beq.n	80012c6 <MX_ADC1_Init+0xb2>
  {
    Error_Handler();
 80012c2:	f000 f92b 	bl	800151c <Error_Handler>
  }
  /** Configure Regular Channel
  */
  sConfig.Channel = ADC_CHANNEL_1;
 80012c6:	4b0e      	ldr	r3, [pc, #56]	; (8001300 <MX_ADC1_Init+0xec>)
 80012c8:	607b      	str	r3, [r7, #4]
  sConfig.Rank = ADC_REGULAR_RANK_1;
 80012ca:	2306      	movs	r3, #6
 80012cc:	60bb      	str	r3, [r7, #8]
  sConfig.SamplingTime = ADC_SAMPLETIME_2CYCLES_5;
 80012ce:	2300      	movs	r3, #0
 80012d0:	60fb      	str	r3, [r7, #12]
  sConfig.SingleDiff = ADC_SINGLE_ENDED;
 80012d2:	237f      	movs	r3, #127	; 0x7f
 80012d4:	613b      	str	r3, [r7, #16]
  sConfig.OffsetNumber = ADC_OFFSET_NONE;
 80012d6:	2304      	movs	r3, #4
 80012d8:	617b      	str	r3, [r7, #20]
  sConfig.Offset = 0;
 80012da:	2300      	movs	r3, #0
 80012dc:	61bb      	str	r3, [r7, #24]
  if (HAL_ADC_ConfigChannel(&hadc1, &sConfig) != HAL_OK)
 80012de:	1d3b      	adds	r3, r7, #4
 80012e0:	4619      	mov	r1, r3
 80012e2:	4806      	ldr	r0, [pc, #24]	; (80012fc <MX_ADC1_Init+0xe8>)
 80012e4:	f001 faa4 	bl	8002830 <HAL_ADC_ConfigChannel>
 80012e8:	4603      	mov	r3, r0
 80012ea:	2b00      	cmp	r3, #0
 80012ec:	d001      	beq.n	80012f2 <MX_ADC1_Init+0xde>
  {
    Error_Handler();
 80012ee:	f000 f915 	bl	800151c <Error_Handler>
  }
  /* USER CODE BEGIN ADC1_Init 2 */

  /* USER CODE END ADC1_Init 2 */

}
 80012f2:	bf00      	nop
 80012f4:	3730      	adds	r7, #48	; 0x30
 80012f6:	46bd      	mov	sp, r7
 80012f8:	bd80      	pop	{r7, pc}
 80012fa:	bf00      	nop
 80012fc:	200020b4 	.word	0x200020b4
 8001300:	04300002 	.word	0x04300002

08001304 <MX_DAC1_Init>:
  * @brief DAC1 Initialization Function
  * @param None
  * @retval None
  */
static void MX_DAC1_Init(void)
{
 8001304:	b580      	push	{r7, lr}
 8001306:	b08c      	sub	sp, #48	; 0x30
 8001308:	af00      	add	r7, sp, #0

  /* USER CODE BEGIN DAC1_Init 0 */

  /* USER CODE END DAC1_Init 0 */

  DAC_ChannelConfTypeDef sConfig = {0};
 800130a:	463b      	mov	r3, r7
 800130c:	2230      	movs	r2, #48	; 0x30
 800130e:	2100      	movs	r1, #0
 8001310:	4618      	mov	r0, r3
 8001312:	f004 fd69 	bl	8005de8 <memset>
  /* USER CODE BEGIN DAC1_Init 1 */

  /* USER CODE END DAC1_Init 1 */
  /** DAC Initialization
  */
  hdac1.Instance = DAC1;
 8001316:	4b1b      	ldr	r3, [pc, #108]	; (8001384 <MX_DAC1_Init+0x80>)
 8001318:	4a1b      	ldr	r2, [pc, #108]	; (8001388 <MX_DAC1_Init+0x84>)
 800131a:	601a      	str	r2, [r3, #0]
  if (HAL_DAC_Init(&hdac1) != HAL_OK)
 800131c:	4819      	ldr	r0, [pc, #100]	; (8001384 <MX_DAC1_Init+0x80>)
 800131e:	f002 f8e4 	bl	80034ea <HAL_DAC_Init>
 8001322:	4603      	mov	r3, r0
 8001324:	2b00      	cmp	r3, #0
 8001326:	d001      	beq.n	800132c <MX_DAC1_Init+0x28>
  {
    Error_Handler();
 8001328:	f000 f8f8 	bl	800151c <Error_Handler>
  }
  /** DAC channel OUT1 config
  */
  sConfig.DAC_HighFrequency = DAC_HIGH_FREQUENCY_INTERFACE_MODE_AUTOMATIC;
 800132c:	2302      	movs	r3, #2
 800132e:	603b      	str	r3, [r7, #0]
  sConfig.DAC_DMADoubleDataMode = DISABLE;
 8001330:	2300      	movs	r3, #0
 8001332:	713b      	strb	r3, [r7, #4]
  sConfig.DAC_SignedFormat = DISABLE;
 8001334:	2300      	movs	r3, #0
 8001336:	717b      	strb	r3, [r7, #5]
  sConfig.DAC_SampleAndHold = DAC_SAMPLEANDHOLD_DISABLE;
 8001338:	2300      	movs	r3, #0
 800133a:	60bb      	str	r3, [r7, #8]
  sConfig.DAC_Trigger = DAC_TRIGGER_NONE;
 800133c:	2300      	movs	r3, #0
 800133e:	60fb      	str	r3, [r7, #12]
  sConfig.DAC_Trigger2 = DAC_TRIGGER_NONE;
 8001340:	2300      	movs	r3, #0
 8001342:	613b      	str	r3, [r7, #16]
  sConfig.DAC_OutputBuffer = DAC_OUTPUTBUFFER_ENABLE;
 8001344:	2300      	movs	r3, #0
 8001346:	617b      	str	r3, [r7, #20]
  sConfig.DAC_ConnectOnChipPeripheral = DAC_CHIPCONNECT_EXTERNAL;
 8001348:	2301      	movs	r3, #1
 800134a:	61bb      	str	r3, [r7, #24]
  sConfig.DAC_UserTrimming = DAC_TRIMMING_FACTORY;
 800134c:	2300      	movs	r3, #0
 800134e:	61fb      	str	r3, [r7, #28]
  if (HAL_DAC_ConfigChannel(&hdac1, &sConfig, DAC_CHANNEL_1) != HAL_OK)
 8001350:	463b      	mov	r3, r7
 8001352:	2200      	movs	r2, #0
 8001354:	4619      	mov	r1, r3
 8001356:	480b      	ldr	r0, [pc, #44]	; (8001384 <MX_DAC1_Init+0x80>)
 8001358:	f002 f964 	bl	8003624 <HAL_DAC_ConfigChannel>
 800135c:	4603      	mov	r3, r0
 800135e:	2b00      	cmp	r3, #0
 8001360:	d001      	beq.n	8001366 <MX_DAC1_Init+0x62>
  {
    Error_Handler();
 8001362:	f000 f8db 	bl	800151c <Error_Handler>
  }
  /** DAC channel OUT2 config
  */
  if (HAL_DAC_ConfigChannel(&hdac1, &sConfig, DAC_CHANNEL_2) != HAL_OK)
 8001366:	463b      	mov	r3, r7
 8001368:	2210      	movs	r2, #16
 800136a:	4619      	mov	r1, r3
 800136c:	4805      	ldr	r0, [pc, #20]	; (8001384 <MX_DAC1_Init+0x80>)
 800136e:	f002 f959 	bl	8003624 <HAL_DAC_ConfigChannel>
 8001372:	4603      	mov	r3, r0
 8001374:	2b00      	cmp	r3, #0
 8001376:	d001      	beq.n	800137c <MX_DAC1_Init+0x78>
  {
    Error_Handler();
 8001378:	f000 f8d0 	bl	800151c <Error_Handler>
  }
  /* USER CODE BEGIN DAC1_Init 2 */

  /* USER CODE END DAC1_Init 2 */

}
 800137c:	bf00      	nop
 800137e:	3730      	adds	r7, #48	; 0x30
 8001380:	46bd      	mov	sp, r7
 8001382:	bd80      	pop	{r7, pc}
 8001384:	200020a0 	.word	0x200020a0
 8001388:	50000800 	.word	0x50000800

0800138c <MX_TIM16_Init>:
  * @brief TIM16 Initialization Function
  * @param None
  * @retval None
  */
static void MX_TIM16_Init(void)
{
 800138c:	b580      	push	{r7, lr}
 800138e:	af00      	add	r7, sp, #0
  /* USER CODE END TIM16_Init 0 */

  /* USER CODE BEGIN TIM16_Init 1 */

  /* USER CODE END TIM16_Init 1 */
  htim16.Instance = TIM16;
 8001390:	4b0f      	ldr	r3, [pc, #60]	; (80013d0 <MX_TIM16_Init+0x44>)
 8001392:	4a10      	ldr	r2, [pc, #64]	; (80013d4 <MX_TIM16_Init+0x48>)
 8001394:	601a      	str	r2, [r3, #0]
  htim16.Init.Prescaler = 0;
 8001396:	4b0e      	ldr	r3, [pc, #56]	; (80013d0 <MX_TIM16_Init+0x44>)
 8001398:	2200      	movs	r2, #0
 800139a:	605a      	str	r2, [r3, #4]
  htim16.Init.CounterMode = TIM_COUNTERMODE_UP;
 800139c:	4b0c      	ldr	r3, [pc, #48]	; (80013d0 <MX_TIM16_Init+0x44>)
 800139e:	2200      	movs	r2, #0
 80013a0:	609a      	str	r2, [r3, #8]
  htim16.Init.Period = 999;
 80013a2:	4b0b      	ldr	r3, [pc, #44]	; (80013d0 <MX_TIM16_Init+0x44>)
 80013a4:	f240 32e7 	movw	r2, #999	; 0x3e7
 80013a8:	60da      	str	r2, [r3, #12]
  htim16.Init.ClockDivision = TIM_CLOCKDIVISION_DIV1;
 80013aa:	4b09      	ldr	r3, [pc, #36]	; (80013d0 <MX_TIM16_Init+0x44>)
 80013ac:	2200      	movs	r2, #0
 80013ae:	611a      	str	r2, [r3, #16]
  htim16.Init.RepetitionCounter = 0;
 80013b0:	4b07      	ldr	r3, [pc, #28]	; (80013d0 <MX_TIM16_Init+0x44>)
 80013b2:	2200      	movs	r2, #0
 80013b4:	615a      	str	r2, [r3, #20]
  htim16.Init.AutoReloadPreload = TIM_AUTORELOAD_PRELOAD_DISABLE;
 80013b6:	4b06      	ldr	r3, [pc, #24]	; (80013d0 <MX_TIM16_Init+0x44>)
 80013b8:	2200      	movs	r2, #0
 80013ba:	619a      	str	r2, [r3, #24]
  if (HAL_TIM_Base_Init(&htim16) != HAL_OK)
 80013bc:	4804      	ldr	r0, [pc, #16]	; (80013d0 <MX_TIM16_Init+0x44>)
 80013be:	f003 fc4b 	bl	8004c58 <HAL_TIM_Base_Init>
 80013c2:	4603      	mov	r3, r0
 80013c4:	2b00      	cmp	r3, #0
 80013c6:	d001      	beq.n	80013cc <MX_TIM16_Init+0x40>
  {
    Error_Handler();
 80013c8:	f000 f8a8 	bl	800151c <Error_Handler>
  }
  /* USER CODE BEGIN TIM16_Init 2 */

  /* USER CODE END TIM16_Init 2 */

}
 80013cc:	bf00      	nop
 80013ce:	bd80      	pop	{r7, pc}
 80013d0:	200021b0 	.word	0x200021b0
 80013d4:	40014400 	.word	0x40014400

080013d8 <MX_USART2_UART_Init>:
  * @brief USART2 Initialization Function
  * @param None
  * @retval None
  */
static void MX_USART2_UART_Init(void)
{
 80013d8:	b580      	push	{r7, lr}
 80013da:	af00      	add	r7, sp, #0
  /* USER CODE END USART2_Init 0 */

  /* USER CODE BEGIN USART2_Init 1 */

  /* USER CODE END USART2_Init 1 */
  huart2.Instance = USART2;
 80013dc:	4b22      	ldr	r3, [pc, #136]	; (8001468 <MX_USART2_UART_Init+0x90>)
 80013de:	4a23      	ldr	r2, [pc, #140]	; (800146c <MX_USART2_UART_Init+0x94>)
 80013e0:	601a      	str	r2, [r3, #0]
  huart2.Init.BaudRate = 115200;
 80013e2:	4b21      	ldr	r3, [pc, #132]	; (8001468 <MX_USART2_UART_Init+0x90>)
 80013e4:	f44f 32e1 	mov.w	r2, #115200	; 0x1c200
 80013e8:	605a      	str	r2, [r3, #4]
  huart2.Init.WordLength = UART_WORDLENGTH_8B;
 80013ea:	4b1f      	ldr	r3, [pc, #124]	; (8001468 <MX_USART2_UART_Init+0x90>)
 80013ec:	2200      	movs	r2, #0
 80013ee:	609a      	str	r2, [r3, #8]
  huart2.Init.StopBits = UART_STOPBITS_1;
 80013f0:	4b1d      	ldr	r3, [pc, #116]	; (8001468 <MX_USART2_UART_Init+0x90>)
 80013f2:	2200      	movs	r2, #0
 80013f4:	60da      	str	r2, [r3, #12]
  huart2.Init.Parity = UART_PARITY_NONE;
 80013f6:	4b1c      	ldr	r3, [pc, #112]	; (8001468 <MX_USART2_UART_Init+0x90>)
 80013f8:	2200      	movs	r2, #0
 80013fa:	611a      	str	r2, [r3, #16]
  huart2.Init.Mode = UART_MODE_TX_RX;
 80013fc:	4b1a      	ldr	r3, [pc, #104]	; (8001468 <MX_USART2_UART_Init+0x90>)
 80013fe:	220c      	movs	r2, #12
 8001400:	615a      	str	r2, [r3, #20]
  huart2.Init.HwFlowCtl = UART_HWCONTROL_NONE;
 8001402:	4b19      	ldr	r3, [pc, #100]	; (8001468 <MX_USART2_UART_Init+0x90>)
 8001404:	2200      	movs	r2, #0
 8001406:	619a      	str	r2, [r3, #24]
  huart2.Init.OverSampling = UART_OVERSAMPLING_16;
 8001408:	4b17      	ldr	r3, [pc, #92]	; (8001468 <MX_USART2_UART_Init+0x90>)
 800140a:	2200      	movs	r2, #0
 800140c:	61da      	str	r2, [r3, #28]
  huart2.Init.OneBitSampling = UART_ONE_BIT_SAMPLE_DISABLE;
 800140e:	4b16      	ldr	r3, [pc, #88]	; (8001468 <MX_USART2_UART_Init+0x90>)
 8001410:	2200      	movs	r2, #0
 8001412:	621a      	str	r2, [r3, #32]
  huart2.Init.ClockPrescaler = UART_PRESCALER_DIV1;
 8001414:	4b14      	ldr	r3, [pc, #80]	; (8001468 <MX_USART2_UART_Init+0x90>)
 8001416:	2200      	movs	r2, #0
 8001418:	625a      	str	r2, [r3, #36]	; 0x24
  huart2.AdvancedInit.AdvFeatureInit = UART_ADVFEATURE_NO_INIT;
 800141a:	4b13      	ldr	r3, [pc, #76]	; (8001468 <MX_USART2_UART_Init+0x90>)
 800141c:	2200      	movs	r2, #0
 800141e:	629a      	str	r2, [r3, #40]	; 0x28
  if (HAL_UART_Init(&huart2) != HAL_OK)
 8001420:	4811      	ldr	r0, [pc, #68]	; (8001468 <MX_USART2_UART_Init+0x90>)
 8001422:	f003 ff59 	bl	80052d8 <HAL_UART_Init>
 8001426:	4603      	mov	r3, r0
 8001428:	2b00      	cmp	r3, #0
 800142a:	d001      	beq.n	8001430 <MX_USART2_UART_Init+0x58>
  {
    Error_Handler();
 800142c:	f000 f876 	bl	800151c <Error_Handler>
  }
  if (HAL_UARTEx_SetTxFifoThreshold(&huart2, UART_TXFIFO_THRESHOLD_1_8) != HAL_OK)
 8001430:	2100      	movs	r1, #0
 8001432:	480d      	ldr	r0, [pc, #52]	; (8001468 <MX_USART2_UART_Init+0x90>)
 8001434:	f004 fbe4 	bl	8005c00 <HAL_UARTEx_SetTxFifoThreshold>
 8001438:	4603      	mov	r3, r0
 800143a:	2b00      	cmp	r3, #0
 800143c:	d001      	beq.n	8001442 <MX_USART2_UART_Init+0x6a>
  {
    Error_Handler();
 800143e:	f000 f86d 	bl	800151c <Error_Handler>
  }
  if (HAL_UARTEx_SetRxFifoThreshold(&huart2, UART_RXFIFO_THRESHOLD_1_8) != HAL_OK)
 8001442:	2100      	movs	r1, #0
 8001444:	4808      	ldr	r0, [pc, #32]	; (8001468 <MX_USART2_UART_Init+0x90>)
 8001446:	f004 fc19 	bl	8005c7c <HAL_UARTEx_SetRxFifoThreshold>
 800144a:	4603      	mov	r3, r0
 800144c:	2b00      	cmp	r3, #0
 800144e:	d001      	beq.n	8001454 <MX_USART2_UART_Init+0x7c>
  {
    Error_Handler();
 8001450:	f000 f864 	bl	800151c <Error_Handler>
  }
  if (HAL_UARTEx_DisableFifoMode(&huart2) != HAL_OK)
 8001454:	4804      	ldr	r0, [pc, #16]	; (8001468 <MX_USART2_UART_Init+0x90>)
 8001456:	f004 fb9a 	bl	8005b8e <HAL_UARTEx_DisableFifoMode>
 800145a:	4603      	mov	r3, r0
 800145c:	2b00      	cmp	r3, #0
 800145e:	d001      	beq.n	8001464 <MX_USART2_UART_Init+0x8c>
  {
    Error_Handler();
 8001460:	f000 f85c 	bl	800151c <Error_Handler>
  }
  /* USER CODE BEGIN USART2_Init 2 */

  /* USER CODE END USART2_Init 2 */

}
 8001464:	bf00      	nop
 8001466:	bd80      	pop	{r7, pc}
 8001468:	20002120 	.word	0x20002120
 800146c:	40004400 	.word	0x40004400

08001470 <MX_GPIO_Init>:
  * @brief GPIO Initialization Function
  * @param None
  * @retval None
  */
static void MX_GPIO_Init(void)
{
 8001470:	b580      	push	{r7, lr}
 8001472:	b088      	sub	sp, #32
 8001474:	af00      	add	r7, sp, #0
  GPIO_InitTypeDef GPIO_InitStruct = {0};
 8001476:	f107 030c 	add.w	r3, r7, #12
 800147a:	2200      	movs	r2, #0
 800147c:	601a      	str	r2, [r3, #0]
 800147e:	605a      	str	r2, [r3, #4]
 8001480:	609a      	str	r2, [r3, #8]
 8001482:	60da      	str	r2, [r3, #12]
 8001484:	611a      	str	r2, [r3, #16]

  /* GPIO Ports Clock Enable */
  __HAL_RCC_GPIOA_CLK_ENABLE();
 8001486:	4b23      	ldr	r3, [pc, #140]	; (8001514 <MX_GPIO_Init+0xa4>)
 8001488:	6cdb      	ldr	r3, [r3, #76]	; 0x4c
 800148a:	4a22      	ldr	r2, [pc, #136]	; (8001514 <MX_GPIO_Init+0xa4>)
 800148c:	f043 0301 	orr.w	r3, r3, #1
 8001490:	64d3      	str	r3, [r2, #76]	; 0x4c
 8001492:	4b20      	ldr	r3, [pc, #128]	; (8001514 <MX_GPIO_Init+0xa4>)
 8001494:	6cdb      	ldr	r3, [r3, #76]	; 0x4c
 8001496:	f003 0301 	and.w	r3, r3, #1
 800149a:	60bb      	str	r3, [r7, #8]
 800149c:	68bb      	ldr	r3, [r7, #8]
  __HAL_RCC_GPIOB_CLK_ENABLE();
 800149e:	4b1d      	ldr	r3, [pc, #116]	; (8001514 <MX_GPIO_Init+0xa4>)
 80014a0:	6cdb      	ldr	r3, [r3, #76]	; 0x4c
 80014a2:	4a1c      	ldr	r2, [pc, #112]	; (8001514 <MX_GPIO_Init+0xa4>)
 80014a4:	f043 0302 	orr.w	r3, r3, #2
 80014a8:	64d3      	str	r3, [r2, #76]	; 0x4c
 80014aa:	4b1a      	ldr	r3, [pc, #104]	; (8001514 <MX_GPIO_Init+0xa4>)
 80014ac:	6cdb      	ldr	r3, [r3, #76]	; 0x4c
 80014ae:	f003 0302 	and.w	r3, r3, #2
 80014b2:	607b      	str	r3, [r7, #4]
 80014b4:	687b      	ldr	r3, [r7, #4]

  /*Configure GPIO pin Output Level */
  HAL_GPIO_WritePin(GPIOA, GPIO_PIN_6, GPIO_PIN_RESET);
 80014b6:	2200      	movs	r2, #0
 80014b8:	2140      	movs	r1, #64	; 0x40
 80014ba:	f04f 4090 	mov.w	r0, #1207959552	; 0x48000000
 80014be:	f002 fbdb 	bl	8003c78 <HAL_GPIO_WritePin>

  /*Configure GPIO pin Output Level */
  HAL_GPIO_WritePin(LD2_GPIO_Port, LD2_Pin, GPIO_PIN_RESET);
 80014c2:	2200      	movs	r2, #0
 80014c4:	f44f 7180 	mov.w	r1, #256	; 0x100
 80014c8:	4813      	ldr	r0, [pc, #76]	; (8001518 <MX_GPIO_Init+0xa8>)
 80014ca:	f002 fbd5 	bl	8003c78 <HAL_GPIO_WritePin>

  /*Configure GPIO pin : PA6 */
  GPIO_InitStruct.Pin = GPIO_PIN_6;
 80014ce:	2340      	movs	r3, #64	; 0x40
 80014d0:	60fb      	str	r3, [r7, #12]
  GPIO_InitStruct.Mode = GPIO_MODE_OUTPUT_PP;
 80014d2:	2301      	movs	r3, #1
 80014d4:	613b      	str	r3, [r7, #16]
  GPIO_InitStruct.Pull = GPIO_NOPULL;
 80014d6:	2300      	movs	r3, #0
 80014d8:	617b      	str	r3, [r7, #20]
  GPIO_InitStruct.Speed = GPIO_SPEED_FREQ_LOW;
 80014da:	2300      	movs	r3, #0
 80014dc:	61bb      	str	r3, [r7, #24]
  HAL_GPIO_Init(GPIOA, &GPIO_InitStruct);
 80014de:	f107 030c 	add.w	r3, r7, #12
 80014e2:	4619      	mov	r1, r3
 80014e4:	f04f 4090 	mov.w	r0, #1207959552	; 0x48000000
 80014e8:	f002 fa44 	bl	8003974 <HAL_GPIO_Init>

  /*Configure GPIO pin : LD2_Pin */
  GPIO_InitStruct.Pin = LD2_Pin;
 80014ec:	f44f 7380 	mov.w	r3, #256	; 0x100
 80014f0:	60fb      	str	r3, [r7, #12]
  GPIO_InitStruct.Mode = GPIO_MODE_OUTPUT_PP;
 80014f2:	2301      	movs	r3, #1
 80014f4:	613b      	str	r3, [r7, #16]
  GPIO_InitStruct.Pull = GPIO_NOPULL;
 80014f6:	2300      	movs	r3, #0
 80014f8:	617b      	str	r3, [r7, #20]
  GPIO_InitStruct.Speed = GPIO_SPEED_FREQ_LOW;
 80014fa:	2300      	movs	r3, #0
 80014fc:	61bb      	str	r3, [r7, #24]
  HAL_GPIO_Init(LD2_GPIO_Port, &GPIO_InitStruct);
 80014fe:	f107 030c 	add.w	r3, r7, #12
 8001502:	4619      	mov	r1, r3
 8001504:	4804      	ldr	r0, [pc, #16]	; (8001518 <MX_GPIO_Init+0xa8>)
 8001506:	f002 fa35 	bl	8003974 <HAL_GPIO_Init>

}
 800150a:	bf00      	nop
 800150c:	3720      	adds	r7, #32
 800150e:	46bd      	mov	sp, r7
 8001510:	bd80      	pop	{r7, pc}
 8001512:	bf00      	nop
 8001514:	40021000 	.word	0x40021000
 8001518:	48000400 	.word	0x48000400

0800151c <Error_Handler>:
/**
  * @brief  This function is executed in case of error occurrence.
  * @retval None
  */
void Error_Handler(void)
{
 800151c:	b480      	push	{r7}
 800151e:	af00      	add	r7, sp, #0
  \details Disables IRQ interrupts by setting the I-bit in the CPSR.
           Can only be executed in Privileged modes.
 */
__STATIC_FORCEINLINE void __disable_irq(void)
{
  __ASM volatile ("cpsid i" : : : "memory");
 8001520:	b672      	cpsid	i
}
 8001522:	bf00      	nop
  /* USER CODE BEGIN Error_Handler_Debug */
  /* User can add his own implementation to report the HAL error return state */
  __disable_irq();
  while (1)
 8001524:	e7fe      	b.n	8001524 <Error_Handler+0x8>
	...

08001528 <HAL_MspInit>:
/* USER CODE END 0 */
/**
  * Initializes the Global MSP.
  */
void HAL_MspInit(void)
{
 8001528:	b580      	push	{r7, lr}
 800152a:	b082      	sub	sp, #8
 800152c:	af00      	add	r7, sp, #0
  /* USER CODE BEGIN MspInit 0 */

  /* USER CODE END MspInit 0 */

  __HAL_RCC_SYSCFG_CLK_ENABLE();
 800152e:	4b0f      	ldr	r3, [pc, #60]	; (800156c <HAL_MspInit+0x44>)
 8001530:	6e1b      	ldr	r3, [r3, #96]	; 0x60
 8001532:	4a0e      	ldr	r2, [pc, #56]	; (800156c <HAL_MspInit+0x44>)
 8001534:	f043 0301 	orr.w	r3, r3, #1
 8001538:	6613      	str	r3, [r2, #96]	; 0x60
 800153a:	4b0c      	ldr	r3, [pc, #48]	; (800156c <HAL_MspInit+0x44>)
 800153c:	6e1b      	ldr	r3, [r3, #96]	; 0x60
 800153e:	f003 0301 	and.w	r3, r3, #1
 8001542:	607b      	str	r3, [r7, #4]
 8001544:	687b      	ldr	r3, [r7, #4]
  __HAL_RCC_PWR_CLK_ENABLE();
 8001546:	4b09      	ldr	r3, [pc, #36]	; (800156c <HAL_MspInit+0x44>)
 8001548:	6d9b      	ldr	r3, [r3, #88]	; 0x58
 800154a:	4a08      	ldr	r2, [pc, #32]	; (800156c <HAL_MspInit+0x44>)
 800154c:	f043 5380 	orr.w	r3, r3, #268435456	; 0x10000000
 8001550:	6593      	str	r3, [r2, #88]	; 0x58
 8001552:	4b06      	ldr	r3, [pc, #24]	; (800156c <HAL_MspInit+0x44>)
 8001554:	6d9b      	ldr	r3, [r3, #88]	; 0x58
 8001556:	f003 5380 	and.w	r3, r3, #268435456	; 0x10000000
 800155a:	603b      	str	r3, [r7, #0]
 800155c:	683b      	ldr	r3, [r7, #0]

  /* System interrupt init*/

  /** Disable the internal Pull-Up in Dead Battery pins of UCPD peripheral
  */
  HAL_PWREx_DisableUCPDDeadBattery();
 800155e:	f002 fc47 	bl	8003df0 <HAL_PWREx_DisableUCPDDeadBattery>

  /* USER CODE BEGIN MspInit 1 */

  /* USER CODE END MspInit 1 */
}
 8001562:	bf00      	nop
 8001564:	3708      	adds	r7, #8
 8001566:	46bd      	mov	sp, r7
 8001568:	bd80      	pop	{r7, pc}
 800156a:	bf00      	nop
 800156c:	40021000 	.word	0x40021000

08001570 <HAL_ADC_MspInit>:
* This function configures the hardware resources used in this example
* @param hadc: ADC handle pointer
* @retval None
*/
void HAL_ADC_MspInit(ADC_HandleTypeDef* hadc)
{
 8001570:	b580      	push	{r7, lr}
 8001572:	b08a      	sub	sp, #40	; 0x28
 8001574:	af00      	add	r7, sp, #0
 8001576:	6078      	str	r0, [r7, #4]
  GPIO_InitTypeDef GPIO_InitStruct = {0};
 8001578:	f107 0314 	add.w	r3, r7, #20
 800157c:	2200      	movs	r2, #0
 800157e:	601a      	str	r2, [r3, #0]
 8001580:	605a      	str	r2, [r3, #4]
 8001582:	609a      	str	r2, [r3, #8]
 8001584:	60da      	str	r2, [r3, #12]
 8001586:	611a      	str	r2, [r3, #16]
  if(hadc->Instance==ADC1)
 8001588:	687b      	ldr	r3, [r7, #4]
 800158a:	681b      	ldr	r3, [r3, #0]
 800158c:	f1b3 4fa0 	cmp.w	r3, #1342177280	; 0x50000000
 8001590:	d12c      	bne.n	80015ec <HAL_ADC_MspInit+0x7c>
  {
  /* USER CODE BEGIN ADC1_MspInit 0 */

  /* USER CODE END ADC1_MspInit 0 */
    /* Peripheral clock enable */
    __HAL_RCC_ADC12_CLK_ENABLE();
 8001592:	4b18      	ldr	r3, [pc, #96]	; (80015f4 <HAL_ADC_MspInit+0x84>)
 8001594:	6cdb      	ldr	r3, [r3, #76]	; 0x4c
 8001596:	4a17      	ldr	r2, [pc, #92]	; (80015f4 <HAL_ADC_MspInit+0x84>)
 8001598:	f443 5300 	orr.w	r3, r3, #8192	; 0x2000
 800159c:	64d3      	str	r3, [r2, #76]	; 0x4c
 800159e:	4b15      	ldr	r3, [pc, #84]	; (80015f4 <HAL_ADC_MspInit+0x84>)
 80015a0:	6cdb      	ldr	r3, [r3, #76]	; 0x4c
 80015a2:	f403 5300 	and.w	r3, r3, #8192	; 0x2000
 80015a6:	613b      	str	r3, [r7, #16]
 80015a8:	693b      	ldr	r3, [r7, #16]

    __HAL_RCC_GPIOA_CLK_ENABLE();
 80015aa:	4b12      	ldr	r3, [pc, #72]	; (80015f4 <HAL_ADC_MspInit+0x84>)
 80015ac:	6cdb      	ldr	r3, [r3, #76]	; 0x4c
 80015ae:	4a11      	ldr	r2, [pc, #68]	; (80015f4 <HAL_ADC_MspInit+0x84>)
 80015b0:	f043 0301 	orr.w	r3, r3, #1
 80015b4:	64d3      	str	r3, [r2, #76]	; 0x4c
 80015b6:	4b0f      	ldr	r3, [pc, #60]	; (80015f4 <HAL_ADC_MspInit+0x84>)
 80015b8:	6cdb      	ldr	r3, [r3, #76]	; 0x4c
 80015ba:	f003 0301 	and.w	r3, r3, #1
 80015be:	60fb      	str	r3, [r7, #12]
 80015c0:	68fb      	ldr	r3, [r7, #12]
    /**ADC1 GPIO Configuration
    PA0     ------> ADC1_IN1
    */
    GPIO_InitStruct.Pin = GPIO_PIN_0;
 80015c2:	2301      	movs	r3, #1
 80015c4:	617b      	str	r3, [r7, #20]
    GPIO_InitStruct.Mode = GPIO_MODE_ANALOG;
 80015c6:	2303      	movs	r3, #3
 80015c8:	61bb      	str	r3, [r7, #24]
    GPIO_InitStruct.Pull = GPIO_NOPULL;
 80015ca:	2300      	movs	r3, #0
 80015cc:	61fb      	str	r3, [r7, #28]
    HAL_GPIO_Init(GPIOA, &GPIO_InitStruct);
 80015ce:	f107 0314 	add.w	r3, r7, #20
 80015d2:	4619      	mov	r1, r3
 80015d4:	f04f 4090 	mov.w	r0, #1207959552	; 0x48000000
 80015d8:	f002 f9cc 	bl	8003974 <HAL_GPIO_Init>

    /* ADC1 interrupt Init */
    HAL_NVIC_SetPriority(ADC1_2_IRQn, 1, 0);
 80015dc:	2200      	movs	r2, #0
 80015de:	2101      	movs	r1, #1
 80015e0:	2012      	movs	r0, #18
 80015e2:	f001 ff4e 	bl	8003482 <HAL_NVIC_SetPriority>
    HAL_NVIC_EnableIRQ(ADC1_2_IRQn);
 80015e6:	2012      	movs	r0, #18
 80015e8:	f001 ff65 	bl	80034b6 <HAL_NVIC_EnableIRQ>
  /* USER CODE BEGIN ADC1_MspInit 1 */

  /* USER CODE END ADC1_MspInit 1 */
  }

}
 80015ec:	bf00      	nop
 80015ee:	3728      	adds	r7, #40	; 0x28
 80015f0:	46bd      	mov	sp, r7
 80015f2:	bd80      	pop	{r7, pc}
 80015f4:	40021000 	.word	0x40021000

080015f8 <HAL_DAC_MspInit>:
* This function configures the hardware resources used in this example
* @param hdac: DAC handle pointer
* @retval None
*/
void HAL_DAC_MspInit(DAC_HandleTypeDef* hdac)
{
 80015f8:	b580      	push	{r7, lr}
 80015fa:	b08a      	sub	sp, #40	; 0x28
 80015fc:	af00      	add	r7, sp, #0
 80015fe:	6078      	str	r0, [r7, #4]
  GPIO_InitTypeDef GPIO_InitStruct = {0};
 8001600:	f107 0314 	add.w	r3, r7, #20
 8001604:	2200      	movs	r2, #0
 8001606:	601a      	str	r2, [r3, #0]
 8001608:	605a      	str	r2, [r3, #4]
 800160a:	609a      	str	r2, [r3, #8]
 800160c:	60da      	str	r2, [r3, #12]
 800160e:	611a      	str	r2, [r3, #16]
  if(hdac->Instance==DAC1)
 8001610:	687b      	ldr	r3, [r7, #4]
 8001612:	681b      	ldr	r3, [r3, #0]
 8001614:	4a15      	ldr	r2, [pc, #84]	; (800166c <HAL_DAC_MspInit+0x74>)
 8001616:	4293      	cmp	r3, r2
 8001618:	d124      	bne.n	8001664 <HAL_DAC_MspInit+0x6c>
  {
  /* USER CODE BEGIN DAC1_MspInit 0 */

  /* USER CODE END DAC1_MspInit 0 */
    /* Peripheral clock enable */
    __HAL_RCC_DAC1_CLK_ENABLE();
 800161a:	4b15      	ldr	r3, [pc, #84]	; (8001670 <HAL_DAC_MspInit+0x78>)
 800161c:	6cdb      	ldr	r3, [r3, #76]	; 0x4c
 800161e:	4a14      	ldr	r2, [pc, #80]	; (8001670 <HAL_DAC_MspInit+0x78>)
 8001620:	f443 3380 	orr.w	r3, r3, #65536	; 0x10000
 8001624:	64d3      	str	r3, [r2, #76]	; 0x4c
 8001626:	4b12      	ldr	r3, [pc, #72]	; (8001670 <HAL_DAC_MspInit+0x78>)
 8001628:	6cdb      	ldr	r3, [r3, #76]	; 0x4c
 800162a:	f403 3380 	and.w	r3, r3, #65536	; 0x10000
 800162e:	613b      	str	r3, [r7, #16]
 8001630:	693b      	ldr	r3, [r7, #16]

    __HAL_RCC_GPIOA_CLK_ENABLE();
 8001632:	4b0f      	ldr	r3, [pc, #60]	; (8001670 <HAL_DAC_MspInit+0x78>)
 8001634:	6cdb      	ldr	r3, [r3, #76]	; 0x4c
 8001636:	4a0e      	ldr	r2, [pc, #56]	; (8001670 <HAL_DAC_MspInit+0x78>)
 8001638:	f043 0301 	orr.w	r3, r3, #1
 800163c:	64d3      	str	r3, [r2, #76]	; 0x4c
 800163e:	4b0c      	ldr	r3, [pc, #48]	; (8001670 <HAL_DAC_MspInit+0x78>)
 8001640:	6cdb      	ldr	r3, [r3, #76]	; 0x4c
 8001642:	f003 0301 	and.w	r3, r3, #1
 8001646:	60fb      	str	r3, [r7, #12]
 8001648:	68fb      	ldr	r3, [r7, #12]
    /**DAC1 GPIO Configuration
    PA4     ------> DAC1_OUT1
    PA5     ------> DAC1_OUT2
    */
    GPIO_InitStruct.Pin = GPIO_PIN_4|GPIO_PIN_5;
 800164a:	2330      	movs	r3, #48	; 0x30
 800164c:	617b      	str	r3, [r7, #20]
    GPIO_InitStruct.Mode = GPIO_MODE_ANALOG;
 800164e:	2303      	movs	r3, #3
 8001650:	61bb      	str	r3, [r7, #24]
    GPIO_InitStruct.Pull = GPIO_NOPULL;
 8001652:	2300      	movs	r3, #0
 8001654:	61fb      	str	r3, [r7, #28]
    HAL_GPIO_Init(GPIOA, &GPIO_InitStruct);
 8001656:	f107 0314 	add.w	r3, r7, #20
 800165a:	4619      	mov	r1, r3
 800165c:	f04f 4090 	mov.w	r0, #1207959552	; 0x48000000
 8001660:	f002 f988 	bl	8003974 <HAL_GPIO_Init>
  /* USER CODE BEGIN DAC1_MspInit 1 */

  /* USER CODE END DAC1_MspInit 1 */
  }

}
 8001664:	bf00      	nop
 8001666:	3728      	adds	r7, #40	; 0x28
 8001668:	46bd      	mov	sp, r7
 800166a:	bd80      	pop	{r7, pc}
 800166c:	50000800 	.word	0x50000800
 8001670:	40021000 	.word	0x40021000

08001674 <HAL_TIM_Base_MspInit>:
* This function configures the hardware resources used in this example
* @param htim_base: TIM_Base handle pointer
* @retval None
*/
void HAL_TIM_Base_MspInit(TIM_HandleTypeDef* htim_base)
{
 8001674:	b580      	push	{r7, lr}
 8001676:	b084      	sub	sp, #16
 8001678:	af00      	add	r7, sp, #0
 800167a:	6078      	str	r0, [r7, #4]
  if(htim_base->Instance==TIM16)
 800167c:	687b      	ldr	r3, [r7, #4]
 800167e:	681b      	ldr	r3, [r3, #0]
 8001680:	4a0d      	ldr	r2, [pc, #52]	; (80016b8 <HAL_TIM_Base_MspInit+0x44>)
 8001682:	4293      	cmp	r3, r2
 8001684:	d113      	bne.n	80016ae <HAL_TIM_Base_MspInit+0x3a>
  {
  /* USER CODE BEGIN TIM16_MspInit 0 */

  /* USER CODE END TIM16_MspInit 0 */
    /* Peripheral clock enable */
    __HAL_RCC_TIM16_CLK_ENABLE();
 8001686:	4b0d      	ldr	r3, [pc, #52]	; (80016bc <HAL_TIM_Base_MspInit+0x48>)
 8001688:	6e1b      	ldr	r3, [r3, #96]	; 0x60
 800168a:	4a0c      	ldr	r2, [pc, #48]	; (80016bc <HAL_TIM_Base_MspInit+0x48>)
 800168c:	f443 3300 	orr.w	r3, r3, #131072	; 0x20000
 8001690:	6613      	str	r3, [r2, #96]	; 0x60
 8001692:	4b0a      	ldr	r3, [pc, #40]	; (80016bc <HAL_TIM_Base_MspInit+0x48>)
 8001694:	6e1b      	ldr	r3, [r3, #96]	; 0x60
 8001696:	f403 3300 	and.w	r3, r3, #131072	; 0x20000
 800169a:	60fb      	str	r3, [r7, #12]
 800169c:	68fb      	ldr	r3, [r7, #12]
    /* TIM16 interrupt Init */
    HAL_NVIC_SetPriority(TIM1_UP_TIM16_IRQn, 0, 0);
 800169e:	2200      	movs	r2, #0
 80016a0:	2100      	movs	r1, #0
 80016a2:	2019      	movs	r0, #25
 80016a4:	f001 feed 	bl	8003482 <HAL_NVIC_SetPriority>
    HAL_NVIC_EnableIRQ(TIM1_UP_TIM16_IRQn);
 80016a8:	2019      	movs	r0, #25
 80016aa:	f001 ff04 	bl	80034b6 <HAL_NVIC_EnableIRQ>
  /* USER CODE BEGIN TIM16_MspInit 1 */

  /* USER CODE END TIM16_MspInit 1 */
  }

}
 80016ae:	bf00      	nop
 80016b0:	3710      	adds	r7, #16
 80016b2:	46bd      	mov	sp, r7
 80016b4:	bd80      	pop	{r7, pc}
 80016b6:	bf00      	nop
 80016b8:	40014400 	.word	0x40014400
 80016bc:	40021000 	.word	0x40021000

080016c0 <HAL_UART_MspInit>:
* This function configures the hardware resources used in this example
* @param huart: UART handle pointer
* @retval None
*/
void HAL_UART_MspInit(UART_HandleTypeDef* huart)
{
 80016c0:	b580      	push	{r7, lr}
 80016c2:	b08a      	sub	sp, #40	; 0x28
 80016c4:	af00      	add	r7, sp, #0
 80016c6:	6078      	str	r0, [r7, #4]
  GPIO_InitTypeDef GPIO_InitStruct = {0};
 80016c8:	f107 0314 	add.w	r3, r7, #20
 80016cc:	2200      	movs	r2, #0
 80016ce:	601a      	str	r2, [r3, #0]
 80016d0:	605a      	str	r2, [r3, #4]
 80016d2:	609a      	str	r2, [r3, #8]
 80016d4:	60da      	str	r2, [r3, #12]
 80016d6:	611a      	str	r2, [r3, #16]
  if(huart->Instance==USART2)
 80016d8:	687b      	ldr	r3, [r7, #4]
 80016da:	681b      	ldr	r3, [r3, #0]
 80016dc:	4a17      	ldr	r2, [pc, #92]	; (800173c <HAL_UART_MspInit+0x7c>)
 80016de:	4293      	cmp	r3, r2
 80016e0:	d128      	bne.n	8001734 <HAL_UART_MspInit+0x74>
  {
  /* USER CODE BEGIN USART2_MspInit 0 */

  /* USER CODE END USART2_MspInit 0 */
    /* Peripheral clock enable */
    __HAL_RCC_USART2_CLK_ENABLE();
 80016e2:	4b17      	ldr	r3, [pc, #92]	; (8001740 <HAL_UART_MspInit+0x80>)
 80016e4:	6d9b      	ldr	r3, [r3, #88]	; 0x58
 80016e6:	4a16      	ldr	r2, [pc, #88]	; (8001740 <HAL_UART_MspInit+0x80>)
 80016e8:	f443 3300 	orr.w	r3, r3, #131072	; 0x20000
 80016ec:	6593      	str	r3, [r2, #88]	; 0x58
 80016ee:	4b14      	ldr	r3, [pc, #80]	; (8001740 <HAL_UART_MspInit+0x80>)
 80016f0:	6d9b      	ldr	r3, [r3, #88]	; 0x58
 80016f2:	f403 3300 	and.w	r3, r3, #131072	; 0x20000
 80016f6:	613b      	str	r3, [r7, #16]
 80016f8:	693b      	ldr	r3, [r7, #16]

    __HAL_RCC_GPIOA_CLK_ENABLE();
 80016fa:	4b11      	ldr	r3, [pc, #68]	; (8001740 <HAL_UART_MspInit+0x80>)
 80016fc:	6cdb      	ldr	r3, [r3, #76]	; 0x4c
 80016fe:	4a10      	ldr	r2, [pc, #64]	; (8001740 <HAL_UART_MspInit+0x80>)
 8001700:	f043 0301 	orr.w	r3, r3, #1
 8001704:	64d3      	str	r3, [r2, #76]	; 0x4c
 8001706:	4b0e      	ldr	r3, [pc, #56]	; (8001740 <HAL_UART_MspInit+0x80>)
 8001708:	6cdb      	ldr	r3, [r3, #76]	; 0x4c
 800170a:	f003 0301 	and.w	r3, r3, #1
 800170e:	60fb      	str	r3, [r7, #12]
 8001710:	68fb      	ldr	r3, [r7, #12]
    /**USART2 GPIO Configuration
    PA2     ------> USART2_TX
    PA3     ------> USART2_RX
    */
    GPIO_InitStruct.Pin = USART2_TX_Pin|USART2_RX_Pin;
 8001712:	230c      	movs	r3, #12
 8001714:	617b      	str	r3, [r7, #20]
    GPIO_InitStruct.Mode = GPIO_MODE_AF_PP;
 8001716:	2302      	movs	r3, #2
 8001718:	61bb      	str	r3, [r7, #24]
    GPIO_InitStruct.Pull = GPIO_NOPULL;
 800171a:	2300      	movs	r3, #0
 800171c:	61fb      	str	r3, [r7, #28]
    GPIO_InitStruct.Speed = GPIO_SPEED_FREQ_LOW;
 800171e:	2300      	movs	r3, #0
 8001720:	623b      	str	r3, [r7, #32]
    GPIO_InitStruct.Alternate = GPIO_AF7_USART2;
 8001722:	2307      	movs	r3, #7
 8001724:	627b      	str	r3, [r7, #36]	; 0x24
    HAL_GPIO_Init(GPIOA, &GPIO_InitStruct);
 8001726:	f107 0314 	add.w	r3, r7, #20
 800172a:	4619      	mov	r1, r3
 800172c:	f04f 4090 	mov.w	r0, #1207959552	; 0x48000000
 8001730:	f002 f920 	bl	8003974 <HAL_GPIO_Init>
  /* USER CODE BEGIN USART2_MspInit 1 */

  /* USER CODE END USART2_MspInit 1 */
  }

}
 8001734:	bf00      	nop
 8001736:	3728      	adds	r7, #40	; 0x28
 8001738:	46bd      	mov	sp, r7
 800173a:	bd80      	pop	{r7, pc}
 800173c:	40004400 	.word	0x40004400
 8001740:	40021000 	.word	0x40021000

08001744 <NMI_Handler>:
/******************************************************************************/
/**
  * @brief This function handles Non maskable interrupt.
  */
void NMI_Handler(void)
{
 8001744:	b480      	push	{r7}
 8001746:	af00      	add	r7, sp, #0
  /* USER CODE BEGIN NonMaskableInt_IRQn 0 */

  /* USER CODE END NonMaskableInt_IRQn 0 */
  /* USER CODE BEGIN NonMaskableInt_IRQn 1 */
  while (1)
 8001748:	e7fe      	b.n	8001748 <NMI_Handler+0x4>

0800174a <HardFault_Handler>:

/**
  * @brief This function handles Hard fault interrupt.
  */
void HardFault_Handler(void)
{
 800174a:	b480      	push	{r7}
 800174c:	af00      	add	r7, sp, #0
  /* USER CODE BEGIN HardFault_IRQn 0 */

  /* USER CODE END HardFault_IRQn 0 */
  while (1)
 800174e:	e7fe      	b.n	800174e <HardFault_Handler+0x4>

08001750 <MemManage_Handler>:

/**
  * @brief This function handles Memory management fault.
  */
void MemManage_Handler(void)
{
 8001750:	b480      	push	{r7}
 8001752:	af00      	add	r7, sp, #0
  /* USER CODE BEGIN MemoryManagement_IRQn 0 */

  /* USER CODE END MemoryManagement_IRQn 0 */
  while (1)
 8001754:	e7fe      	b.n	8001754 <MemManage_Handler+0x4>

08001756 <BusFault_Handler>:

/**
  * @brief This function handles Prefetch fault, memory access fault.
  */
void BusFault_Handler(void)
{
 8001756:	b480      	push	{r7}
 8001758:	af00      	add	r7, sp, #0
  /* USER CODE BEGIN BusFault_IRQn 0 */

  /* USER CODE END BusFault_IRQn 0 */
  while (1)
 800175a:	e7fe      	b.n	800175a <BusFault_Handler+0x4>

0800175c <UsageFault_Handler>:

/**
  * @brief This function handles Undefined instruction or illegal state.
  */
void UsageFault_Handler(void)
{
 800175c:	b480      	push	{r7}
 800175e:	af00      	add	r7, sp, #0
  /* USER CODE BEGIN UsageFault_IRQn 0 */

  /* USER CODE END UsageFault_IRQn 0 */
  while (1)
 8001760:	e7fe      	b.n	8001760 <UsageFault_Handler+0x4>

08001762 <SVC_Handler>:

/**
  * @brief This function handles System service call via SWI instruction.
  */
void SVC_Handler(void)
{
 8001762:	b480      	push	{r7}
 8001764:	af00      	add	r7, sp, #0

  /* USER CODE END SVCall_IRQn 0 */
  /* USER CODE BEGIN SVCall_IRQn 1 */

  /* USER CODE END SVCall_IRQn 1 */
}
 8001766:	bf00      	nop
 8001768:	46bd      	mov	sp, r7
 800176a:	f85d 7b04 	ldr.w	r7, [sp], #4
 800176e:	4770      	bx	lr

08001770 <DebugMon_Handler>:

/**
  * @brief This function handles Debug monitor.
  */
void DebugMon_Handler(void)
{
 8001770:	b480      	push	{r7}
 8001772:	af00      	add	r7, sp, #0

  /* USER CODE END DebugMonitor_IRQn 0 */
  /* USER CODE BEGIN DebugMonitor_IRQn 1 */

  /* USER CODE END DebugMonitor_IRQn 1 */
}
 8001774:	bf00      	nop
 8001776:	46bd      	mov	sp, r7
 8001778:	f85d 7b04 	ldr.w	r7, [sp], #4
 800177c:	4770      	bx	lr

0800177e <PendSV_Handler>:

/**
  * @brief This function handles Pendable request for system service.
  */
void PendSV_Handler(void)
{
 800177e:	b480      	push	{r7}
 8001780:	af00      	add	r7, sp, #0

  /* USER CODE END PendSV_IRQn 0 */
  /* USER CODE BEGIN PendSV_IRQn 1 */

  /* USER CODE END PendSV_IRQn 1 */
}
 8001782:	bf00      	nop
 8001784:	46bd      	mov	sp, r7
 8001786:	f85d 7b04 	ldr.w	r7, [sp], #4
 800178a:	4770      	bx	lr

0800178c <SysTick_Handler>:

/**
  * @brief This function handles System tick timer.
  */
void SysTick_Handler(void)
{
 800178c:	b580      	push	{r7, lr}
 800178e:	af00      	add	r7, sp, #0
  /* USER CODE BEGIN SysTick_IRQn 0 */

  /* USER CODE END SysTick_IRQn 0 */
  HAL_IncTick();
 8001790:	f000 f8d6 	bl	8001940 <HAL_IncTick>
  /* USER CODE BEGIN SysTick_IRQn 1 */

  /* USER CODE END SysTick_IRQn 1 */
}
 8001794:	bf00      	nop
 8001796:	bd80      	pop	{r7, pc}

08001798 <ADC1_2_IRQHandler>:

/**
  * @brief This function handles ADC1 and ADC2 global interrupt.
  */
void ADC1_2_IRQHandler(void)
{
 8001798:	b580      	push	{r7, lr}
 800179a:	af00      	add	r7, sp, #0
  /* USER CODE BEGIN ADC1_2_IRQn 0 */

  /* USER CODE END ADC1_2_IRQn 0 */
  HAL_ADC_IRQHandler(&hadc1);
 800179c:	4802      	ldr	r0, [pc, #8]	; (80017a8 <ADC1_2_IRQHandler+0x10>)
 800179e:	f000 fe19 	bl	80023d4 <HAL_ADC_IRQHandler>
  /* USER CODE BEGIN ADC1_2_IRQn 1 */

  /* USER CODE END ADC1_2_IRQn 1 */
}
 80017a2:	bf00      	nop
 80017a4:	bd80      	pop	{r7, pc}
 80017a6:	bf00      	nop
 80017a8:	200020b4 	.word	0x200020b4

080017ac <TIM1_UP_TIM16_IRQHandler>:

/**
  * @brief This function handles TIM1 update interrupt and TIM16 global interrupt.
  */
void TIM1_UP_TIM16_IRQHandler(void)
{
 80017ac:	b580      	push	{r7, lr}
 80017ae:	af00      	add	r7, sp, #0
  /* USER CODE BEGIN TIM1_UP_TIM16_IRQn 0 */

  /* USER CODE END TIM1_UP_TIM16_IRQn 0 */
  HAL_TIM_IRQHandler(&htim16);
 80017b0:	4802      	ldr	r0, [pc, #8]	; (80017bc <TIM1_UP_TIM16_IRQHandler+0x10>)
 80017b2:	f003 fb13 	bl	8004ddc <HAL_TIM_IRQHandler>
  /* USER CODE BEGIN TIM1_UP_TIM16_IRQn 1 */

  /* USER CODE END TIM1_UP_TIM16_IRQn 1 */
}
 80017b6:	bf00      	nop
 80017b8:	bd80      	pop	{r7, pc}
 80017ba:	bf00      	nop
 80017bc:	200021b0 	.word	0x200021b0

080017c0 <SystemInit>:
  * @param  None
  * @retval None
  */

void SystemInit(void)
{
 80017c0:	b480      	push	{r7}
 80017c2:	af00      	add	r7, sp, #0
  /* FPU settings ------------------------------------------------------------*/
  #if (__FPU_PRESENT == 1) && (__FPU_USED == 1)
    SCB->CPACR |= ((3UL << (10*2))|(3UL << (11*2)));  /* set CP10 and CP11 Full Access */
 80017c4:	4b06      	ldr	r3, [pc, #24]	; (80017e0 <SystemInit+0x20>)
 80017c6:	f8d3 3088 	ldr.w	r3, [r3, #136]	; 0x88
 80017ca:	4a05      	ldr	r2, [pc, #20]	; (80017e0 <SystemInit+0x20>)
 80017cc:	f443 0370 	orr.w	r3, r3, #15728640	; 0xf00000
 80017d0:	f8c2 3088 	str.w	r3, [r2, #136]	; 0x88

  /* Configure the Vector Table location add offset address ------------------*/
#if defined(USER_VECT_TAB_ADDRESS)
  SCB->VTOR = VECT_TAB_BASE_ADDRESS | VECT_TAB_OFFSET; /* Vector Table Relocation in Internal SRAM */
#endif /* USER_VECT_TAB_ADDRESS */
}
 80017d4:	bf00      	nop
 80017d6:	46bd      	mov	sp, r7
 80017d8:	f85d 7b04 	ldr.w	r7, [sp], #4
 80017dc:	4770      	bx	lr
 80017de:	bf00      	nop
 80017e0:	e000ed00 	.word	0xe000ed00

080017e4 <HAL_TIM_PeriodElapsedCallback>:
 */

#include "tim.h"
#include "dac.h"

void HAL_TIM_PeriodElapsedCallback(TIM_HandleTypeDef *htim) {
 80017e4:	b580      	push	{r7, lr}
 80017e6:	b084      	sub	sp, #16
 80017e8:	af02      	add	r7, sp, #8
 80017ea:	6078      	str	r0, [r7, #4]
	if (htim->Instance == TIM16) {
 80017ec:	687b      	ldr	r3, [r7, #4]
 80017ee:	681b      	ldr	r3, [r3, #0]
 80017f0:	4a0f      	ldr	r2, [pc, #60]	; (8001830 <HAL_TIM_PeriodElapsedCallback+0x4c>)
 80017f2:	4293      	cmp	r3, r2
 80017f4:	d118      	bne.n	8001828 <HAL_TIM_PeriodElapsedCallback+0x44>
		render_wave(&hdac1, DAC_CHANNEL_1, dac1_wave_type, &dac_value, &dac_delta);
 80017f6:	4b0f      	ldr	r3, [pc, #60]	; (8001834 <HAL_TIM_PeriodElapsedCallback+0x50>)
 80017f8:	781a      	ldrb	r2, [r3, #0]
 80017fa:	4b0f      	ldr	r3, [pc, #60]	; (8001838 <HAL_TIM_PeriodElapsedCallback+0x54>)
 80017fc:	9300      	str	r3, [sp, #0]
 80017fe:	4b0f      	ldr	r3, [pc, #60]	; (800183c <HAL_TIM_PeriodElapsedCallback+0x58>)
 8001800:	2100      	movs	r1, #0
 8001802:	480f      	ldr	r0, [pc, #60]	; (8001840 <HAL_TIM_PeriodElapsedCallback+0x5c>)
 8001804:	f7ff fbc2 	bl	8000f8c <render_wave>
		render_wave(&hdac1, DAC_CHANNEL_2, dac2_wave_type, &dac_value, &dac_delta);
 8001808:	4b0e      	ldr	r3, [pc, #56]	; (8001844 <HAL_TIM_PeriodElapsedCallback+0x60>)
 800180a:	781a      	ldrb	r2, [r3, #0]
 800180c:	4b0a      	ldr	r3, [pc, #40]	; (8001838 <HAL_TIM_PeriodElapsedCallback+0x54>)
 800180e:	9300      	str	r3, [sp, #0]
 8001810:	4b0a      	ldr	r3, [pc, #40]	; (800183c <HAL_TIM_PeriodElapsedCallback+0x58>)
 8001812:	2110      	movs	r1, #16
 8001814:	480a      	ldr	r0, [pc, #40]	; (8001840 <HAL_TIM_PeriodElapsedCallback+0x5c>)
 8001816:	f7ff fbb9 	bl	8000f8c <render_wave>
		render_pulse(GPIOA, GPIO_PIN_6, &dac_value, &dac_delta);
 800181a:	4b07      	ldr	r3, [pc, #28]	; (8001838 <HAL_TIM_PeriodElapsedCallback+0x54>)
 800181c:	4a07      	ldr	r2, [pc, #28]	; (800183c <HAL_TIM_PeriodElapsedCallback+0x58>)
 800181e:	2140      	movs	r1, #64	; 0x40
 8001820:	f04f 4090 	mov.w	r0, #1207959552	; 0x48000000
 8001824:	f7ff fc3e 	bl	80010a4 <render_pulse>
	}
}
 8001828:	bf00      	nop
 800182a:	3708      	adds	r7, #8
 800182c:	46bd      	mov	sp, r7
 800182e:	bd80      	pop	{r7, pc}
 8001830:	40014400 	.word	0x40014400
 8001834:	20000000 	.word	0x20000000
 8001838:	20000004 	.word	0x20000004
 800183c:	2000209c 	.word	0x2000209c
 8001840:	200020a0 	.word	0x200020a0
 8001844:	20000001 	.word	0x20000001

08001848 <Reset_Handler>:
 8001848:	480d      	ldr	r0, [pc, #52]	; (8001880 <LoopForever+0x2>)
 800184a:	4685      	mov	sp, r0
 800184c:	480d      	ldr	r0, [pc, #52]	; (8001884 <LoopForever+0x6>)
 800184e:	490e      	ldr	r1, [pc, #56]	; (8001888 <LoopForever+0xa>)
 8001850:	4a0e      	ldr	r2, [pc, #56]	; (800188c <LoopForever+0xe>)
 8001852:	2300      	movs	r3, #0
 8001854:	e002      	b.n	800185c <LoopCopyDataInit>

08001856 <CopyDataInit>:
 8001856:	58d4      	ldr	r4, [r2, r3]
 8001858:	50c4      	str	r4, [r0, r3]
 800185a:	3304      	adds	r3, #4

0800185c <LoopCopyDataInit>:
 800185c:	18c4      	adds	r4, r0, r3
 800185e:	428c      	cmp	r4, r1
 8001860:	d3f9      	bcc.n	8001856 <CopyDataInit>
 8001862:	4a0b      	ldr	r2, [pc, #44]	; (8001890 <LoopForever+0x12>)
 8001864:	4c0b      	ldr	r4, [pc, #44]	; (8001894 <LoopForever+0x16>)
 8001866:	2300      	movs	r3, #0
 8001868:	e001      	b.n	800186e <LoopFillZerobss>

0800186a <FillZerobss>:
 800186a:	6013      	str	r3, [r2, #0]
 800186c:	3204      	adds	r2, #4

0800186e <LoopFillZerobss>:
 800186e:	42a2      	cmp	r2, r4
 8001870:	d3fb      	bcc.n	800186a <FillZerobss>
 8001872:	f7ff ffa5 	bl	80017c0 <SystemInit>
 8001876:	f004 fa93 	bl	8005da0 <__libc_init_array>
 800187a:	f7ff fc3b 	bl	80010f4 <main>

0800187e <LoopForever>:
 800187e:	e7fe      	b.n	800187e <LoopForever>
 8001880:	20008000 	.word	0x20008000
 8001884:	20000000 	.word	0x20000000
 8001888:	20002080 	.word	0x20002080
 800188c:	08006e18 	.word	0x08006e18
 8001890:	20002080 	.word	0x20002080
 8001894:	20002200 	.word	0x20002200

08001898 <COMP1_2_3_IRQHandler>:
 8001898:	e7fe      	b.n	8001898 <COMP1_2_3_IRQHandler>

0800189a <HAL_Init>:
 800189a:	b580      	push	{r7, lr}
 800189c:	b082      	sub	sp, #8
 800189e:	af00      	add	r7, sp, #0
 80018a0:	2300      	movs	r3, #0
 80018a2:	71fb      	strb	r3, [r7, #7]
 80018a4:	2003      	movs	r0, #3
 80018a6:	f001 fde1 	bl	800346c <HAL_NVIC_SetPriorityGrouping>
 80018aa:	2000      	movs	r0, #0
 80018ac:	f000 f80e 	bl	80018cc <HAL_InitTick>
 80018b0:	4603      	mov	r3, r0
 80018b2:	2b00      	cmp	r3, #0
 80018b4:	d002      	beq.n	80018bc <HAL_Init+0x22>
 80018b6:	2301      	movs	r3, #1
 80018b8:	71fb      	strb	r3, [r7, #7]
 80018ba:	e001      	b.n	80018c0 <HAL_Init+0x26>
 80018bc:	f7ff fe34 	bl	8001528 <HAL_MspInit>
 80018c0:	79fb      	ldrb	r3, [r7, #7]
 80018c2:	4618      	mov	r0, r3
 80018c4:	3708      	adds	r7, #8
 80018c6:	46bd      	mov	sp, r7
 80018c8:	bd80      	pop	{r7, pc}
	...

080018cc <HAL_InitTick>:
 80018cc:	b580      	push	{r7, lr}
 80018ce:	b084      	sub	sp, #16
 80018d0:	af00      	add	r7, sp, #0
 80018d2:	6078      	str	r0, [r7, #4]
 80018d4:	2300      	movs	r3, #0
 80018d6:	73fb      	strb	r3, [r7, #15]
 80018d8:	4b16      	ldr	r3, [pc, #88]	; (8001934 <HAL_InitTick+0x68>)
 80018da:	681b      	ldr	r3, [r3, #0]
 80018dc:	2b00      	cmp	r3, #0
 80018de:	d022      	beq.n	8001926 <HAL_InitTick+0x5a>
 80018e0:	4b15      	ldr	r3, [pc, #84]	; (8001938 <HAL_InitTick+0x6c>)
 80018e2:	681a      	ldr	r2, [r3, #0]
 80018e4:	4b13      	ldr	r3, [pc, #76]	; (8001934 <HAL_InitTick+0x68>)
 80018e6:	681b      	ldr	r3, [r3, #0]
 80018e8:	f44f 717a 	mov.w	r1, #1000	; 0x3e8
 80018ec:	fbb1 f3f3 	udiv	r3, r1, r3
 80018f0:	fbb2 f3f3 	udiv	r3, r2, r3
 80018f4:	4618      	mov	r0, r3
 80018f6:	f001 fdec 	bl	80034d2 <HAL_SYSTICK_Config>
 80018fa:	4603      	mov	r3, r0
 80018fc:	2b00      	cmp	r3, #0
 80018fe:	d10f      	bne.n	8001920 <HAL_InitTick+0x54>
 8001900:	687b      	ldr	r3, [r7, #4]
 8001902:	2b0f      	cmp	r3, #15
 8001904:	d809      	bhi.n	800191a <HAL_InitTick+0x4e>
 8001906:	2200      	movs	r2, #0
 8001908:	6879      	ldr	r1, [r7, #4]
 800190a:	f04f 30ff 	mov.w	r0, #4294967295
 800190e:	f001 fdb8 	bl	8003482 <HAL_NVIC_SetPriority>
 8001912:	4a0a      	ldr	r2, [pc, #40]	; (800193c <HAL_InitTick+0x70>)
 8001914:	687b      	ldr	r3, [r7, #4]
 8001916:	6013      	str	r3, [r2, #0]
 8001918:	e007      	b.n	800192a <HAL_InitTick+0x5e>
 800191a:	2301      	movs	r3, #1
 800191c:	73fb      	strb	r3, [r7, #15]
 800191e:	e004      	b.n	800192a <HAL_InitTick+0x5e>
 8001920:	2301      	movs	r3, #1
 8001922:	73fb      	strb	r3, [r7, #15]
 8001924:	e001      	b.n	800192a <HAL_InitTick+0x5e>
 8001926:	2301      	movs	r3, #1
 8001928:	73fb      	strb	r3, [r7, #15]
 800192a:	7bfb      	ldrb	r3, [r7, #15]
 800192c:	4618      	mov	r0, r3
 800192e:	3710      	adds	r7, #16
 8001930:	46bd      	mov	sp, r7
 8001932:	bd80      	pop	{r7, pc}
 8001934:	20002014 	.word	0x20002014
 8001938:	2000200c 	.word	0x2000200c
 800193c:	20002010 	.word	0x20002010

08001940 <HAL_IncTick>:
 8001940:	b480      	push	{r7}
 8001942:	af00      	add	r7, sp, #0
 8001944:	4b05      	ldr	r3, [pc, #20]	; (800195c <HAL_IncTick+0x1c>)
 8001946:	681a      	ldr	r2, [r3, #0]
 8001948:	4b05      	ldr	r3, [pc, #20]	; (8001960 <HAL_IncTick+0x20>)
 800194a:	681b      	ldr	r3, [r3, #0]
 800194c:	4413      	add	r3, r2
 800194e:	4a03      	ldr	r2, [pc, #12]	; (800195c <HAL_IncTick+0x1c>)
 8001950:	6013      	str	r3, [r2, #0]
 8001952:	bf00      	nop
 8001954:	46bd      	mov	sp, r7
 8001956:	f85d 7b04 	ldr.w	r7, [sp], #4
 800195a:	4770      	bx	lr
 800195c:	200021fc 	.word	0x200021fc
 8001960:	20002014 	.word	0x20002014

08001964 <HAL_GetTick>:
 8001964:	b480      	push	{r7}
 8001966:	af00      	add	r7, sp, #0
 8001968:	4b03      	ldr	r3, [pc, #12]	; (8001978 <HAL_GetTick+0x14>)
 800196a:	681b      	ldr	r3, [r3, #0]
 800196c:	4618      	mov	r0, r3
 800196e:	46bd      	mov	sp, r7
 8001970:	f85d 7b04 	ldr.w	r7, [sp], #4
 8001974:	4770      	bx	lr
 8001976:	bf00      	nop
 8001978:	200021fc 	.word	0x200021fc

0800197c <HAL_Delay>:
 800197c:	b580      	push	{r7, lr}
 800197e:	b084      	sub	sp, #16
 8001980:	af00      	add	r7, sp, #0
 8001982:	6078      	str	r0, [r7, #4]
 8001984:	f7ff ffee 	bl	8001964 <HAL_GetTick>
 8001988:	60b8      	str	r0, [r7, #8]
 800198a:	687b      	ldr	r3, [r7, #4]
 800198c:	60fb      	str	r3, [r7, #12]
 800198e:	68fb      	ldr	r3, [r7, #12]
 8001990:	f1b3 3fff 	cmp.w	r3, #4294967295
 8001994:	d004      	beq.n	80019a0 <HAL_Delay+0x24>
 8001996:	4b09      	ldr	r3, [pc, #36]	; (80019bc <HAL_Delay+0x40>)
 8001998:	681b      	ldr	r3, [r3, #0]
 800199a:	68fa      	ldr	r2, [r7, #12]
 800199c:	4413      	add	r3, r2
 800199e:	60fb      	str	r3, [r7, #12]
 80019a0:	bf00      	nop
 80019a2:	f7ff ffdf 	bl	8001964 <HAL_GetTick>
 80019a6:	4602      	mov	r2, r0
 80019a8:	68bb      	ldr	r3, [r7, #8]
 80019aa:	1ad3      	subs	r3, r2, r3
 80019ac:	68fa      	ldr	r2, [r7, #12]
 80019ae:	429a      	cmp	r2, r3
 80019b0:	d8f7      	bhi.n	80019a2 <HAL_Delay+0x26>
 80019b2:	bf00      	nop
 80019b4:	bf00      	nop
 80019b6:	3710      	adds	r7, #16
 80019b8:	46bd      	mov	sp, r7
 80019ba:	bd80      	pop	{r7, pc}
 80019bc:	20002014 	.word	0x20002014

080019c0 <LL_ADC_SetCommonClock>:
 80019c0:	b480      	push	{r7}
 80019c2:	b083      	sub	sp, #12
 80019c4:	af00      	add	r7, sp, #0
 80019c6:	6078      	str	r0, [r7, #4]
 80019c8:	6039      	str	r1, [r7, #0]
 80019ca:	687b      	ldr	r3, [r7, #4]
 80019cc:	689b      	ldr	r3, [r3, #8]
 80019ce:	f423 127c 	bic.w	r2, r3, #4128768	; 0x3f0000
 80019d2:	683b      	ldr	r3, [r7, #0]
 80019d4:	431a      	orrs	r2, r3
 80019d6:	687b      	ldr	r3, [r7, #4]
 80019d8:	609a      	str	r2, [r3, #8]
 80019da:	bf00      	nop
 80019dc:	370c      	adds	r7, #12
 80019de:	46bd      	mov	sp, r7
 80019e0:	f85d 7b04 	ldr.w	r7, [sp], #4
 80019e4:	4770      	bx	lr

080019e6 <LL_ADC_SetCommonPathInternalCh>:
 80019e6:	b480      	push	{r7}
 80019e8:	b083      	sub	sp, #12
 80019ea:	af00      	add	r7, sp, #0
 80019ec:	6078      	str	r0, [r7, #4]
 80019ee:	6039      	str	r1, [r7, #0]
 80019f0:	687b      	ldr	r3, [r7, #4]
 80019f2:	689b      	ldr	r3, [r3, #8]
 80019f4:	f023 72e0 	bic.w	r2, r3, #29360128	; 0x1c00000
 80019f8:	683b      	ldr	r3, [r7, #0]
 80019fa:	431a      	orrs	r2, r3
 80019fc:	687b      	ldr	r3, [r7, #4]
 80019fe:	609a      	str	r2, [r3, #8]
 8001a00:	bf00      	nop
 8001a02:	370c      	adds	r7, #12
 8001a04:	46bd      	mov	sp, r7
 8001a06:	f85d 7b04 	ldr.w	r7, [sp], #4
 8001a0a:	4770      	bx	lr

08001a0c <LL_ADC_GetCommonPathInternalCh>:
 8001a0c:	b480      	push	{r7}
 8001a0e:	b083      	sub	sp, #12
 8001a10:	af00      	add	r7, sp, #0
 8001a12:	6078      	str	r0, [r7, #4]
 8001a14:	687b      	ldr	r3, [r7, #4]
 8001a16:	689b      	ldr	r3, [r3, #8]
 8001a18:	f003 73e0 	and.w	r3, r3, #29360128	; 0x1c00000
 8001a1c:	4618      	mov	r0, r3
 8001a1e:	370c      	adds	r7, #12
 8001a20:	46bd      	mov	sp, r7
 8001a22:	f85d 7b04 	ldr.w	r7, [sp], #4
 8001a26:	4770      	bx	lr

08001a28 <LL_ADC_SetOffset>:
 8001a28:	b480      	push	{r7}
 8001a2a:	b087      	sub	sp, #28
 8001a2c:	af00      	add	r7, sp, #0
 8001a2e:	60f8      	str	r0, [r7, #12]
 8001a30:	60b9      	str	r1, [r7, #8]
 8001a32:	607a      	str	r2, [r7, #4]
 8001a34:	603b      	str	r3, [r7, #0]
 8001a36:	68fb      	ldr	r3, [r7, #12]
 8001a38:	3360      	adds	r3, #96	; 0x60
 8001a3a:	461a      	mov	r2, r3
 8001a3c:	68bb      	ldr	r3, [r7, #8]
 8001a3e:	009b      	lsls	r3, r3, #2
 8001a40:	4413      	add	r3, r2
 8001a42:	617b      	str	r3, [r7, #20]
 8001a44:	697b      	ldr	r3, [r7, #20]
 8001a46:	681a      	ldr	r2, [r3, #0]
 8001a48:	4b08      	ldr	r3, [pc, #32]	; (8001a6c <LL_ADC_SetOffset+0x44>)
 8001a4a:	4013      	ands	r3, r2
 8001a4c:	687a      	ldr	r2, [r7, #4]
 8001a4e:	f002 41f8 	and.w	r1, r2, #2080374784	; 0x7c000000
 8001a52:	683a      	ldr	r2, [r7, #0]
 8001a54:	430a      	orrs	r2, r1
 8001a56:	4313      	orrs	r3, r2
 8001a58:	f043 4200 	orr.w	r2, r3, #2147483648	; 0x80000000
 8001a5c:	697b      	ldr	r3, [r7, #20]
 8001a5e:	601a      	str	r2, [r3, #0]
 8001a60:	bf00      	nop
 8001a62:	371c      	adds	r7, #28
 8001a64:	46bd      	mov	sp, r7
 8001a66:	f85d 7b04 	ldr.w	r7, [sp], #4
 8001a6a:	4770      	bx	lr
 8001a6c:	03fff000 	.word	0x03fff000

08001a70 <LL_ADC_GetOffsetChannel>:
 8001a70:	b480      	push	{r7}
 8001a72:	b085      	sub	sp, #20
 8001a74:	af00      	add	r7, sp, #0
 8001a76:	6078      	str	r0, [r7, #4]
 8001a78:	6039      	str	r1, [r7, #0]
 8001a7a:	687b      	ldr	r3, [r7, #4]
 8001a7c:	3360      	adds	r3, #96	; 0x60
 8001a7e:	461a      	mov	r2, r3
 8001a80:	683b      	ldr	r3, [r7, #0]
 8001a82:	009b      	lsls	r3, r3, #2
 8001a84:	4413      	add	r3, r2
 8001a86:	60fb      	str	r3, [r7, #12]
 8001a88:	68fb      	ldr	r3, [r7, #12]
 8001a8a:	681b      	ldr	r3, [r3, #0]
 8001a8c:	f003 43f8 	and.w	r3, r3, #2080374784	; 0x7c000000
 8001a90:	4618      	mov	r0, r3
 8001a92:	3714      	adds	r7, #20
 8001a94:	46bd      	mov	sp, r7
 8001a96:	f85d 7b04 	ldr.w	r7, [sp], #4
 8001a9a:	4770      	bx	lr

08001a9c <LL_ADC_SetOffsetState>:
 8001a9c:	b480      	push	{r7}
 8001a9e:	b087      	sub	sp, #28
 8001aa0:	af00      	add	r7, sp, #0
 8001aa2:	60f8      	str	r0, [r7, #12]
 8001aa4:	60b9      	str	r1, [r7, #8]
 8001aa6:	607a      	str	r2, [r7, #4]
 8001aa8:	68fb      	ldr	r3, [r7, #12]
 8001aaa:	3360      	adds	r3, #96	; 0x60
 8001aac:	461a      	mov	r2, r3
 8001aae:	68bb      	ldr	r3, [r7, #8]
 8001ab0:	009b      	lsls	r3, r3, #2
 8001ab2:	4413      	add	r3, r2
 8001ab4:	617b      	str	r3, [r7, #20]
 8001ab6:	697b      	ldr	r3, [r7, #20]
 8001ab8:	681b      	ldr	r3, [r3, #0]
 8001aba:	f023 4200 	bic.w	r2, r3, #2147483648	; 0x80000000
 8001abe:	687b      	ldr	r3, [r7, #4]
 8001ac0:	431a      	orrs	r2, r3
 8001ac2:	697b      	ldr	r3, [r7, #20]
 8001ac4:	601a      	str	r2, [r3, #0]
 8001ac6:	bf00      	nop
 8001ac8:	371c      	adds	r7, #28
 8001aca:	46bd      	mov	sp, r7
 8001acc:	f85d 7b04 	ldr.w	r7, [sp], #4
 8001ad0:	4770      	bx	lr

08001ad2 <LL_ADC_SetOffsetSign>:
 8001ad2:	b480      	push	{r7}
 8001ad4:	b087      	sub	sp, #28
 8001ad6:	af00      	add	r7, sp, #0
 8001ad8:	60f8      	str	r0, [r7, #12]
 8001ada:	60b9      	str	r1, [r7, #8]
 8001adc:	607a      	str	r2, [r7, #4]
 8001ade:	68fb      	ldr	r3, [r7, #12]
 8001ae0:	3360      	adds	r3, #96	; 0x60
 8001ae2:	461a      	mov	r2, r3
 8001ae4:	68bb      	ldr	r3, [r7, #8]
 8001ae6:	009b      	lsls	r3, r3, #2
 8001ae8:	4413      	add	r3, r2
 8001aea:	617b      	str	r3, [r7, #20]
 8001aec:	697b      	ldr	r3, [r7, #20]
 8001aee:	681b      	ldr	r3, [r3, #0]
 8001af0:	f023 7280 	bic.w	r2, r3, #16777216	; 0x1000000
 8001af4:	687b      	ldr	r3, [r7, #4]
 8001af6:	431a      	orrs	r2, r3
 8001af8:	697b      	ldr	r3, [r7, #20]
 8001afa:	601a      	str	r2, [r3, #0]
 8001afc:	bf00      	nop
 8001afe:	371c      	adds	r7, #28
 8001b00:	46bd      	mov	sp, r7
 8001b02:	f85d 7b04 	ldr.w	r7, [sp], #4
 8001b06:	4770      	bx	lr

08001b08 <LL_ADC_SetOffsetSaturation>:
 8001b08:	b480      	push	{r7}
 8001b0a:	b087      	sub	sp, #28
 8001b0c:	af00      	add	r7, sp, #0
 8001b0e:	60f8      	str	r0, [r7, #12]
 8001b10:	60b9      	str	r1, [r7, #8]
 8001b12:	607a      	str	r2, [r7, #4]
 8001b14:	68fb      	ldr	r3, [r7, #12]
 8001b16:	3360      	adds	r3, #96	; 0x60
 8001b18:	461a      	mov	r2, r3
 8001b1a:	68bb      	ldr	r3, [r7, #8]
 8001b1c:	009b      	lsls	r3, r3, #2
 8001b1e:	4413      	add	r3, r2
 8001b20:	617b      	str	r3, [r7, #20]
 8001b22:	697b      	ldr	r3, [r7, #20]
 8001b24:	681b      	ldr	r3, [r3, #0]
 8001b26:	f023 7200 	bic.w	r2, r3, #33554432	; 0x2000000
 8001b2a:	687b      	ldr	r3, [r7, #4]
 8001b2c:	431a      	orrs	r2, r3
 8001b2e:	697b      	ldr	r3, [r7, #20]
 8001b30:	601a      	str	r2, [r3, #0]
 8001b32:	bf00      	nop
 8001b34:	371c      	adds	r7, #28
 8001b36:	46bd      	mov	sp, r7
 8001b38:	f85d 7b04 	ldr.w	r7, [sp], #4
 8001b3c:	4770      	bx	lr

08001b3e <LL_ADC_SetSamplingTimeCommonConfig>:
 8001b3e:	b480      	push	{r7}
 8001b40:	b083      	sub	sp, #12
 8001b42:	af00      	add	r7, sp, #0
 8001b44:	6078      	str	r0, [r7, #4]
 8001b46:	6039      	str	r1, [r7, #0]
 8001b48:	687b      	ldr	r3, [r7, #4]
 8001b4a:	695b      	ldr	r3, [r3, #20]
 8001b4c:	f023 4200 	bic.w	r2, r3, #2147483648	; 0x80000000
 8001b50:	683b      	ldr	r3, [r7, #0]
 8001b52:	431a      	orrs	r2, r3
 8001b54:	687b      	ldr	r3, [r7, #4]
 8001b56:	615a      	str	r2, [r3, #20]
 8001b58:	bf00      	nop
 8001b5a:	370c      	adds	r7, #12
 8001b5c:	46bd      	mov	sp, r7
 8001b5e:	f85d 7b04 	ldr.w	r7, [sp], #4
 8001b62:	4770      	bx	lr

08001b64 <LL_ADC_REG_IsTriggerSourceSWStart>:
 8001b64:	b480      	push	{r7}
 8001b66:	b083      	sub	sp, #12
 8001b68:	af00      	add	r7, sp, #0
 8001b6a:	6078      	str	r0, [r7, #4]
 8001b6c:	687b      	ldr	r3, [r7, #4]
 8001b6e:	68db      	ldr	r3, [r3, #12]
 8001b70:	f403 6340 	and.w	r3, r3, #3072	; 0xc00
 8001b74:	2b00      	cmp	r3, #0
 8001b76:	d101      	bne.n	8001b7c <LL_ADC_REG_IsTriggerSourceSWStart+0x18>
 8001b78:	2301      	movs	r3, #1
 8001b7a:	e000      	b.n	8001b7e <LL_ADC_REG_IsTriggerSourceSWStart+0x1a>
 8001b7c:	2300      	movs	r3, #0
 8001b7e:	4618      	mov	r0, r3
 8001b80:	370c      	adds	r7, #12
 8001b82:	46bd      	mov	sp, r7
 8001b84:	f85d 7b04 	ldr.w	r7, [sp], #4
 8001b88:	4770      	bx	lr

08001b8a <LL_ADC_REG_SetSequencerRanks>:
 8001b8a:	b480      	push	{r7}
 8001b8c:	b087      	sub	sp, #28
 8001b8e:	af00      	add	r7, sp, #0
 8001b90:	60f8      	str	r0, [r7, #12]
 8001b92:	60b9      	str	r1, [r7, #8]
 8001b94:	607a      	str	r2, [r7, #4]
 8001b96:	68fb      	ldr	r3, [r7, #12]
 8001b98:	3330      	adds	r3, #48	; 0x30
 8001b9a:	461a      	mov	r2, r3
 8001b9c:	68bb      	ldr	r3, [r7, #8]
 8001b9e:	0a1b      	lsrs	r3, r3, #8
 8001ba0:	009b      	lsls	r3, r3, #2
 8001ba2:	f003 030c 	and.w	r3, r3, #12
 8001ba6:	4413      	add	r3, r2
 8001ba8:	617b      	str	r3, [r7, #20]
 8001baa:	697b      	ldr	r3, [r7, #20]
 8001bac:	681a      	ldr	r2, [r3, #0]
 8001bae:	68bb      	ldr	r3, [r7, #8]
 8001bb0:	f003 031f 	and.w	r3, r3, #31
 8001bb4:	211f      	movs	r1, #31
 8001bb6:	fa01 f303 	lsl.w	r3, r1, r3
 8001bba:	43db      	mvns	r3, r3
 8001bbc:	401a      	ands	r2, r3
 8001bbe:	687b      	ldr	r3, [r7, #4]
 8001bc0:	0e9b      	lsrs	r3, r3, #26
 8001bc2:	f003 011f 	and.w	r1, r3, #31
 8001bc6:	68bb      	ldr	r3, [r7, #8]
 8001bc8:	f003 031f 	and.w	r3, r3, #31
 8001bcc:	fa01 f303 	lsl.w	r3, r1, r3
 8001bd0:	431a      	orrs	r2, r3
 8001bd2:	697b      	ldr	r3, [r7, #20]
 8001bd4:	601a      	str	r2, [r3, #0]
 8001bd6:	bf00      	nop
 8001bd8:	371c      	adds	r7, #28
 8001bda:	46bd      	mov	sp, r7
 8001bdc:	f85d 7b04 	ldr.w	r7, [sp], #4
 8001be0:	4770      	bx	lr

08001be2 <LL_ADC_INJ_IsTriggerSourceSWStart>:
 8001be2:	b480      	push	{r7}
 8001be4:	b083      	sub	sp, #12
 8001be6:	af00      	add	r7, sp, #0
 8001be8:	6078      	str	r0, [r7, #4]
 8001bea:	687b      	ldr	r3, [r7, #4]
 8001bec:	6cdb      	ldr	r3, [r3, #76]	; 0x4c
 8001bee:	f403 73c0 	and.w	r3, r3, #384	; 0x180
 8001bf2:	2b00      	cmp	r3, #0
 8001bf4:	d101      	bne.n	8001bfa <LL_ADC_INJ_IsTriggerSourceSWStart+0x18>
 8001bf6:	2301      	movs	r3, #1
 8001bf8:	e000      	b.n	8001bfc <LL_ADC_INJ_IsTriggerSourceSWStart+0x1a>
 8001bfa:	2300      	movs	r3, #0
 8001bfc:	4618      	mov	r0, r3
 8001bfe:	370c      	adds	r7, #12
 8001c00:	46bd      	mov	sp, r7
 8001c02:	f85d 7b04 	ldr.w	r7, [sp], #4
 8001c06:	4770      	bx	lr

08001c08 <LL_ADC_SetChannelSamplingTime>:
 8001c08:	b480      	push	{r7}
 8001c0a:	b087      	sub	sp, #28
 8001c0c:	af00      	add	r7, sp, #0
 8001c0e:	60f8      	str	r0, [r7, #12]
 8001c10:	60b9      	str	r1, [r7, #8]
 8001c12:	607a      	str	r2, [r7, #4]
 8001c14:	68fb      	ldr	r3, [r7, #12]
 8001c16:	3314      	adds	r3, #20
 8001c18:	461a      	mov	r2, r3
 8001c1a:	68bb      	ldr	r3, [r7, #8]
 8001c1c:	0e5b      	lsrs	r3, r3, #25
 8001c1e:	009b      	lsls	r3, r3, #2
 8001c20:	f003 0304 	and.w	r3, r3, #4
 8001c24:	4413      	add	r3, r2
 8001c26:	617b      	str	r3, [r7, #20]
 8001c28:	697b      	ldr	r3, [r7, #20]
 8001c2a:	681a      	ldr	r2, [r3, #0]
 8001c2c:	68bb      	ldr	r3, [r7, #8]
 8001c2e:	0d1b      	lsrs	r3, r3, #20
 8001c30:	f003 031f 	and.w	r3, r3, #31
 8001c34:	2107      	movs	r1, #7
 8001c36:	fa01 f303 	lsl.w	r3, r1, r3
 8001c3a:	43db      	mvns	r3, r3
 8001c3c:	401a      	ands	r2, r3
 8001c3e:	68bb      	ldr	r3, [r7, #8]
 8001c40:	0d1b      	lsrs	r3, r3, #20
 8001c42:	f003 031f 	and.w	r3, r3, #31
 8001c46:	6879      	ldr	r1, [r7, #4]
 8001c48:	fa01 f303 	lsl.w	r3, r1, r3
 8001c4c:	431a      	orrs	r2, r3
 8001c4e:	697b      	ldr	r3, [r7, #20]
 8001c50:	601a      	str	r2, [r3, #0]
 8001c52:	bf00      	nop
 8001c54:	371c      	adds	r7, #28
 8001c56:	46bd      	mov	sp, r7
 8001c58:	f85d 7b04 	ldr.w	r7, [sp], #4
 8001c5c:	4770      	bx	lr
	...

08001c60 <LL_ADC_SetChannelSingleDiff>:
 8001c60:	b480      	push	{r7}
 8001c62:	b085      	sub	sp, #20
 8001c64:	af00      	add	r7, sp, #0
 8001c66:	60f8      	str	r0, [r7, #12]
 8001c68:	60b9      	str	r1, [r7, #8]
 8001c6a:	607a      	str	r2, [r7, #4]
 8001c6c:	68fb      	ldr	r3, [r7, #12]
 8001c6e:	f8d3 20b0 	ldr.w	r2, [r3, #176]	; 0xb0
 8001c72:	68bb      	ldr	r3, [r7, #8]
 8001c74:	f3c3 0312 	ubfx	r3, r3, #0, #19
 8001c78:	43db      	mvns	r3, r3
 8001c7a:	401a      	ands	r2, r3
 8001c7c:	687b      	ldr	r3, [r7, #4]
 8001c7e:	f003 0318 	and.w	r3, r3, #24
 8001c82:	4908      	ldr	r1, [pc, #32]	; (8001ca4 <LL_ADC_SetChannelSingleDiff+0x44>)
 8001c84:	40d9      	lsrs	r1, r3
 8001c86:	68bb      	ldr	r3, [r7, #8]
 8001c88:	400b      	ands	r3, r1
 8001c8a:	f3c3 0312 	ubfx	r3, r3, #0, #19
 8001c8e:	431a      	orrs	r2, r3
 8001c90:	68fb      	ldr	r3, [r7, #12]
 8001c92:	f8c3 20b0 	str.w	r2, [r3, #176]	; 0xb0
 8001c96:	bf00      	nop
 8001c98:	3714      	adds	r7, #20
 8001c9a:	46bd      	mov	sp, r7
 8001c9c:	f85d 7b04 	ldr.w	r7, [sp], #4
 8001ca0:	4770      	bx	lr
 8001ca2:	bf00      	nop
 8001ca4:	0007ffff 	.word	0x0007ffff

08001ca8 <LL_ADC_GetMultimode>:
 8001ca8:	b480      	push	{r7}
 8001caa:	b083      	sub	sp, #12
 8001cac:	af00      	add	r7, sp, #0
 8001cae:	6078      	str	r0, [r7, #4]
 8001cb0:	687b      	ldr	r3, [r7, #4]
 8001cb2:	689b      	ldr	r3, [r3, #8]
 8001cb4:	f003 031f 	and.w	r3, r3, #31
 8001cb8:	4618      	mov	r0, r3
 8001cba:	370c      	adds	r7, #12
 8001cbc:	46bd      	mov	sp, r7
 8001cbe:	f85d 7b04 	ldr.w	r7, [sp], #4
 8001cc2:	4770      	bx	lr

08001cc4 <LL_ADC_GetMultiDMATransfer>:
 8001cc4:	b480      	push	{r7}
 8001cc6:	b083      	sub	sp, #12
 8001cc8:	af00      	add	r7, sp, #0
 8001cca:	6078      	str	r0, [r7, #4]
 8001ccc:	687b      	ldr	r3, [r7, #4]
 8001cce:	689b      	ldr	r3, [r3, #8]
 8001cd0:	f403 4360 	and.w	r3, r3, #57344	; 0xe000
 8001cd4:	4618      	mov	r0, r3
 8001cd6:	370c      	adds	r7, #12
 8001cd8:	46bd      	mov	sp, r7
 8001cda:	f85d 7b04 	ldr.w	r7, [sp], #4
 8001cde:	4770      	bx	lr

08001ce0 <LL_ADC_DisableDeepPowerDown>:
 8001ce0:	b480      	push	{r7}
 8001ce2:	b083      	sub	sp, #12
 8001ce4:	af00      	add	r7, sp, #0
 8001ce6:	6078      	str	r0, [r7, #4]
 8001ce8:	687b      	ldr	r3, [r7, #4]
 8001cea:	689b      	ldr	r3, [r3, #8]
 8001cec:	f023 4320 	bic.w	r3, r3, #2684354560	; 0xa0000000
 8001cf0:	f023 033f 	bic.w	r3, r3, #63	; 0x3f
 8001cf4:	687a      	ldr	r2, [r7, #4]
 8001cf6:	6093      	str	r3, [r2, #8]
 8001cf8:	bf00      	nop
 8001cfa:	370c      	adds	r7, #12
 8001cfc:	46bd      	mov	sp, r7
 8001cfe:	f85d 7b04 	ldr.w	r7, [sp], #4
 8001d02:	4770      	bx	lr

08001d04 <LL_ADC_IsDeepPowerDownEnabled>:
 8001d04:	b480      	push	{r7}
 8001d06:	b083      	sub	sp, #12
 8001d08:	af00      	add	r7, sp, #0
 8001d0a:	6078      	str	r0, [r7, #4]
 8001d0c:	687b      	ldr	r3, [r7, #4]
 8001d0e:	689b      	ldr	r3, [r3, #8]
 8001d10:	f003 5300 	and.w	r3, r3, #536870912	; 0x20000000
 8001d14:	f1b3 5f00 	cmp.w	r3, #536870912	; 0x20000000
 8001d18:	d101      	bne.n	8001d1e <LL_ADC_IsDeepPowerDownEnabled+0x1a>
 8001d1a:	2301      	movs	r3, #1
 8001d1c:	e000      	b.n	8001d20 <LL_ADC_IsDeepPowerDownEnabled+0x1c>
 8001d1e:	2300      	movs	r3, #0
 8001d20:	4618      	mov	r0, r3
 8001d22:	370c      	adds	r7, #12
 8001d24:	46bd      	mov	sp, r7
 8001d26:	f85d 7b04 	ldr.w	r7, [sp], #4
 8001d2a:	4770      	bx	lr

08001d2c <LL_ADC_EnableInternalRegulator>:
 8001d2c:	b480      	push	{r7}
 8001d2e:	b083      	sub	sp, #12
 8001d30:	af00      	add	r7, sp, #0
 8001d32:	6078      	str	r0, [r7, #4]
 8001d34:	687b      	ldr	r3, [r7, #4]
 8001d36:	689b      	ldr	r3, [r3, #8]
 8001d38:	f023 4310 	bic.w	r3, r3, #2415919104	; 0x90000000
 8001d3c:	f023 033f 	bic.w	r3, r3, #63	; 0x3f
 8001d40:	f043 5280 	orr.w	r2, r3, #268435456	; 0x10000000
 8001d44:	687b      	ldr	r3, [r7, #4]
 8001d46:	609a      	str	r2, [r3, #8]
 8001d48:	bf00      	nop
 8001d4a:	370c      	adds	r7, #12
 8001d4c:	46bd      	mov	sp, r7
 8001d4e:	f85d 7b04 	ldr.w	r7, [sp], #4
 8001d52:	4770      	bx	lr

08001d54 <LL_ADC_IsInternalRegulatorEnabled>:
 8001d54:	b480      	push	{r7}
 8001d56:	b083      	sub	sp, #12
 8001d58:	af00      	add	r7, sp, #0
 8001d5a:	6078      	str	r0, [r7, #4]
 8001d5c:	687b      	ldr	r3, [r7, #4]
 8001d5e:	689b      	ldr	r3, [r3, #8]
 8001d60:	f003 5380 	and.w	r3, r3, #268435456	; 0x10000000
 8001d64:	f1b3 5f80 	cmp.w	r3, #268435456	; 0x10000000
 8001d68:	d101      	bne.n	8001d6e <LL_ADC_IsInternalRegulatorEnabled+0x1a>
 8001d6a:	2301      	movs	r3, #1
 8001d6c:	e000      	b.n	8001d70 <LL_ADC_IsInternalRegulatorEnabled+0x1c>
 8001d6e:	2300      	movs	r3, #0
 8001d70:	4618      	mov	r0, r3
 8001d72:	370c      	adds	r7, #12
 8001d74:	46bd      	mov	sp, r7
 8001d76:	f85d 7b04 	ldr.w	r7, [sp], #4
 8001d7a:	4770      	bx	lr

08001d7c <LL_ADC_Enable>:
 8001d7c:	b480      	push	{r7}
 8001d7e:	b083      	sub	sp, #12
 8001d80:	af00      	add	r7, sp, #0
 8001d82:	6078      	str	r0, [r7, #4]
 8001d84:	687b      	ldr	r3, [r7, #4]
 8001d86:	689b      	ldr	r3, [r3, #8]
 8001d88:	f023 4300 	bic.w	r3, r3, #2147483648	; 0x80000000
 8001d8c:	f023 033f 	bic.w	r3, r3, #63	; 0x3f
 8001d90:	f043 0201 	orr.w	r2, r3, #1
 8001d94:	687b      	ldr	r3, [r7, #4]
 8001d96:	609a      	str	r2, [r3, #8]
 8001d98:	bf00      	nop
 8001d9a:	370c      	adds	r7, #12
 8001d9c:	46bd      	mov	sp, r7
 8001d9e:	f85d 7b04 	ldr.w	r7, [sp], #4
 8001da2:	4770      	bx	lr

08001da4 <LL_ADC_IsEnabled>:
 8001da4:	b480      	push	{r7}
 8001da6:	b083      	sub	sp, #12
 8001da8:	af00      	add	r7, sp, #0
 8001daa:	6078      	str	r0, [r7, #4]
 8001dac:	687b      	ldr	r3, [r7, #4]
 8001dae:	689b      	ldr	r3, [r3, #8]
 8001db0:	f003 0301 	and.w	r3, r3, #1
 8001db4:	2b01      	cmp	r3, #1
 8001db6:	d101      	bne.n	8001dbc <LL_ADC_IsEnabled+0x18>
 8001db8:	2301      	movs	r3, #1
 8001dba:	e000      	b.n	8001dbe <LL_ADC_IsEnabled+0x1a>
 8001dbc:	2300      	movs	r3, #0
 8001dbe:	4618      	mov	r0, r3
 8001dc0:	370c      	adds	r7, #12
 8001dc2:	46bd      	mov	sp, r7
 8001dc4:	f85d 7b04 	ldr.w	r7, [sp], #4
 8001dc8:	4770      	bx	lr

08001dca <LL_ADC_REG_StartConversion>:
 8001dca:	b480      	push	{r7}
 8001dcc:	b083      	sub	sp, #12
 8001dce:	af00      	add	r7, sp, #0
 8001dd0:	6078      	str	r0, [r7, #4]
 8001dd2:	687b      	ldr	r3, [r7, #4]
 8001dd4:	689b      	ldr	r3, [r3, #8]
 8001dd6:	f023 4300 	bic.w	r3, r3, #2147483648	; 0x80000000
 8001dda:	f023 033f 	bic.w	r3, r3, #63	; 0x3f
 8001dde:	f043 0204 	orr.w	r2, r3, #4
 8001de2:	687b      	ldr	r3, [r7, #4]
 8001de4:	609a      	str	r2, [r3, #8]
 8001de6:	bf00      	nop
 8001de8:	370c      	adds	r7, #12
 8001dea:	46bd      	mov	sp, r7
 8001dec:	f85d 7b04 	ldr.w	r7, [sp], #4
 8001df0:	4770      	bx	lr

08001df2 <LL_ADC_REG_IsConversionOngoing>:
 8001df2:	b480      	push	{r7}
 8001df4:	b083      	sub	sp, #12
 8001df6:	af00      	add	r7, sp, #0
 8001df8:	6078      	str	r0, [r7, #4]
 8001dfa:	687b      	ldr	r3, [r7, #4]
 8001dfc:	689b      	ldr	r3, [r3, #8]
 8001dfe:	f003 0304 	and.w	r3, r3, #4
 8001e02:	2b04      	cmp	r3, #4
 8001e04:	d101      	bne.n	8001e0a <LL_ADC_REG_IsConversionOngoing+0x18>
 8001e06:	2301      	movs	r3, #1
 8001e08:	e000      	b.n	8001e0c <LL_ADC_REG_IsConversionOngoing+0x1a>
 8001e0a:	2300      	movs	r3, #0
 8001e0c:	4618      	mov	r0, r3
 8001e0e:	370c      	adds	r7, #12
 8001e10:	46bd      	mov	sp, r7
 8001e12:	f85d 7b04 	ldr.w	r7, [sp], #4
 8001e16:	4770      	bx	lr

08001e18 <LL_ADC_INJ_IsConversionOngoing>:
 8001e18:	b480      	push	{r7}
 8001e1a:	b083      	sub	sp, #12
 8001e1c:	af00      	add	r7, sp, #0
 8001e1e:	6078      	str	r0, [r7, #4]
 8001e20:	687b      	ldr	r3, [r7, #4]
 8001e22:	689b      	ldr	r3, [r3, #8]
 8001e24:	f003 0308 	and.w	r3, r3, #8
 8001e28:	2b08      	cmp	r3, #8
 8001e2a:	d101      	bne.n	8001e30 <LL_ADC_INJ_IsConversionOngoing+0x18>
 8001e2c:	2301      	movs	r3, #1
 8001e2e:	e000      	b.n	8001e32 <LL_ADC_INJ_IsConversionOngoing+0x1a>
 8001e30:	2300      	movs	r3, #0
 8001e32:	4618      	mov	r0, r3
 8001e34:	370c      	adds	r7, #12
 8001e36:	46bd      	mov	sp, r7
 8001e38:	f85d 7b04 	ldr.w	r7, [sp], #4
 8001e3c:	4770      	bx	lr
	...

08001e40 <HAL_ADC_Init>:
 8001e40:	b590      	push	{r4, r7, lr}
 8001e42:	b089      	sub	sp, #36	; 0x24
 8001e44:	af00      	add	r7, sp, #0
 8001e46:	6078      	str	r0, [r7, #4]
 8001e48:	2300      	movs	r3, #0
 8001e4a:	77fb      	strb	r3, [r7, #31]
 8001e4c:	2300      	movs	r3, #0
 8001e4e:	60bb      	str	r3, [r7, #8]
 8001e50:	687b      	ldr	r3, [r7, #4]
 8001e52:	2b00      	cmp	r3, #0
 8001e54:	d101      	bne.n	8001e5a <HAL_ADC_Init+0x1a>
 8001e56:	2301      	movs	r3, #1
 8001e58:	e16d      	b.n	8002136 <HAL_ADC_Init+0x2f6>
 8001e5a:	687b      	ldr	r3, [r7, #4]
 8001e5c:	695b      	ldr	r3, [r3, #20]
 8001e5e:	2b00      	cmp	r3, #0
 8001e60:	687b      	ldr	r3, [r7, #4]
 8001e62:	6ddb      	ldr	r3, [r3, #92]	; 0x5c
 8001e64:	2b00      	cmp	r3, #0
 8001e66:	d109      	bne.n	8001e7c <HAL_ADC_Init+0x3c>
 8001e68:	6878      	ldr	r0, [r7, #4]
 8001e6a:	f7ff fb81 	bl	8001570 <HAL_ADC_MspInit>
 8001e6e:	687b      	ldr	r3, [r7, #4]
 8001e70:	2200      	movs	r2, #0
 8001e72:	661a      	str	r2, [r3, #96]	; 0x60
 8001e74:	687b      	ldr	r3, [r7, #4]
 8001e76:	2200      	movs	r2, #0
 8001e78:	f883 2058 	strb.w	r2, [r3, #88]	; 0x58
 8001e7c:	687b      	ldr	r3, [r7, #4]
 8001e7e:	681b      	ldr	r3, [r3, #0]
 8001e80:	4618      	mov	r0, r3
 8001e82:	f7ff ff3f 	bl	8001d04 <LL_ADC_IsDeepPowerDownEnabled>
 8001e86:	4603      	mov	r3, r0
 8001e88:	2b00      	cmp	r3, #0
 8001e8a:	d004      	beq.n	8001e96 <HAL_ADC_Init+0x56>
 8001e8c:	687b      	ldr	r3, [r7, #4]
 8001e8e:	681b      	ldr	r3, [r3, #0]
 8001e90:	4618      	mov	r0, r3
 8001e92:	f7ff ff25 	bl	8001ce0 <LL_ADC_DisableDeepPowerDown>
 8001e96:	687b      	ldr	r3, [r7, #4]
 8001e98:	681b      	ldr	r3, [r3, #0]
 8001e9a:	4618      	mov	r0, r3
 8001e9c:	f7ff ff5a 	bl	8001d54 <LL_ADC_IsInternalRegulatorEnabled>
 8001ea0:	4603      	mov	r3, r0
 8001ea2:	2b00      	cmp	r3, #0
 8001ea4:	d115      	bne.n	8001ed2 <HAL_ADC_Init+0x92>
 8001ea6:	687b      	ldr	r3, [r7, #4]
 8001ea8:	681b      	ldr	r3, [r3, #0]
 8001eaa:	4618      	mov	r0, r3
 8001eac:	f7ff ff3e 	bl	8001d2c <LL_ADC_EnableInternalRegulator>
 8001eb0:	4ba3      	ldr	r3, [pc, #652]	; (8002140 <HAL_ADC_Init+0x300>)
 8001eb2:	681b      	ldr	r3, [r3, #0]
 8001eb4:	099b      	lsrs	r3, r3, #6
 8001eb6:	4aa3      	ldr	r2, [pc, #652]	; (8002144 <HAL_ADC_Init+0x304>)
 8001eb8:	fba2 2303 	umull	r2, r3, r2, r3
 8001ebc:	099b      	lsrs	r3, r3, #6
 8001ebe:	3301      	adds	r3, #1
 8001ec0:	005b      	lsls	r3, r3, #1
 8001ec2:	60bb      	str	r3, [r7, #8]
 8001ec4:	e002      	b.n	8001ecc <HAL_ADC_Init+0x8c>
 8001ec6:	68bb      	ldr	r3, [r7, #8]
 8001ec8:	3b01      	subs	r3, #1
 8001eca:	60bb      	str	r3, [r7, #8]
 8001ecc:	68bb      	ldr	r3, [r7, #8]
 8001ece:	2b00      	cmp	r3, #0
 8001ed0:	d1f9      	bne.n	8001ec6 <HAL_ADC_Init+0x86>
 8001ed2:	687b      	ldr	r3, [r7, #4]
 8001ed4:	681b      	ldr	r3, [r3, #0]
 8001ed6:	4618      	mov	r0, r3
 8001ed8:	f7ff ff3c 	bl	8001d54 <LL_ADC_IsInternalRegulatorEnabled>
 8001edc:	4603      	mov	r3, r0
 8001ede:	2b00      	cmp	r3, #0
 8001ee0:	d10d      	bne.n	8001efe <HAL_ADC_Init+0xbe>
 8001ee2:	687b      	ldr	r3, [r7, #4]
 8001ee4:	6ddb      	ldr	r3, [r3, #92]	; 0x5c
 8001ee6:	f043 0210 	orr.w	r2, r3, #16
 8001eea:	687b      	ldr	r3, [r7, #4]
 8001eec:	65da      	str	r2, [r3, #92]	; 0x5c
 8001eee:	687b      	ldr	r3, [r7, #4]
 8001ef0:	6e1b      	ldr	r3, [r3, #96]	; 0x60
 8001ef2:	f043 0201 	orr.w	r2, r3, #1
 8001ef6:	687b      	ldr	r3, [r7, #4]
 8001ef8:	661a      	str	r2, [r3, #96]	; 0x60
 8001efa:	2301      	movs	r3, #1
 8001efc:	77fb      	strb	r3, [r7, #31]
 8001efe:	687b      	ldr	r3, [r7, #4]
 8001f00:	681b      	ldr	r3, [r3, #0]
 8001f02:	4618      	mov	r0, r3
 8001f04:	f7ff ff75 	bl	8001df2 <LL_ADC_REG_IsConversionOngoing>
 8001f08:	6178      	str	r0, [r7, #20]
 8001f0a:	687b      	ldr	r3, [r7, #4]
 8001f0c:	6ddb      	ldr	r3, [r3, #92]	; 0x5c
 8001f0e:	f003 0310 	and.w	r3, r3, #16
 8001f12:	2b00      	cmp	r3, #0
 8001f14:	f040 8106 	bne.w	8002124 <HAL_ADC_Init+0x2e4>
 8001f18:	697b      	ldr	r3, [r7, #20]
 8001f1a:	2b00      	cmp	r3, #0
 8001f1c:	f040 8102 	bne.w	8002124 <HAL_ADC_Init+0x2e4>
 8001f20:	687b      	ldr	r3, [r7, #4]
 8001f22:	6ddb      	ldr	r3, [r3, #92]	; 0x5c
 8001f24:	f423 7381 	bic.w	r3, r3, #258	; 0x102
 8001f28:	f043 0202 	orr.w	r2, r3, #2
 8001f2c:	687b      	ldr	r3, [r7, #4]
 8001f2e:	65da      	str	r2, [r3, #92]	; 0x5c
 8001f30:	687b      	ldr	r3, [r7, #4]
 8001f32:	681b      	ldr	r3, [r3, #0]
 8001f34:	4618      	mov	r0, r3
 8001f36:	f7ff ff35 	bl	8001da4 <LL_ADC_IsEnabled>
 8001f3a:	4603      	mov	r3, r0
 8001f3c:	2b00      	cmp	r3, #0
 8001f3e:	d111      	bne.n	8001f64 <HAL_ADC_Init+0x124>
 8001f40:	f04f 40a0 	mov.w	r0, #1342177280	; 0x50000000
 8001f44:	f7ff ff2e 	bl	8001da4 <LL_ADC_IsEnabled>
 8001f48:	4604      	mov	r4, r0
 8001f4a:	487f      	ldr	r0, [pc, #508]	; (8002148 <HAL_ADC_Init+0x308>)
 8001f4c:	f7ff ff2a 	bl	8001da4 <LL_ADC_IsEnabled>
 8001f50:	4603      	mov	r3, r0
 8001f52:	4323      	orrs	r3, r4
 8001f54:	2b00      	cmp	r3, #0
 8001f56:	d105      	bne.n	8001f64 <HAL_ADC_Init+0x124>
 8001f58:	687b      	ldr	r3, [r7, #4]
 8001f5a:	685b      	ldr	r3, [r3, #4]
 8001f5c:	4619      	mov	r1, r3
 8001f5e:	487b      	ldr	r0, [pc, #492]	; (800214c <HAL_ADC_Init+0x30c>)
 8001f60:	f7ff fd2e 	bl	80019c0 <LL_ADC_SetCommonClock>
 8001f64:	687b      	ldr	r3, [r7, #4]
 8001f66:	7f5b      	ldrb	r3, [r3, #29]
 8001f68:	035a      	lsls	r2, r3, #13
 8001f6a:	687b      	ldr	r3, [r7, #4]
 8001f6c:	6bdb      	ldr	r3, [r3, #60]	; 0x3c
 8001f6e:	431a      	orrs	r2, r3
 8001f70:	687b      	ldr	r3, [r7, #4]
 8001f72:	68db      	ldr	r3, [r3, #12]
 8001f74:	431a      	orrs	r2, r3
 8001f76:	687b      	ldr	r3, [r7, #4]
 8001f78:	689b      	ldr	r3, [r3, #8]
 8001f7a:	431a      	orrs	r2, r3
 8001f7c:	687b      	ldr	r3, [r7, #4]
 8001f7e:	f893 3024 	ldrb.w	r3, [r3, #36]	; 0x24
 8001f82:	041b      	lsls	r3, r3, #16
 8001f84:	4313      	orrs	r3, r2
 8001f86:	61bb      	str	r3, [r7, #24]
 8001f88:	687b      	ldr	r3, [r7, #4]
 8001f8a:	f893 3024 	ldrb.w	r3, [r3, #36]	; 0x24
 8001f8e:	2b01      	cmp	r3, #1
 8001f90:	d106      	bne.n	8001fa0 <HAL_ADC_Init+0x160>
 8001f92:	687b      	ldr	r3, [r7, #4]
 8001f94:	6a9b      	ldr	r3, [r3, #40]	; 0x28
 8001f96:	3b01      	subs	r3, #1
 8001f98:	045b      	lsls	r3, r3, #17
 8001f9a:	69ba      	ldr	r2, [r7, #24]
 8001f9c:	4313      	orrs	r3, r2
 8001f9e:	61bb      	str	r3, [r7, #24]
 8001fa0:	687b      	ldr	r3, [r7, #4]
 8001fa2:	6adb      	ldr	r3, [r3, #44]	; 0x2c
 8001fa4:	2b00      	cmp	r3, #0
 8001fa6:	d009      	beq.n	8001fbc <HAL_ADC_Init+0x17c>
 8001fa8:	687b      	ldr	r3, [r7, #4]
 8001faa:	6adb      	ldr	r3, [r3, #44]	; 0x2c
 8001fac:	f403 7278 	and.w	r2, r3, #992	; 0x3e0
 8001fb0:	687b      	ldr	r3, [r7, #4]
 8001fb2:	6b1b      	ldr	r3, [r3, #48]	; 0x30
 8001fb4:	4313      	orrs	r3, r2
 8001fb6:	69ba      	ldr	r2, [r7, #24]
 8001fb8:	4313      	orrs	r3, r2
 8001fba:	61bb      	str	r3, [r7, #24]
 8001fbc:	687b      	ldr	r3, [r7, #4]
 8001fbe:	681b      	ldr	r3, [r3, #0]
 8001fc0:	68da      	ldr	r2, [r3, #12]
 8001fc2:	4b63      	ldr	r3, [pc, #396]	; (8002150 <HAL_ADC_Init+0x310>)
 8001fc4:	4013      	ands	r3, r2
 8001fc6:	687a      	ldr	r2, [r7, #4]
 8001fc8:	6812      	ldr	r2, [r2, #0]
 8001fca:	69b9      	ldr	r1, [r7, #24]
 8001fcc:	430b      	orrs	r3, r1
 8001fce:	60d3      	str	r3, [r2, #12]
 8001fd0:	687b      	ldr	r3, [r7, #4]
 8001fd2:	681b      	ldr	r3, [r3, #0]
 8001fd4:	691b      	ldr	r3, [r3, #16]
 8001fd6:	f023 6140 	bic.w	r1, r3, #201326592	; 0xc000000
 8001fda:	687b      	ldr	r3, [r7, #4]
 8001fdc:	6b5a      	ldr	r2, [r3, #52]	; 0x34
 8001fde:	687b      	ldr	r3, [r7, #4]
 8001fe0:	681b      	ldr	r3, [r3, #0]
 8001fe2:	430a      	orrs	r2, r1
 8001fe4:	611a      	str	r2, [r3, #16]
 8001fe6:	687b      	ldr	r3, [r7, #4]
 8001fe8:	681b      	ldr	r3, [r3, #0]
 8001fea:	4618      	mov	r0, r3
 8001fec:	f7ff ff01 	bl	8001df2 <LL_ADC_REG_IsConversionOngoing>
 8001ff0:	6138      	str	r0, [r7, #16]
 8001ff2:	687b      	ldr	r3, [r7, #4]
 8001ff4:	681b      	ldr	r3, [r3, #0]
 8001ff6:	4618      	mov	r0, r3
 8001ff8:	f7ff ff0e 	bl	8001e18 <LL_ADC_INJ_IsConversionOngoing>
 8001ffc:	60f8      	str	r0, [r7, #12]
 8001ffe:	693b      	ldr	r3, [r7, #16]
 8002000:	2b00      	cmp	r3, #0
 8002002:	d16d      	bne.n	80020e0 <HAL_ADC_Init+0x2a0>
 8002004:	68fb      	ldr	r3, [r7, #12]
 8002006:	2b00      	cmp	r3, #0
 8002008:	d16a      	bne.n	80020e0 <HAL_ADC_Init+0x2a0>
 800200a:	687b      	ldr	r3, [r7, #4]
 800200c:	7f1b      	ldrb	r3, [r3, #28]
 800200e:	039a      	lsls	r2, r3, #14
 8002010:	687b      	ldr	r3, [r7, #4]
 8002012:	f893 3038 	ldrb.w	r3, [r3, #56]	; 0x38
 8002016:	005b      	lsls	r3, r3, #1
 8002018:	4313      	orrs	r3, r2
 800201a:	61bb      	str	r3, [r7, #24]
 800201c:	687b      	ldr	r3, [r7, #4]
 800201e:	681b      	ldr	r3, [r3, #0]
 8002020:	68db      	ldr	r3, [r3, #12]
 8002022:	f423 4380 	bic.w	r3, r3, #16384	; 0x4000
 8002026:	f023 0302 	bic.w	r3, r3, #2
 800202a:	687a      	ldr	r2, [r7, #4]
 800202c:	6812      	ldr	r2, [r2, #0]
 800202e:	69b9      	ldr	r1, [r7, #24]
 8002030:	430b      	orrs	r3, r1
 8002032:	60d3      	str	r3, [r2, #12]
 8002034:	687b      	ldr	r3, [r7, #4]
 8002036:	691b      	ldr	r3, [r3, #16]
 8002038:	2b00      	cmp	r3, #0
 800203a:	d017      	beq.n	800206c <HAL_ADC_Init+0x22c>
 800203c:	687b      	ldr	r3, [r7, #4]
 800203e:	681b      	ldr	r3, [r3, #0]
 8002040:	691a      	ldr	r2, [r3, #16]
 8002042:	687b      	ldr	r3, [r7, #4]
 8002044:	681b      	ldr	r3, [r3, #0]
 8002046:	f442 3280 	orr.w	r2, r2, #65536	; 0x10000
 800204a:	611a      	str	r2, [r3, #16]
 800204c:	687b      	ldr	r3, [r7, #4]
 800204e:	681b      	ldr	r3, [r3, #0]
 8002050:	f8d3 30c0 	ldr.w	r3, [r3, #192]	; 0xc0
 8002054:	f423 537f 	bic.w	r3, r3, #16320	; 0x3fc0
 8002058:	f023 033f 	bic.w	r3, r3, #63	; 0x3f
 800205c:	687a      	ldr	r2, [r7, #4]
 800205e:	6911      	ldr	r1, [r2, #16]
 8002060:	687a      	ldr	r2, [r7, #4]
 8002062:	6812      	ldr	r2, [r2, #0]
 8002064:	430b      	orrs	r3, r1
 8002066:	f8c2 30c0 	str.w	r3, [r2, #192]	; 0xc0
 800206a:	e013      	b.n	8002094 <HAL_ADC_Init+0x254>
 800206c:	687b      	ldr	r3, [r7, #4]
 800206e:	681b      	ldr	r3, [r3, #0]
 8002070:	691a      	ldr	r2, [r3, #16]
 8002072:	687b      	ldr	r3, [r7, #4]
 8002074:	681b      	ldr	r3, [r3, #0]
 8002076:	f422 3280 	bic.w	r2, r2, #65536	; 0x10000
 800207a:	611a      	str	r2, [r3, #16]
 800207c:	687b      	ldr	r3, [r7, #4]
 800207e:	681b      	ldr	r3, [r3, #0]
 8002080:	f8d3 30c0 	ldr.w	r3, [r3, #192]	; 0xc0
 8002084:	687a      	ldr	r2, [r7, #4]
 8002086:	6812      	ldr	r2, [r2, #0]
 8002088:	f423 537f 	bic.w	r3, r3, #16320	; 0x3fc0
 800208c:	f023 033f 	bic.w	r3, r3, #63	; 0x3f
 8002090:	f8c2 30c0 	str.w	r3, [r2, #192]	; 0xc0
 8002094:	687b      	ldr	r3, [r7, #4]
 8002096:	f893 3040 	ldrb.w	r3, [r3, #64]	; 0x40
 800209a:	2b01      	cmp	r3, #1
 800209c:	d118      	bne.n	80020d0 <HAL_ADC_Init+0x290>
 800209e:	687b      	ldr	r3, [r7, #4]
 80020a0:	681b      	ldr	r3, [r3, #0]
 80020a2:	691b      	ldr	r3, [r3, #16]
 80020a4:	f423 63ff 	bic.w	r3, r3, #2040	; 0x7f8
 80020a8:	f023 0304 	bic.w	r3, r3, #4
 80020ac:	687a      	ldr	r2, [r7, #4]
 80020ae:	6c51      	ldr	r1, [r2, #68]	; 0x44
 80020b0:	687a      	ldr	r2, [r7, #4]
 80020b2:	6c92      	ldr	r2, [r2, #72]	; 0x48
 80020b4:	4311      	orrs	r1, r2
 80020b6:	687a      	ldr	r2, [r7, #4]
 80020b8:	6cd2      	ldr	r2, [r2, #76]	; 0x4c
 80020ba:	4311      	orrs	r1, r2
 80020bc:	687a      	ldr	r2, [r7, #4]
 80020be:	6d12      	ldr	r2, [r2, #80]	; 0x50
 80020c0:	430a      	orrs	r2, r1
 80020c2:	431a      	orrs	r2, r3
 80020c4:	687b      	ldr	r3, [r7, #4]
 80020c6:	681b      	ldr	r3, [r3, #0]
 80020c8:	f042 0201 	orr.w	r2, r2, #1
 80020cc:	611a      	str	r2, [r3, #16]
 80020ce:	e007      	b.n	80020e0 <HAL_ADC_Init+0x2a0>
 80020d0:	687b      	ldr	r3, [r7, #4]
 80020d2:	681b      	ldr	r3, [r3, #0]
 80020d4:	691a      	ldr	r2, [r3, #16]
 80020d6:	687b      	ldr	r3, [r7, #4]
 80020d8:	681b      	ldr	r3, [r3, #0]
 80020da:	f022 0201 	bic.w	r2, r2, #1
 80020de:	611a      	str	r2, [r3, #16]
 80020e0:	687b      	ldr	r3, [r7, #4]
 80020e2:	695b      	ldr	r3, [r3, #20]
 80020e4:	2b01      	cmp	r3, #1
 80020e6:	d10c      	bne.n	8002102 <HAL_ADC_Init+0x2c2>
 80020e8:	687b      	ldr	r3, [r7, #4]
 80020ea:	681b      	ldr	r3, [r3, #0]
 80020ec:	6b1b      	ldr	r3, [r3, #48]	; 0x30
 80020ee:	f023 010f 	bic.w	r1, r3, #15
 80020f2:	687b      	ldr	r3, [r7, #4]
 80020f4:	6a1b      	ldr	r3, [r3, #32]
 80020f6:	1e5a      	subs	r2, r3, #1
 80020f8:	687b      	ldr	r3, [r7, #4]
 80020fa:	681b      	ldr	r3, [r3, #0]
 80020fc:	430a      	orrs	r2, r1
 80020fe:	631a      	str	r2, [r3, #48]	; 0x30
 8002100:	e007      	b.n	8002112 <HAL_ADC_Init+0x2d2>
 8002102:	687b      	ldr	r3, [r7, #4]
 8002104:	681b      	ldr	r3, [r3, #0]
 8002106:	6b1a      	ldr	r2, [r3, #48]	; 0x30
 8002108:	687b      	ldr	r3, [r7, #4]
 800210a:	681b      	ldr	r3, [r3, #0]
 800210c:	f022 020f 	bic.w	r2, r2, #15
 8002110:	631a      	str	r2, [r3, #48]	; 0x30
 8002112:	687b      	ldr	r3, [r7, #4]
 8002114:	6ddb      	ldr	r3, [r3, #92]	; 0x5c
 8002116:	f023 0303 	bic.w	r3, r3, #3
 800211a:	f043 0201 	orr.w	r2, r3, #1
 800211e:	687b      	ldr	r3, [r7, #4]
 8002120:	65da      	str	r2, [r3, #92]	; 0x5c
 8002122:	e007      	b.n	8002134 <HAL_ADC_Init+0x2f4>
 8002124:	687b      	ldr	r3, [r7, #4]
 8002126:	6ddb      	ldr	r3, [r3, #92]	; 0x5c
 8002128:	f043 0210 	orr.w	r2, r3, #16
 800212c:	687b      	ldr	r3, [r7, #4]
 800212e:	65da      	str	r2, [r3, #92]	; 0x5c
 8002130:	2301      	movs	r3, #1
 8002132:	77fb      	strb	r3, [r7, #31]
 8002134:	7ffb      	ldrb	r3, [r7, #31]
 8002136:	4618      	mov	r0, r3
 8002138:	3724      	adds	r7, #36	; 0x24
 800213a:	46bd      	mov	sp, r7
 800213c:	bd90      	pop	{r4, r7, pc}
 800213e:	bf00      	nop
 8002140:	2000200c 	.word	0x2000200c
 8002144:	053e2d63 	.word	0x053e2d63
 8002148:	50000100 	.word	0x50000100
 800214c:	50000300 	.word	0x50000300
 8002150:	fff04007 	.word	0xfff04007

08002154 <HAL_ADC_Start_IT>:
 8002154:	b580      	push	{r7, lr}
 8002156:	b086      	sub	sp, #24
 8002158:	af00      	add	r7, sp, #0
 800215a:	6078      	str	r0, [r7, #4]
 800215c:	4894      	ldr	r0, [pc, #592]	; (80023b0 <HAL_ADC_Start_IT+0x25c>)
 800215e:	f7ff fda3 	bl	8001ca8 <LL_ADC_GetMultimode>
 8002162:	6138      	str	r0, [r7, #16]
 8002164:	687b      	ldr	r3, [r7, #4]
 8002166:	681b      	ldr	r3, [r3, #0]
 8002168:	4618      	mov	r0, r3
 800216a:	f7ff fe42 	bl	8001df2 <LL_ADC_REG_IsConversionOngoing>
 800216e:	4603      	mov	r3, r0
 8002170:	2b00      	cmp	r3, #0
 8002172:	f040 8114 	bne.w	800239e <HAL_ADC_Start_IT+0x24a>
 8002176:	687b      	ldr	r3, [r7, #4]
 8002178:	f893 3058 	ldrb.w	r3, [r3, #88]	; 0x58
 800217c:	2b01      	cmp	r3, #1
 800217e:	d101      	bne.n	8002184 <HAL_ADC_Start_IT+0x30>
 8002180:	2302      	movs	r3, #2
 8002182:	e111      	b.n	80023a8 <HAL_ADC_Start_IT+0x254>
 8002184:	687b      	ldr	r3, [r7, #4]
 8002186:	2201      	movs	r2, #1
 8002188:	f883 2058 	strb.w	r2, [r3, #88]	; 0x58
 800218c:	6878      	ldr	r0, [r7, #4]
 800218e:	f000 ff3f 	bl	8003010 <ADC_Enable>
 8002192:	4603      	mov	r3, r0
 8002194:	75fb      	strb	r3, [r7, #23]
 8002196:	7dfb      	ldrb	r3, [r7, #23]
 8002198:	2b00      	cmp	r3, #0
 800219a:	f040 80fb 	bne.w	8002394 <HAL_ADC_Start_IT+0x240>
 800219e:	687b      	ldr	r3, [r7, #4]
 80021a0:	6ddb      	ldr	r3, [r3, #92]	; 0x5c
 80021a2:	f423 6370 	bic.w	r3, r3, #3840	; 0xf00
 80021a6:	f023 0301 	bic.w	r3, r3, #1
 80021aa:	f443 7280 	orr.w	r2, r3, #256	; 0x100
 80021ae:	687b      	ldr	r3, [r7, #4]
 80021b0:	65da      	str	r2, [r3, #92]	; 0x5c
 80021b2:	687b      	ldr	r3, [r7, #4]
 80021b4:	681b      	ldr	r3, [r3, #0]
 80021b6:	4a7f      	ldr	r2, [pc, #508]	; (80023b4 <HAL_ADC_Start_IT+0x260>)
 80021b8:	4293      	cmp	r3, r2
 80021ba:	d002      	beq.n	80021c2 <HAL_ADC_Start_IT+0x6e>
 80021bc:	687b      	ldr	r3, [r7, #4]
 80021be:	681b      	ldr	r3, [r3, #0]
 80021c0:	e001      	b.n	80021c6 <HAL_ADC_Start_IT+0x72>
 80021c2:	f04f 43a0 	mov.w	r3, #1342177280	; 0x50000000
 80021c6:	687a      	ldr	r2, [r7, #4]
 80021c8:	6812      	ldr	r2, [r2, #0]
 80021ca:	4293      	cmp	r3, r2
 80021cc:	d002      	beq.n	80021d4 <HAL_ADC_Start_IT+0x80>
 80021ce:	693b      	ldr	r3, [r7, #16]
 80021d0:	2b00      	cmp	r3, #0
 80021d2:	d105      	bne.n	80021e0 <HAL_ADC_Start_IT+0x8c>
 80021d4:	687b      	ldr	r3, [r7, #4]
 80021d6:	6ddb      	ldr	r3, [r3, #92]	; 0x5c
 80021d8:	f423 1280 	bic.w	r2, r3, #1048576	; 0x100000
 80021dc:	687b      	ldr	r3, [r7, #4]
 80021de:	65da      	str	r2, [r3, #92]	; 0x5c
 80021e0:	687b      	ldr	r3, [r7, #4]
 80021e2:	6ddb      	ldr	r3, [r3, #92]	; 0x5c
 80021e4:	f403 5380 	and.w	r3, r3, #4096	; 0x1000
 80021e8:	2b00      	cmp	r3, #0
 80021ea:	d006      	beq.n	80021fa <HAL_ADC_Start_IT+0xa6>
 80021ec:	687b      	ldr	r3, [r7, #4]
 80021ee:	6e1b      	ldr	r3, [r3, #96]	; 0x60
 80021f0:	f023 0206 	bic.w	r2, r3, #6
 80021f4:	687b      	ldr	r3, [r7, #4]
 80021f6:	661a      	str	r2, [r3, #96]	; 0x60
 80021f8:	e002      	b.n	8002200 <HAL_ADC_Start_IT+0xac>
 80021fa:	687b      	ldr	r3, [r7, #4]
 80021fc:	2200      	movs	r2, #0
 80021fe:	661a      	str	r2, [r3, #96]	; 0x60
 8002200:	687b      	ldr	r3, [r7, #4]
 8002202:	681b      	ldr	r3, [r3, #0]
 8002204:	221c      	movs	r2, #28
 8002206:	601a      	str	r2, [r3, #0]
 8002208:	687b      	ldr	r3, [r7, #4]
 800220a:	2200      	movs	r2, #0
 800220c:	f883 2058 	strb.w	r2, [r3, #88]	; 0x58
 8002210:	687b      	ldr	r3, [r7, #4]
 8002212:	681b      	ldr	r3, [r3, #0]
 8002214:	685a      	ldr	r2, [r3, #4]
 8002216:	687b      	ldr	r3, [r7, #4]
 8002218:	681b      	ldr	r3, [r3, #0]
 800221a:	f022 021c 	bic.w	r2, r2, #28
 800221e:	605a      	str	r2, [r3, #4]
 8002220:	687b      	ldr	r3, [r7, #4]
 8002222:	699b      	ldr	r3, [r3, #24]
 8002224:	2b08      	cmp	r3, #8
 8002226:	d108      	bne.n	800223a <HAL_ADC_Start_IT+0xe6>
 8002228:	687b      	ldr	r3, [r7, #4]
 800222a:	681b      	ldr	r3, [r3, #0]
 800222c:	685a      	ldr	r2, [r3, #4]
 800222e:	687b      	ldr	r3, [r7, #4]
 8002230:	681b      	ldr	r3, [r3, #0]
 8002232:	f042 0208 	orr.w	r2, r2, #8
 8002236:	605a      	str	r2, [r3, #4]
 8002238:	e008      	b.n	800224c <HAL_ADC_Start_IT+0xf8>
 800223a:	687b      	ldr	r3, [r7, #4]
 800223c:	681b      	ldr	r3, [r3, #0]
 800223e:	685a      	ldr	r2, [r3, #4]
 8002240:	687b      	ldr	r3, [r7, #4]
 8002242:	681b      	ldr	r3, [r3, #0]
 8002244:	f042 0204 	orr.w	r2, r2, #4
 8002248:	605a      	str	r2, [r3, #4]
 800224a:	bf00      	nop
 800224c:	687b      	ldr	r3, [r7, #4]
 800224e:	6bdb      	ldr	r3, [r3, #60]	; 0x3c
 8002250:	2b00      	cmp	r3, #0
 8002252:	d107      	bne.n	8002264 <HAL_ADC_Start_IT+0x110>
 8002254:	687b      	ldr	r3, [r7, #4]
 8002256:	681b      	ldr	r3, [r3, #0]
 8002258:	685a      	ldr	r2, [r3, #4]
 800225a:	687b      	ldr	r3, [r7, #4]
 800225c:	681b      	ldr	r3, [r3, #0]
 800225e:	f042 0210 	orr.w	r2, r2, #16
 8002262:	605a      	str	r2, [r3, #4]
 8002264:	687b      	ldr	r3, [r7, #4]
 8002266:	681b      	ldr	r3, [r3, #0]
 8002268:	4a52      	ldr	r2, [pc, #328]	; (80023b4 <HAL_ADC_Start_IT+0x260>)
 800226a:	4293      	cmp	r3, r2
 800226c:	d002      	beq.n	8002274 <HAL_ADC_Start_IT+0x120>
 800226e:	687b      	ldr	r3, [r7, #4]
 8002270:	681b      	ldr	r3, [r3, #0]
 8002272:	e001      	b.n	8002278 <HAL_ADC_Start_IT+0x124>
 8002274:	f04f 43a0 	mov.w	r3, #1342177280	; 0x50000000
 8002278:	687a      	ldr	r2, [r7, #4]
 800227a:	6812      	ldr	r2, [r2, #0]
 800227c:	4293      	cmp	r3, r2
 800227e:	d008      	beq.n	8002292 <HAL_ADC_Start_IT+0x13e>
 8002280:	693b      	ldr	r3, [r7, #16]
 8002282:	2b00      	cmp	r3, #0
 8002284:	d005      	beq.n	8002292 <HAL_ADC_Start_IT+0x13e>
 8002286:	693b      	ldr	r3, [r7, #16]
 8002288:	2b05      	cmp	r3, #5
 800228a:	d002      	beq.n	8002292 <HAL_ADC_Start_IT+0x13e>
 800228c:	693b      	ldr	r3, [r7, #16]
 800228e:	2b09      	cmp	r3, #9
 8002290:	d13b      	bne.n	800230a <HAL_ADC_Start_IT+0x1b6>
 8002292:	687b      	ldr	r3, [r7, #4]
 8002294:	681b      	ldr	r3, [r3, #0]
 8002296:	68db      	ldr	r3, [r3, #12]
 8002298:	f003 7300 	and.w	r3, r3, #33554432	; 0x2000000
 800229c:	2b00      	cmp	r3, #0
 800229e:	d02d      	beq.n	80022fc <HAL_ADC_Start_IT+0x1a8>
 80022a0:	687b      	ldr	r3, [r7, #4]
 80022a2:	6ddb      	ldr	r3, [r3, #92]	; 0x5c
 80022a4:	f423 5340 	bic.w	r3, r3, #12288	; 0x3000
 80022a8:	f443 5280 	orr.w	r2, r3, #4096	; 0x1000
 80022ac:	687b      	ldr	r3, [r7, #4]
 80022ae:	65da      	str	r2, [r3, #92]	; 0x5c
 80022b0:	687b      	ldr	r3, [r7, #4]
 80022b2:	699b      	ldr	r3, [r3, #24]
 80022b4:	2b08      	cmp	r3, #8
 80022b6:	d110      	bne.n	80022da <HAL_ADC_Start_IT+0x186>
 80022b8:	687b      	ldr	r3, [r7, #4]
 80022ba:	681b      	ldr	r3, [r3, #0]
 80022bc:	685a      	ldr	r2, [r3, #4]
 80022be:	687b      	ldr	r3, [r7, #4]
 80022c0:	681b      	ldr	r3, [r3, #0]
 80022c2:	f022 0220 	bic.w	r2, r2, #32
 80022c6:	605a      	str	r2, [r3, #4]
 80022c8:	687b      	ldr	r3, [r7, #4]
 80022ca:	681b      	ldr	r3, [r3, #0]
 80022cc:	685a      	ldr	r2, [r3, #4]
 80022ce:	687b      	ldr	r3, [r7, #4]
 80022d0:	681b      	ldr	r3, [r3, #0]
 80022d2:	f042 0240 	orr.w	r2, r2, #64	; 0x40
 80022d6:	605a      	str	r2, [r3, #4]
 80022d8:	e011      	b.n	80022fe <HAL_ADC_Start_IT+0x1aa>
 80022da:	687b      	ldr	r3, [r7, #4]
 80022dc:	681b      	ldr	r3, [r3, #0]
 80022de:	685a      	ldr	r2, [r3, #4]
 80022e0:	687b      	ldr	r3, [r7, #4]
 80022e2:	681b      	ldr	r3, [r3, #0]
 80022e4:	f022 0240 	bic.w	r2, r2, #64	; 0x40
 80022e8:	605a      	str	r2, [r3, #4]
 80022ea:	687b      	ldr	r3, [r7, #4]
 80022ec:	681b      	ldr	r3, [r3, #0]
 80022ee:	685a      	ldr	r2, [r3, #4]
 80022f0:	687b      	ldr	r3, [r7, #4]
 80022f2:	681b      	ldr	r3, [r3, #0]
 80022f4:	f042 0220 	orr.w	r2, r2, #32
 80022f8:	605a      	str	r2, [r3, #4]
 80022fa:	e000      	b.n	80022fe <HAL_ADC_Start_IT+0x1aa>
 80022fc:	bf00      	nop
 80022fe:	687b      	ldr	r3, [r7, #4]
 8002300:	681b      	ldr	r3, [r3, #0]
 8002302:	4618      	mov	r0, r3
 8002304:	f7ff fd61 	bl	8001dca <LL_ADC_REG_StartConversion>
 8002308:	e04d      	b.n	80023a6 <HAL_ADC_Start_IT+0x252>
 800230a:	687b      	ldr	r3, [r7, #4]
 800230c:	6ddb      	ldr	r3, [r3, #92]	; 0x5c
 800230e:	f443 1280 	orr.w	r2, r3, #1048576	; 0x100000
 8002312:	687b      	ldr	r3, [r7, #4]
 8002314:	65da      	str	r2, [r3, #92]	; 0x5c
 8002316:	687b      	ldr	r3, [r7, #4]
 8002318:	681b      	ldr	r3, [r3, #0]
 800231a:	4a26      	ldr	r2, [pc, #152]	; (80023b4 <HAL_ADC_Start_IT+0x260>)
 800231c:	4293      	cmp	r3, r2
 800231e:	d002      	beq.n	8002326 <HAL_ADC_Start_IT+0x1d2>
 8002320:	687b      	ldr	r3, [r7, #4]
 8002322:	681b      	ldr	r3, [r3, #0]
 8002324:	e001      	b.n	800232a <HAL_ADC_Start_IT+0x1d6>
 8002326:	f04f 43a0 	mov.w	r3, #1342177280	; 0x50000000
 800232a:	60fb      	str	r3, [r7, #12]
 800232c:	68fb      	ldr	r3, [r7, #12]
 800232e:	68db      	ldr	r3, [r3, #12]
 8002330:	f003 7300 	and.w	r3, r3, #33554432	; 0x2000000
 8002334:	2b00      	cmp	r3, #0
 8002336:	d035      	beq.n	80023a4 <HAL_ADC_Start_IT+0x250>
 8002338:	687b      	ldr	r3, [r7, #4]
 800233a:	6ddb      	ldr	r3, [r3, #92]	; 0x5c
 800233c:	f423 5340 	bic.w	r3, r3, #12288	; 0x3000
 8002340:	f443 5280 	orr.w	r2, r3, #4096	; 0x1000
 8002344:	687b      	ldr	r3, [r7, #4]
 8002346:	65da      	str	r2, [r3, #92]	; 0x5c
 8002348:	687b      	ldr	r3, [r7, #4]
 800234a:	699b      	ldr	r3, [r3, #24]
 800234c:	2b08      	cmp	r3, #8
 800234e:	d110      	bne.n	8002372 <HAL_ADC_Start_IT+0x21e>
 8002350:	687b      	ldr	r3, [r7, #4]
 8002352:	681b      	ldr	r3, [r3, #0]
 8002354:	685a      	ldr	r2, [r3, #4]
 8002356:	687b      	ldr	r3, [r7, #4]
 8002358:	681b      	ldr	r3, [r3, #0]
 800235a:	f022 0220 	bic.w	r2, r2, #32
 800235e:	605a      	str	r2, [r3, #4]
 8002360:	687b      	ldr	r3, [r7, #4]
 8002362:	681b      	ldr	r3, [r3, #0]
 8002364:	685a      	ldr	r2, [r3, #4]
 8002366:	687b      	ldr	r3, [r7, #4]
 8002368:	681b      	ldr	r3, [r3, #0]
 800236a:	f042 0240 	orr.w	r2, r2, #64	; 0x40
 800236e:	605a      	str	r2, [r3, #4]
 8002370:	e019      	b.n	80023a6 <HAL_ADC_Start_IT+0x252>
 8002372:	687b      	ldr	r3, [r7, #4]
 8002374:	681b      	ldr	r3, [r3, #0]
 8002376:	685a      	ldr	r2, [r3, #4]
 8002378:	687b      	ldr	r3, [r7, #4]
 800237a:	681b      	ldr	r3, [r3, #0]
 800237c:	f022 0240 	bic.w	r2, r2, #64	; 0x40
 8002380:	605a      	str	r2, [r3, #4]
 8002382:	687b      	ldr	r3, [r7, #4]
 8002384:	681b      	ldr	r3, [r3, #0]
 8002386:	685a      	ldr	r2, [r3, #4]
 8002388:	687b      	ldr	r3, [r7, #4]
 800238a:	681b      	ldr	r3, [r3, #0]
 800238c:	f042 0220 	orr.w	r2, r2, #32
 8002390:	605a      	str	r2, [r3, #4]
 8002392:	e008      	b.n	80023a6 <HAL_ADC_Start_IT+0x252>
 8002394:	687b      	ldr	r3, [r7, #4]
 8002396:	2200      	movs	r2, #0
 8002398:	f883 2058 	strb.w	r2, [r3, #88]	; 0x58
 800239c:	e003      	b.n	80023a6 <HAL_ADC_Start_IT+0x252>
 800239e:	2302      	movs	r3, #2
 80023a0:	75fb      	strb	r3, [r7, #23]
 80023a2:	e000      	b.n	80023a6 <HAL_ADC_Start_IT+0x252>
 80023a4:	bf00      	nop
 80023a6:	7dfb      	ldrb	r3, [r7, #23]
 80023a8:	4618      	mov	r0, r3
 80023aa:	3718      	adds	r7, #24
 80023ac:	46bd      	mov	sp, r7
 80023ae:	bd80      	pop	{r7, pc}
 80023b0:	50000300 	.word	0x50000300
 80023b4:	50000100 	.word	0x50000100

080023b8 <HAL_ADC_GetValue>:
 80023b8:	b480      	push	{r7}
 80023ba:	b083      	sub	sp, #12
 80023bc:	af00      	add	r7, sp, #0
 80023be:	6078      	str	r0, [r7, #4]
 80023c0:	687b      	ldr	r3, [r7, #4]
 80023c2:	681b      	ldr	r3, [r3, #0]
 80023c4:	6c1b      	ldr	r3, [r3, #64]	; 0x40
 80023c6:	4618      	mov	r0, r3
 80023c8:	370c      	adds	r7, #12
 80023ca:	46bd      	mov	sp, r7
 80023cc:	f85d 7b04 	ldr.w	r7, [sp], #4
 80023d0:	4770      	bx	lr
	...

080023d4 <HAL_ADC_IRQHandler>:
 80023d4:	b580      	push	{r7, lr}
 80023d6:	b08a      	sub	sp, #40	; 0x28
 80023d8:	af00      	add	r7, sp, #0
 80023da:	6078      	str	r0, [r7, #4]
 80023dc:	2300      	movs	r3, #0
 80023de:	627b      	str	r3, [r7, #36]	; 0x24
 80023e0:	687b      	ldr	r3, [r7, #4]
 80023e2:	681b      	ldr	r3, [r3, #0]
 80023e4:	681b      	ldr	r3, [r3, #0]
 80023e6:	61fb      	str	r3, [r7, #28]
 80023e8:	687b      	ldr	r3, [r7, #4]
 80023ea:	681b      	ldr	r3, [r3, #0]
 80023ec:	685b      	ldr	r3, [r3, #4]
 80023ee:	61bb      	str	r3, [r7, #24]
 80023f0:	4883      	ldr	r0, [pc, #524]	; (8002600 <HAL_ADC_IRQHandler+0x22c>)
 80023f2:	f7ff fc59 	bl	8001ca8 <LL_ADC_GetMultimode>
 80023f6:	6178      	str	r0, [r7, #20]
 80023f8:	69fb      	ldr	r3, [r7, #28]
 80023fa:	f003 0302 	and.w	r3, r3, #2
 80023fe:	2b00      	cmp	r3, #0
 8002400:	d017      	beq.n	8002432 <HAL_ADC_IRQHandler+0x5e>
 8002402:	69bb      	ldr	r3, [r7, #24]
 8002404:	f003 0302 	and.w	r3, r3, #2
 8002408:	2b00      	cmp	r3, #0
 800240a:	d012      	beq.n	8002432 <HAL_ADC_IRQHandler+0x5e>
 800240c:	687b      	ldr	r3, [r7, #4]
 800240e:	6ddb      	ldr	r3, [r3, #92]	; 0x5c
 8002410:	f003 0310 	and.w	r3, r3, #16
 8002414:	2b00      	cmp	r3, #0
 8002416:	d105      	bne.n	8002424 <HAL_ADC_IRQHandler+0x50>
 8002418:	687b      	ldr	r3, [r7, #4]
 800241a:	6ddb      	ldr	r3, [r3, #92]	; 0x5c
 800241c:	f443 6200 	orr.w	r2, r3, #2048	; 0x800
 8002420:	687b      	ldr	r3, [r7, #4]
 8002422:	65da      	str	r2, [r3, #92]	; 0x5c
 8002424:	6878      	ldr	r0, [r7, #4]
 8002426:	f000 fea3 	bl	8003170 <HAL_ADCEx_EndOfSamplingCallback>
 800242a:	687b      	ldr	r3, [r7, #4]
 800242c:	681b      	ldr	r3, [r3, #0]
 800242e:	2202      	movs	r2, #2
 8002430:	601a      	str	r2, [r3, #0]
 8002432:	69fb      	ldr	r3, [r7, #28]
 8002434:	f003 0304 	and.w	r3, r3, #4
 8002438:	2b00      	cmp	r3, #0
 800243a:	d004      	beq.n	8002446 <HAL_ADC_IRQHandler+0x72>
 800243c:	69bb      	ldr	r3, [r7, #24]
 800243e:	f003 0304 	and.w	r3, r3, #4
 8002442:	2b00      	cmp	r3, #0
 8002444:	d10a      	bne.n	800245c <HAL_ADC_IRQHandler+0x88>
 8002446:	69fb      	ldr	r3, [r7, #28]
 8002448:	f003 0308 	and.w	r3, r3, #8
 800244c:	2b00      	cmp	r3, #0
 800244e:	f000 8085 	beq.w	800255c <HAL_ADC_IRQHandler+0x188>
 8002452:	69bb      	ldr	r3, [r7, #24]
 8002454:	f003 0308 	and.w	r3, r3, #8
 8002458:	2b00      	cmp	r3, #0
 800245a:	d07f      	beq.n	800255c <HAL_ADC_IRQHandler+0x188>
 800245c:	687b      	ldr	r3, [r7, #4]
 800245e:	6ddb      	ldr	r3, [r3, #92]	; 0x5c
 8002460:	f003 0310 	and.w	r3, r3, #16
 8002464:	2b00      	cmp	r3, #0
 8002466:	d105      	bne.n	8002474 <HAL_ADC_IRQHandler+0xa0>
 8002468:	687b      	ldr	r3, [r7, #4]
 800246a:	6ddb      	ldr	r3, [r3, #92]	; 0x5c
 800246c:	f443 7200 	orr.w	r2, r3, #512	; 0x200
 8002470:	687b      	ldr	r3, [r7, #4]
 8002472:	65da      	str	r2, [r3, #92]	; 0x5c
 8002474:	687b      	ldr	r3, [r7, #4]
 8002476:	681b      	ldr	r3, [r3, #0]
 8002478:	4618      	mov	r0, r3
 800247a:	f7ff fb73 	bl	8001b64 <LL_ADC_REG_IsTriggerSourceSWStart>
 800247e:	4603      	mov	r3, r0
 8002480:	2b00      	cmp	r3, #0
 8002482:	d064      	beq.n	800254e <HAL_ADC_IRQHandler+0x17a>
 8002484:	687b      	ldr	r3, [r7, #4]
 8002486:	681b      	ldr	r3, [r3, #0]
 8002488:	4a5e      	ldr	r2, [pc, #376]	; (8002604 <HAL_ADC_IRQHandler+0x230>)
 800248a:	4293      	cmp	r3, r2
 800248c:	d002      	beq.n	8002494 <HAL_ADC_IRQHandler+0xc0>
 800248e:	687b      	ldr	r3, [r7, #4]
 8002490:	681b      	ldr	r3, [r3, #0]
 8002492:	e001      	b.n	8002498 <HAL_ADC_IRQHandler+0xc4>
 8002494:	f04f 43a0 	mov.w	r3, #1342177280	; 0x50000000
 8002498:	687a      	ldr	r2, [r7, #4]
 800249a:	6812      	ldr	r2, [r2, #0]
 800249c:	4293      	cmp	r3, r2
 800249e:	d008      	beq.n	80024b2 <HAL_ADC_IRQHandler+0xde>
 80024a0:	697b      	ldr	r3, [r7, #20]
 80024a2:	2b00      	cmp	r3, #0
 80024a4:	d005      	beq.n	80024b2 <HAL_ADC_IRQHandler+0xde>
 80024a6:	697b      	ldr	r3, [r7, #20]
 80024a8:	2b05      	cmp	r3, #5
 80024aa:	d002      	beq.n	80024b2 <HAL_ADC_IRQHandler+0xde>
 80024ac:	697b      	ldr	r3, [r7, #20]
 80024ae:	2b09      	cmp	r3, #9
 80024b0:	d104      	bne.n	80024bc <HAL_ADC_IRQHandler+0xe8>
 80024b2:	687b      	ldr	r3, [r7, #4]
 80024b4:	681b      	ldr	r3, [r3, #0]
 80024b6:	68db      	ldr	r3, [r3, #12]
 80024b8:	623b      	str	r3, [r7, #32]
 80024ba:	e00d      	b.n	80024d8 <HAL_ADC_IRQHandler+0x104>
 80024bc:	687b      	ldr	r3, [r7, #4]
 80024be:	681b      	ldr	r3, [r3, #0]
 80024c0:	4a50      	ldr	r2, [pc, #320]	; (8002604 <HAL_ADC_IRQHandler+0x230>)
 80024c2:	4293      	cmp	r3, r2
 80024c4:	d002      	beq.n	80024cc <HAL_ADC_IRQHandler+0xf8>
 80024c6:	687b      	ldr	r3, [r7, #4]
 80024c8:	681b      	ldr	r3, [r3, #0]
 80024ca:	e001      	b.n	80024d0 <HAL_ADC_IRQHandler+0xfc>
 80024cc:	f04f 43a0 	mov.w	r3, #1342177280	; 0x50000000
 80024d0:	613b      	str	r3, [r7, #16]
 80024d2:	693b      	ldr	r3, [r7, #16]
 80024d4:	68db      	ldr	r3, [r3, #12]
 80024d6:	623b      	str	r3, [r7, #32]
 80024d8:	6a3b      	ldr	r3, [r7, #32]
 80024da:	f403 5300 	and.w	r3, r3, #8192	; 0x2000
 80024de:	2b00      	cmp	r3, #0
 80024e0:	d135      	bne.n	800254e <HAL_ADC_IRQHandler+0x17a>
 80024e2:	687b      	ldr	r3, [r7, #4]
 80024e4:	681b      	ldr	r3, [r3, #0]
 80024e6:	681b      	ldr	r3, [r3, #0]
 80024e8:	f003 0308 	and.w	r3, r3, #8
 80024ec:	2b08      	cmp	r3, #8
 80024ee:	d12e      	bne.n	800254e <HAL_ADC_IRQHandler+0x17a>
 80024f0:	687b      	ldr	r3, [r7, #4]
 80024f2:	681b      	ldr	r3, [r3, #0]
 80024f4:	4618      	mov	r0, r3
 80024f6:	f7ff fc7c 	bl	8001df2 <LL_ADC_REG_IsConversionOngoing>
 80024fa:	4603      	mov	r3, r0
 80024fc:	2b00      	cmp	r3, #0
 80024fe:	d11a      	bne.n	8002536 <HAL_ADC_IRQHandler+0x162>
 8002500:	687b      	ldr	r3, [r7, #4]
 8002502:	681b      	ldr	r3, [r3, #0]
 8002504:	685a      	ldr	r2, [r3, #4]
 8002506:	687b      	ldr	r3, [r7, #4]
 8002508:	681b      	ldr	r3, [r3, #0]
 800250a:	f022 020c 	bic.w	r2, r2, #12
 800250e:	605a      	str	r2, [r3, #4]
 8002510:	687b      	ldr	r3, [r7, #4]
 8002512:	6ddb      	ldr	r3, [r3, #92]	; 0x5c
 8002514:	f423 7280 	bic.w	r2, r3, #256	; 0x100
 8002518:	687b      	ldr	r3, [r7, #4]
 800251a:	65da      	str	r2, [r3, #92]	; 0x5c
 800251c:	687b      	ldr	r3, [r7, #4]
 800251e:	6ddb      	ldr	r3, [r3, #92]	; 0x5c
 8002520:	f403 5380 	and.w	r3, r3, #4096	; 0x1000
 8002524:	2b00      	cmp	r3, #0
 8002526:	d112      	bne.n	800254e <HAL_ADC_IRQHandler+0x17a>
 8002528:	687b      	ldr	r3, [r7, #4]
 800252a:	6ddb      	ldr	r3, [r3, #92]	; 0x5c
 800252c:	f043 0201 	orr.w	r2, r3, #1
 8002530:	687b      	ldr	r3, [r7, #4]
 8002532:	65da      	str	r2, [r3, #92]	; 0x5c
 8002534:	e00b      	b.n	800254e <HAL_ADC_IRQHandler+0x17a>
 8002536:	687b      	ldr	r3, [r7, #4]
 8002538:	6ddb      	ldr	r3, [r3, #92]	; 0x5c
 800253a:	f043 0210 	orr.w	r2, r3, #16
 800253e:	687b      	ldr	r3, [r7, #4]
 8002540:	65da      	str	r2, [r3, #92]	; 0x5c
 8002542:	687b      	ldr	r3, [r7, #4]
 8002544:	6e1b      	ldr	r3, [r3, #96]	; 0x60
 8002546:	f043 0201 	orr.w	r2, r3, #1
 800254a:	687b      	ldr	r3, [r7, #4]
 800254c:	661a      	str	r2, [r3, #96]	; 0x60
 800254e:	6878      	ldr	r0, [r7, #4]
 8002550:	f7fe fc9a 	bl	8000e88 <HAL_ADC_ConvCpltCallback>
 8002554:	687b      	ldr	r3, [r7, #4]
 8002556:	681b      	ldr	r3, [r3, #0]
 8002558:	220c      	movs	r2, #12
 800255a:	601a      	str	r2, [r3, #0]
 800255c:	69fb      	ldr	r3, [r7, #28]
 800255e:	f003 0320 	and.w	r3, r3, #32
 8002562:	2b00      	cmp	r3, #0
 8002564:	d004      	beq.n	8002570 <HAL_ADC_IRQHandler+0x19c>
 8002566:	69bb      	ldr	r3, [r7, #24]
 8002568:	f003 0320 	and.w	r3, r3, #32
 800256c:	2b00      	cmp	r3, #0
 800256e:	d10b      	bne.n	8002588 <HAL_ADC_IRQHandler+0x1b4>
 8002570:	69fb      	ldr	r3, [r7, #28]
 8002572:	f003 0340 	and.w	r3, r3, #64	; 0x40
 8002576:	2b00      	cmp	r3, #0
 8002578:	f000 809e 	beq.w	80026b8 <HAL_ADC_IRQHandler+0x2e4>
 800257c:	69bb      	ldr	r3, [r7, #24]
 800257e:	f003 0340 	and.w	r3, r3, #64	; 0x40
 8002582:	2b00      	cmp	r3, #0
 8002584:	f000 8098 	beq.w	80026b8 <HAL_ADC_IRQHandler+0x2e4>
 8002588:	687b      	ldr	r3, [r7, #4]
 800258a:	6ddb      	ldr	r3, [r3, #92]	; 0x5c
 800258c:	f003 0310 	and.w	r3, r3, #16
 8002590:	2b00      	cmp	r3, #0
 8002592:	d105      	bne.n	80025a0 <HAL_ADC_IRQHandler+0x1cc>
 8002594:	687b      	ldr	r3, [r7, #4]
 8002596:	6ddb      	ldr	r3, [r3, #92]	; 0x5c
 8002598:	f443 5200 	orr.w	r2, r3, #8192	; 0x2000
 800259c:	687b      	ldr	r3, [r7, #4]
 800259e:	65da      	str	r2, [r3, #92]	; 0x5c
 80025a0:	687b      	ldr	r3, [r7, #4]
 80025a2:	681b      	ldr	r3, [r3, #0]
 80025a4:	4618      	mov	r0, r3
 80025a6:	f7ff fb1c 	bl	8001be2 <LL_ADC_INJ_IsTriggerSourceSWStart>
 80025aa:	60f8      	str	r0, [r7, #12]
 80025ac:	687b      	ldr	r3, [r7, #4]
 80025ae:	681b      	ldr	r3, [r3, #0]
 80025b0:	4618      	mov	r0, r3
 80025b2:	f7ff fad7 	bl	8001b64 <LL_ADC_REG_IsTriggerSourceSWStart>
 80025b6:	60b8      	str	r0, [r7, #8]
 80025b8:	687b      	ldr	r3, [r7, #4]
 80025ba:	681b      	ldr	r3, [r3, #0]
 80025bc:	4a11      	ldr	r2, [pc, #68]	; (8002604 <HAL_ADC_IRQHandler+0x230>)
 80025be:	4293      	cmp	r3, r2
 80025c0:	d002      	beq.n	80025c8 <HAL_ADC_IRQHandler+0x1f4>
 80025c2:	687b      	ldr	r3, [r7, #4]
 80025c4:	681b      	ldr	r3, [r3, #0]
 80025c6:	e001      	b.n	80025cc <HAL_ADC_IRQHandler+0x1f8>
 80025c8:	f04f 43a0 	mov.w	r3, #1342177280	; 0x50000000
 80025cc:	687a      	ldr	r2, [r7, #4]
 80025ce:	6812      	ldr	r2, [r2, #0]
 80025d0:	4293      	cmp	r3, r2
 80025d2:	d008      	beq.n	80025e6 <HAL_ADC_IRQHandler+0x212>
 80025d4:	697b      	ldr	r3, [r7, #20]
 80025d6:	2b00      	cmp	r3, #0
 80025d8:	d005      	beq.n	80025e6 <HAL_ADC_IRQHandler+0x212>
 80025da:	697b      	ldr	r3, [r7, #20]
 80025dc:	2b06      	cmp	r3, #6
 80025de:	d002      	beq.n	80025e6 <HAL_ADC_IRQHandler+0x212>
 80025e0:	697b      	ldr	r3, [r7, #20]
 80025e2:	2b07      	cmp	r3, #7
 80025e4:	d104      	bne.n	80025f0 <HAL_ADC_IRQHandler+0x21c>
 80025e6:	687b      	ldr	r3, [r7, #4]
 80025e8:	681b      	ldr	r3, [r3, #0]
 80025ea:	68db      	ldr	r3, [r3, #12]
 80025ec:	623b      	str	r3, [r7, #32]
 80025ee:	e011      	b.n	8002614 <HAL_ADC_IRQHandler+0x240>
 80025f0:	687b      	ldr	r3, [r7, #4]
 80025f2:	681b      	ldr	r3, [r3, #0]
 80025f4:	4a03      	ldr	r2, [pc, #12]	; (8002604 <HAL_ADC_IRQHandler+0x230>)
 80025f6:	4293      	cmp	r3, r2
 80025f8:	d006      	beq.n	8002608 <HAL_ADC_IRQHandler+0x234>
 80025fa:	687b      	ldr	r3, [r7, #4]
 80025fc:	681b      	ldr	r3, [r3, #0]
 80025fe:	e005      	b.n	800260c <HAL_ADC_IRQHandler+0x238>
 8002600:	50000300 	.word	0x50000300
 8002604:	50000100 	.word	0x50000100
 8002608:	f04f 43a0 	mov.w	r3, #1342177280	; 0x50000000
 800260c:	613b      	str	r3, [r7, #16]
 800260e:	693b      	ldr	r3, [r7, #16]
 8002610:	68db      	ldr	r3, [r3, #12]
 8002612:	623b      	str	r3, [r7, #32]
 8002614:	68fb      	ldr	r3, [r7, #12]
 8002616:	2b00      	cmp	r3, #0
 8002618:	d047      	beq.n	80026aa <HAL_ADC_IRQHandler+0x2d6>
 800261a:	6a3b      	ldr	r3, [r7, #32]
 800261c:	f003 7300 	and.w	r3, r3, #33554432	; 0x2000000
 8002620:	2b00      	cmp	r3, #0
 8002622:	d007      	beq.n	8002634 <HAL_ADC_IRQHandler+0x260>
 8002624:	68bb      	ldr	r3, [r7, #8]
 8002626:	2b00      	cmp	r3, #0
 8002628:	d03f      	beq.n	80026aa <HAL_ADC_IRQHandler+0x2d6>
 800262a:	6a3b      	ldr	r3, [r7, #32]
 800262c:	f403 5300 	and.w	r3, r3, #8192	; 0x2000
 8002630:	2b00      	cmp	r3, #0
 8002632:	d13a      	bne.n	80026aa <HAL_ADC_IRQHandler+0x2d6>
 8002634:	687b      	ldr	r3, [r7, #4]
 8002636:	681b      	ldr	r3, [r3, #0]
 8002638:	681b      	ldr	r3, [r3, #0]
 800263a:	f003 0340 	and.w	r3, r3, #64	; 0x40
 800263e:	2b40      	cmp	r3, #64	; 0x40
 8002640:	d133      	bne.n	80026aa <HAL_ADC_IRQHandler+0x2d6>
 8002642:	6a3b      	ldr	r3, [r7, #32]
 8002644:	f403 1300 	and.w	r3, r3, #2097152	; 0x200000
 8002648:	2b00      	cmp	r3, #0
 800264a:	d12e      	bne.n	80026aa <HAL_ADC_IRQHandler+0x2d6>
 800264c:	687b      	ldr	r3, [r7, #4]
 800264e:	681b      	ldr	r3, [r3, #0]
 8002650:	4618      	mov	r0, r3
 8002652:	f7ff fbe1 	bl	8001e18 <LL_ADC_INJ_IsConversionOngoing>
 8002656:	4603      	mov	r3, r0
 8002658:	2b00      	cmp	r3, #0
 800265a:	d11a      	bne.n	8002692 <HAL_ADC_IRQHandler+0x2be>
 800265c:	687b      	ldr	r3, [r7, #4]
 800265e:	681b      	ldr	r3, [r3, #0]
 8002660:	685a      	ldr	r2, [r3, #4]
 8002662:	687b      	ldr	r3, [r7, #4]
 8002664:	681b      	ldr	r3, [r3, #0]
 8002666:	f022 0260 	bic.w	r2, r2, #96	; 0x60
 800266a:	605a      	str	r2, [r3, #4]
 800266c:	687b      	ldr	r3, [r7, #4]
 800266e:	6ddb      	ldr	r3, [r3, #92]	; 0x5c
 8002670:	f423 5280 	bic.w	r2, r3, #4096	; 0x1000
 8002674:	687b      	ldr	r3, [r7, #4]
 8002676:	65da      	str	r2, [r3, #92]	; 0x5c
 8002678:	687b      	ldr	r3, [r7, #4]
 800267a:	6ddb      	ldr	r3, [r3, #92]	; 0x5c
 800267c:	f403 7380 	and.w	r3, r3, #256	; 0x100
 8002680:	2b00      	cmp	r3, #0
 8002682:	d112      	bne.n	80026aa <HAL_ADC_IRQHandler+0x2d6>
 8002684:	687b      	ldr	r3, [r7, #4]
 8002686:	6ddb      	ldr	r3, [r3, #92]	; 0x5c
 8002688:	f043 0201 	orr.w	r2, r3, #1
 800268c:	687b      	ldr	r3, [r7, #4]
 800268e:	65da      	str	r2, [r3, #92]	; 0x5c
 8002690:	e00b      	b.n	80026aa <HAL_ADC_IRQHandler+0x2d6>
 8002692:	687b      	ldr	r3, [r7, #4]
 8002694:	6ddb      	ldr	r3, [r3, #92]	; 0x5c
 8002696:	f043 0210 	orr.w	r2, r3, #16
 800269a:	687b      	ldr	r3, [r7, #4]
 800269c:	65da      	str	r2, [r3, #92]	; 0x5c
 800269e:	687b      	ldr	r3, [r7, #4]
 80026a0:	6e1b      	ldr	r3, [r3, #96]	; 0x60
 80026a2:	f043 0201 	orr.w	r2, r3, #1
 80026a6:	687b      	ldr	r3, [r7, #4]
 80026a8:	661a      	str	r2, [r3, #96]	; 0x60
 80026aa:	6878      	ldr	r0, [r7, #4]
 80026ac:	f000 fd38 	bl	8003120 <HAL_ADCEx_InjectedConvCpltCallback>
 80026b0:	687b      	ldr	r3, [r7, #4]
 80026b2:	681b      	ldr	r3, [r3, #0]
 80026b4:	2260      	movs	r2, #96	; 0x60
 80026b6:	601a      	str	r2, [r3, #0]
 80026b8:	69fb      	ldr	r3, [r7, #28]
 80026ba:	f003 0380 	and.w	r3, r3, #128	; 0x80
 80026be:	2b00      	cmp	r3, #0
 80026c0:	d011      	beq.n	80026e6 <HAL_ADC_IRQHandler+0x312>
 80026c2:	69bb      	ldr	r3, [r7, #24]
 80026c4:	f003 0380 	and.w	r3, r3, #128	; 0x80
 80026c8:	2b00      	cmp	r3, #0
 80026ca:	d00c      	beq.n	80026e6 <HAL_ADC_IRQHandler+0x312>
 80026cc:	687b      	ldr	r3, [r7, #4]
 80026ce:	6ddb      	ldr	r3, [r3, #92]	; 0x5c
 80026d0:	f443 3280 	orr.w	r2, r3, #65536	; 0x10000
 80026d4:	687b      	ldr	r3, [r7, #4]
 80026d6:	65da      	str	r2, [r3, #92]	; 0x5c
 80026d8:	6878      	ldr	r0, [r7, #4]
 80026da:	f000 f895 	bl	8002808 <HAL_ADC_LevelOutOfWindowCallback>
 80026de:	687b      	ldr	r3, [r7, #4]
 80026e0:	681b      	ldr	r3, [r3, #0]
 80026e2:	2280      	movs	r2, #128	; 0x80
 80026e4:	601a      	str	r2, [r3, #0]
 80026e6:	69fb      	ldr	r3, [r7, #28]
 80026e8:	f403 7380 	and.w	r3, r3, #256	; 0x100
 80026ec:	2b00      	cmp	r3, #0
 80026ee:	d012      	beq.n	8002716 <HAL_ADC_IRQHandler+0x342>
 80026f0:	69bb      	ldr	r3, [r7, #24]
 80026f2:	f403 7380 	and.w	r3, r3, #256	; 0x100
 80026f6:	2b00      	cmp	r3, #0
 80026f8:	d00d      	beq.n	8002716 <HAL_ADC_IRQHandler+0x342>
 80026fa:	687b      	ldr	r3, [r7, #4]
 80026fc:	6ddb      	ldr	r3, [r3, #92]	; 0x5c
 80026fe:	f443 3200 	orr.w	r2, r3, #131072	; 0x20000
 8002702:	687b      	ldr	r3, [r7, #4]
 8002704:	65da      	str	r2, [r3, #92]	; 0x5c
 8002706:	6878      	ldr	r0, [r7, #4]
 8002708:	f000 fd1e 	bl	8003148 <HAL_ADCEx_LevelOutOfWindow2Callback>
 800270c:	687b      	ldr	r3, [r7, #4]
 800270e:	681b      	ldr	r3, [r3, #0]
 8002710:	f44f 7280 	mov.w	r2, #256	; 0x100
 8002714:	601a      	str	r2, [r3, #0]
 8002716:	69fb      	ldr	r3, [r7, #28]
 8002718:	f403 7300 	and.w	r3, r3, #512	; 0x200
 800271c:	2b00      	cmp	r3, #0
 800271e:	d012      	beq.n	8002746 <HAL_ADC_IRQHandler+0x372>
 8002720:	69bb      	ldr	r3, [r7, #24]
 8002722:	f403 7300 	and.w	r3, r3, #512	; 0x200
 8002726:	2b00      	cmp	r3, #0
 8002728:	d00d      	beq.n	8002746 <HAL_ADC_IRQHandler+0x372>
 800272a:	687b      	ldr	r3, [r7, #4]
 800272c:	6ddb      	ldr	r3, [r3, #92]	; 0x5c
 800272e:	f443 2280 	orr.w	r2, r3, #262144	; 0x40000
 8002732:	687b      	ldr	r3, [r7, #4]
 8002734:	65da      	str	r2, [r3, #92]	; 0x5c
 8002736:	6878      	ldr	r0, [r7, #4]
 8002738:	f000 fd10 	bl	800315c <HAL_ADCEx_LevelOutOfWindow3Callback>
 800273c:	687b      	ldr	r3, [r7, #4]
 800273e:	681b      	ldr	r3, [r3, #0]
 8002740:	f44f 7200 	mov.w	r2, #512	; 0x200
 8002744:	601a      	str	r2, [r3, #0]
 8002746:	69fb      	ldr	r3, [r7, #28]
 8002748:	f003 0310 	and.w	r3, r3, #16
 800274c:	2b00      	cmp	r3, #0
 800274e:	d036      	beq.n	80027be <HAL_ADC_IRQHandler+0x3ea>
 8002750:	69bb      	ldr	r3, [r7, #24]
 8002752:	f003 0310 	and.w	r3, r3, #16
 8002756:	2b00      	cmp	r3, #0
 8002758:	d031      	beq.n	80027be <HAL_ADC_IRQHandler+0x3ea>
 800275a:	687b      	ldr	r3, [r7, #4]
 800275c:	6bdb      	ldr	r3, [r3, #60]	; 0x3c
 800275e:	2b00      	cmp	r3, #0
 8002760:	d102      	bne.n	8002768 <HAL_ADC_IRQHandler+0x394>
 8002762:	2301      	movs	r3, #1
 8002764:	627b      	str	r3, [r7, #36]	; 0x24
 8002766:	e014      	b.n	8002792 <HAL_ADC_IRQHandler+0x3be>
 8002768:	697b      	ldr	r3, [r7, #20]
 800276a:	2b00      	cmp	r3, #0
 800276c:	d008      	beq.n	8002780 <HAL_ADC_IRQHandler+0x3ac>
 800276e:	4825      	ldr	r0, [pc, #148]	; (8002804 <HAL_ADC_IRQHandler+0x430>)
 8002770:	f7ff faa8 	bl	8001cc4 <LL_ADC_GetMultiDMATransfer>
 8002774:	4603      	mov	r3, r0
 8002776:	2b00      	cmp	r3, #0
 8002778:	d00b      	beq.n	8002792 <HAL_ADC_IRQHandler+0x3be>
 800277a:	2301      	movs	r3, #1
 800277c:	627b      	str	r3, [r7, #36]	; 0x24
 800277e:	e008      	b.n	8002792 <HAL_ADC_IRQHandler+0x3be>
 8002780:	687b      	ldr	r3, [r7, #4]
 8002782:	681b      	ldr	r3, [r3, #0]
 8002784:	68db      	ldr	r3, [r3, #12]
 8002786:	f003 0301 	and.w	r3, r3, #1
 800278a:	2b00      	cmp	r3, #0
 800278c:	d001      	beq.n	8002792 <HAL_ADC_IRQHandler+0x3be>
 800278e:	2301      	movs	r3, #1
 8002790:	627b      	str	r3, [r7, #36]	; 0x24
 8002792:	6a7b      	ldr	r3, [r7, #36]	; 0x24
 8002794:	2b01      	cmp	r3, #1
 8002796:	d10e      	bne.n	80027b6 <HAL_ADC_IRQHandler+0x3e2>
 8002798:	687b      	ldr	r3, [r7, #4]
 800279a:	6ddb      	ldr	r3, [r3, #92]	; 0x5c
 800279c:	f443 6280 	orr.w	r2, r3, #1024	; 0x400
 80027a0:	687b      	ldr	r3, [r7, #4]
 80027a2:	65da      	str	r2, [r3, #92]	; 0x5c
 80027a4:	687b      	ldr	r3, [r7, #4]
 80027a6:	6e1b      	ldr	r3, [r3, #96]	; 0x60
 80027a8:	f043 0202 	orr.w	r2, r3, #2
 80027ac:	687b      	ldr	r3, [r7, #4]
 80027ae:	661a      	str	r2, [r3, #96]	; 0x60
 80027b0:	6878      	ldr	r0, [r7, #4]
 80027b2:	f000 f833 	bl	800281c <HAL_ADC_ErrorCallback>
 80027b6:	687b      	ldr	r3, [r7, #4]
 80027b8:	681b      	ldr	r3, [r3, #0]
 80027ba:	2210      	movs	r2, #16
 80027bc:	601a      	str	r2, [r3, #0]
 80027be:	69fb      	ldr	r3, [r7, #28]
 80027c0:	f403 6380 	and.w	r3, r3, #1024	; 0x400
 80027c4:	2b00      	cmp	r3, #0
 80027c6:	d018      	beq.n	80027fa <HAL_ADC_IRQHandler+0x426>
 80027c8:	69bb      	ldr	r3, [r7, #24]
 80027ca:	f403 6380 	and.w	r3, r3, #1024	; 0x400
 80027ce:	2b00      	cmp	r3, #0
 80027d0:	d013      	beq.n	80027fa <HAL_ADC_IRQHandler+0x426>
 80027d2:	687b      	ldr	r3, [r7, #4]
 80027d4:	6ddb      	ldr	r3, [r3, #92]	; 0x5c
 80027d6:	f443 4280 	orr.w	r2, r3, #16384	; 0x4000
 80027da:	687b      	ldr	r3, [r7, #4]
 80027dc:	65da      	str	r2, [r3, #92]	; 0x5c
 80027de:	687b      	ldr	r3, [r7, #4]
 80027e0:	6e1b      	ldr	r3, [r3, #96]	; 0x60
 80027e2:	f043 0208 	orr.w	r2, r3, #8
 80027e6:	687b      	ldr	r3, [r7, #4]
 80027e8:	661a      	str	r2, [r3, #96]	; 0x60
 80027ea:	687b      	ldr	r3, [r7, #4]
 80027ec:	681b      	ldr	r3, [r3, #0]
 80027ee:	f44f 6280 	mov.w	r2, #1024	; 0x400
 80027f2:	601a      	str	r2, [r3, #0]
 80027f4:	6878      	ldr	r0, [r7, #4]
 80027f6:	f000 fc9d 	bl	8003134 <HAL_ADCEx_InjectedQueueOverflowCallback>
 80027fa:	bf00      	nop
 80027fc:	3728      	adds	r7, #40	; 0x28
 80027fe:	46bd      	mov	sp, r7
 8002800:	bd80      	pop	{r7, pc}
 8002802:	bf00      	nop
 8002804:	50000300 	.word	0x50000300

08002808 <HAL_ADC_LevelOutOfWindowCallback>:
 8002808:	b480      	push	{r7}
 800280a:	b083      	sub	sp, #12
 800280c:	af00      	add	r7, sp, #0
 800280e:	6078      	str	r0, [r7, #4]
 8002810:	bf00      	nop
 8002812:	370c      	adds	r7, #12
 8002814:	46bd      	mov	sp, r7
 8002816:	f85d 7b04 	ldr.w	r7, [sp], #4
 800281a:	4770      	bx	lr

0800281c <HAL_ADC_ErrorCallback>:
 800281c:	b480      	push	{r7}
 800281e:	b083      	sub	sp, #12
 8002820:	af00      	add	r7, sp, #0
 8002822:	6078      	str	r0, [r7, #4]
 8002824:	bf00      	nop
 8002826:	370c      	adds	r7, #12
 8002828:	46bd      	mov	sp, r7
 800282a:	f85d 7b04 	ldr.w	r7, [sp], #4
 800282e:	4770      	bx	lr

08002830 <HAL_ADC_ConfigChannel>:
 8002830:	b580      	push	{r7, lr}
 8002832:	b0b6      	sub	sp, #216	; 0xd8
 8002834:	af00      	add	r7, sp, #0
 8002836:	6078      	str	r0, [r7, #4]
 8002838:	6039      	str	r1, [r7, #0]
 800283a:	2300      	movs	r3, #0
 800283c:	f887 30d7 	strb.w	r3, [r7, #215]	; 0xd7
 8002840:	2300      	movs	r3, #0
 8002842:	60fb      	str	r3, [r7, #12]
 8002844:	687b      	ldr	r3, [r7, #4]
 8002846:	f893 3058 	ldrb.w	r3, [r3, #88]	; 0x58
 800284a:	2b01      	cmp	r3, #1
 800284c:	d101      	bne.n	8002852 <HAL_ADC_ConfigChannel+0x22>
 800284e:	2302      	movs	r3, #2
 8002850:	e3c8      	b.n	8002fe4 <HAL_ADC_ConfigChannel+0x7b4>
 8002852:	687b      	ldr	r3, [r7, #4]
 8002854:	2201      	movs	r2, #1
 8002856:	f883 2058 	strb.w	r2, [r3, #88]	; 0x58
 800285a:	687b      	ldr	r3, [r7, #4]
 800285c:	681b      	ldr	r3, [r3, #0]
 800285e:	4618      	mov	r0, r3
 8002860:	f7ff fac7 	bl	8001df2 <LL_ADC_REG_IsConversionOngoing>
 8002864:	4603      	mov	r3, r0
 8002866:	2b00      	cmp	r3, #0
 8002868:	f040 83ad 	bne.w	8002fc6 <HAL_ADC_ConfigChannel+0x796>
 800286c:	687b      	ldr	r3, [r7, #4]
 800286e:	6818      	ldr	r0, [r3, #0]
 8002870:	683b      	ldr	r3, [r7, #0]
 8002872:	6859      	ldr	r1, [r3, #4]
 8002874:	683b      	ldr	r3, [r7, #0]
 8002876:	681b      	ldr	r3, [r3, #0]
 8002878:	461a      	mov	r2, r3
 800287a:	f7ff f986 	bl	8001b8a <LL_ADC_REG_SetSequencerRanks>
 800287e:	687b      	ldr	r3, [r7, #4]
 8002880:	681b      	ldr	r3, [r3, #0]
 8002882:	4618      	mov	r0, r3
 8002884:	f7ff fab5 	bl	8001df2 <LL_ADC_REG_IsConversionOngoing>
 8002888:	f8c7 00d0 	str.w	r0, [r7, #208]	; 0xd0
 800288c:	687b      	ldr	r3, [r7, #4]
 800288e:	681b      	ldr	r3, [r3, #0]
 8002890:	4618      	mov	r0, r3
 8002892:	f7ff fac1 	bl	8001e18 <LL_ADC_INJ_IsConversionOngoing>
 8002896:	f8c7 00cc 	str.w	r0, [r7, #204]	; 0xcc
 800289a:	f8d7 30d0 	ldr.w	r3, [r7, #208]	; 0xd0
 800289e:	2b00      	cmp	r3, #0
 80028a0:	f040 81d9 	bne.w	8002c56 <HAL_ADC_ConfigChannel+0x426>
 80028a4:	f8d7 30cc 	ldr.w	r3, [r7, #204]	; 0xcc
 80028a8:	2b00      	cmp	r3, #0
 80028aa:	f040 81d4 	bne.w	8002c56 <HAL_ADC_ConfigChannel+0x426>
 80028ae:	683b      	ldr	r3, [r7, #0]
 80028b0:	689b      	ldr	r3, [r3, #8]
 80028b2:	f1b3 4f00 	cmp.w	r3, #2147483648	; 0x80000000
 80028b6:	d10f      	bne.n	80028d8 <HAL_ADC_ConfigChannel+0xa8>
 80028b8:	687b      	ldr	r3, [r7, #4]
 80028ba:	6818      	ldr	r0, [r3, #0]
 80028bc:	683b      	ldr	r3, [r7, #0]
 80028be:	681b      	ldr	r3, [r3, #0]
 80028c0:	2200      	movs	r2, #0
 80028c2:	4619      	mov	r1, r3
 80028c4:	f7ff f9a0 	bl	8001c08 <LL_ADC_SetChannelSamplingTime>
 80028c8:	687b      	ldr	r3, [r7, #4]
 80028ca:	681b      	ldr	r3, [r3, #0]
 80028cc:	f04f 4100 	mov.w	r1, #2147483648	; 0x80000000
 80028d0:	4618      	mov	r0, r3
 80028d2:	f7ff f934 	bl	8001b3e <LL_ADC_SetSamplingTimeCommonConfig>
 80028d6:	e00e      	b.n	80028f6 <HAL_ADC_ConfigChannel+0xc6>
 80028d8:	687b      	ldr	r3, [r7, #4]
 80028da:	6818      	ldr	r0, [r3, #0]
 80028dc:	683b      	ldr	r3, [r7, #0]
 80028de:	6819      	ldr	r1, [r3, #0]
 80028e0:	683b      	ldr	r3, [r7, #0]
 80028e2:	689b      	ldr	r3, [r3, #8]
 80028e4:	461a      	mov	r2, r3
 80028e6:	f7ff f98f 	bl	8001c08 <LL_ADC_SetChannelSamplingTime>
 80028ea:	687b      	ldr	r3, [r7, #4]
 80028ec:	681b      	ldr	r3, [r3, #0]
 80028ee:	2100      	movs	r1, #0
 80028f0:	4618      	mov	r0, r3
 80028f2:	f7ff f924 	bl	8001b3e <LL_ADC_SetSamplingTimeCommonConfig>
 80028f6:	683b      	ldr	r3, [r7, #0]
 80028f8:	695a      	ldr	r2, [r3, #20]
 80028fa:	687b      	ldr	r3, [r7, #4]
 80028fc:	681b      	ldr	r3, [r3, #0]
 80028fe:	68db      	ldr	r3, [r3, #12]
 8002900:	08db      	lsrs	r3, r3, #3
 8002902:	f003 0303 	and.w	r3, r3, #3
 8002906:	005b      	lsls	r3, r3, #1
 8002908:	fa02 f303 	lsl.w	r3, r2, r3
 800290c:	f8c7 30c8 	str.w	r3, [r7, #200]	; 0xc8
 8002910:	683b      	ldr	r3, [r7, #0]
 8002912:	691b      	ldr	r3, [r3, #16]
 8002914:	2b04      	cmp	r3, #4
 8002916:	d022      	beq.n	800295e <HAL_ADC_ConfigChannel+0x12e>
 8002918:	687b      	ldr	r3, [r7, #4]
 800291a:	6818      	ldr	r0, [r3, #0]
 800291c:	683b      	ldr	r3, [r7, #0]
 800291e:	6919      	ldr	r1, [r3, #16]
 8002920:	683b      	ldr	r3, [r7, #0]
 8002922:	681a      	ldr	r2, [r3, #0]
 8002924:	f8d7 30c8 	ldr.w	r3, [r7, #200]	; 0xc8
 8002928:	f7ff f87e 	bl	8001a28 <LL_ADC_SetOffset>
 800292c:	687b      	ldr	r3, [r7, #4]
 800292e:	6818      	ldr	r0, [r3, #0]
 8002930:	683b      	ldr	r3, [r7, #0]
 8002932:	6919      	ldr	r1, [r3, #16]
 8002934:	683b      	ldr	r3, [r7, #0]
 8002936:	699b      	ldr	r3, [r3, #24]
 8002938:	461a      	mov	r2, r3
 800293a:	f7ff f8ca 	bl	8001ad2 <LL_ADC_SetOffsetSign>
 800293e:	687b      	ldr	r3, [r7, #4]
 8002940:	6818      	ldr	r0, [r3, #0]
 8002942:	683b      	ldr	r3, [r7, #0]
 8002944:	6919      	ldr	r1, [r3, #16]
 8002946:	683b      	ldr	r3, [r7, #0]
 8002948:	7f1b      	ldrb	r3, [r3, #28]
 800294a:	2b01      	cmp	r3, #1
 800294c:	d102      	bne.n	8002954 <HAL_ADC_ConfigChannel+0x124>
 800294e:	f04f 7300 	mov.w	r3, #33554432	; 0x2000000
 8002952:	e000      	b.n	8002956 <HAL_ADC_ConfigChannel+0x126>
 8002954:	2300      	movs	r3, #0
 8002956:	461a      	mov	r2, r3
 8002958:	f7ff f8d6 	bl	8001b08 <LL_ADC_SetOffsetSaturation>
 800295c:	e17b      	b.n	8002c56 <HAL_ADC_ConfigChannel+0x426>
 800295e:	687b      	ldr	r3, [r7, #4]
 8002960:	681b      	ldr	r3, [r3, #0]
 8002962:	2100      	movs	r1, #0
 8002964:	4618      	mov	r0, r3
 8002966:	f7ff f883 	bl	8001a70 <LL_ADC_GetOffsetChannel>
 800296a:	4603      	mov	r3, r0
 800296c:	f3c3 0312 	ubfx	r3, r3, #0, #19
 8002970:	2b00      	cmp	r3, #0
 8002972:	d10a      	bne.n	800298a <HAL_ADC_ConfigChannel+0x15a>
 8002974:	687b      	ldr	r3, [r7, #4]
 8002976:	681b      	ldr	r3, [r3, #0]
 8002978:	2100      	movs	r1, #0
 800297a:	4618      	mov	r0, r3
 800297c:	f7ff f878 	bl	8001a70 <LL_ADC_GetOffsetChannel>
 8002980:	4603      	mov	r3, r0
 8002982:	0e9b      	lsrs	r3, r3, #26
 8002984:	f003 021f 	and.w	r2, r3, #31
 8002988:	e01e      	b.n	80029c8 <HAL_ADC_ConfigChannel+0x198>
 800298a:	687b      	ldr	r3, [r7, #4]
 800298c:	681b      	ldr	r3, [r3, #0]
 800298e:	2100      	movs	r1, #0
 8002990:	4618      	mov	r0, r3
 8002992:	f7ff f86d 	bl	8001a70 <LL_ADC_GetOffsetChannel>
 8002996:	4603      	mov	r3, r0
 8002998:	f8c7 30bc 	str.w	r3, [r7, #188]	; 0xbc
 800299c:	f8d7 30bc 	ldr.w	r3, [r7, #188]	; 0xbc
 80029a0:	fa93 f3a3 	rbit	r3, r3
 80029a4:	f8c7 30b8 	str.w	r3, [r7, #184]	; 0xb8
 80029a8:	f8d7 30b8 	ldr.w	r3, [r7, #184]	; 0xb8
 80029ac:	f8c7 30c0 	str.w	r3, [r7, #192]	; 0xc0
 80029b0:	f8d7 30c0 	ldr.w	r3, [r7, #192]	; 0xc0
 80029b4:	2b00      	cmp	r3, #0
 80029b6:	d101      	bne.n	80029bc <HAL_ADC_ConfigChannel+0x18c>
 80029b8:	2320      	movs	r3, #32
 80029ba:	e004      	b.n	80029c6 <HAL_ADC_ConfigChannel+0x196>
 80029bc:	f8d7 30c0 	ldr.w	r3, [r7, #192]	; 0xc0
 80029c0:	fab3 f383 	clz	r3, r3
 80029c4:	b2db      	uxtb	r3, r3
 80029c6:	461a      	mov	r2, r3
 80029c8:	683b      	ldr	r3, [r7, #0]
 80029ca:	681b      	ldr	r3, [r3, #0]
 80029cc:	f3c3 0312 	ubfx	r3, r3, #0, #19
 80029d0:	2b00      	cmp	r3, #0
 80029d2:	d105      	bne.n	80029e0 <HAL_ADC_ConfigChannel+0x1b0>
 80029d4:	683b      	ldr	r3, [r7, #0]
 80029d6:	681b      	ldr	r3, [r3, #0]
 80029d8:	0e9b      	lsrs	r3, r3, #26
 80029da:	f003 031f 	and.w	r3, r3, #31
 80029de:	e018      	b.n	8002a12 <HAL_ADC_ConfigChannel+0x1e2>
 80029e0:	683b      	ldr	r3, [r7, #0]
 80029e2:	681b      	ldr	r3, [r3, #0]
 80029e4:	f8c7 30b0 	str.w	r3, [r7, #176]	; 0xb0
 80029e8:	f8d7 30b0 	ldr.w	r3, [r7, #176]	; 0xb0
 80029ec:	fa93 f3a3 	rbit	r3, r3
 80029f0:	f8c7 30ac 	str.w	r3, [r7, #172]	; 0xac
 80029f4:	f8d7 30ac 	ldr.w	r3, [r7, #172]	; 0xac
 80029f8:	f8c7 30b4 	str.w	r3, [r7, #180]	; 0xb4
 80029fc:	f8d7 30b4 	ldr.w	r3, [r7, #180]	; 0xb4
 8002a00:	2b00      	cmp	r3, #0
 8002a02:	d101      	bne.n	8002a08 <HAL_ADC_ConfigChannel+0x1d8>
 8002a04:	2320      	movs	r3, #32
 8002a06:	e004      	b.n	8002a12 <HAL_ADC_ConfigChannel+0x1e2>
 8002a08:	f8d7 30b4 	ldr.w	r3, [r7, #180]	; 0xb4
 8002a0c:	fab3 f383 	clz	r3, r3
 8002a10:	b2db      	uxtb	r3, r3
 8002a12:	429a      	cmp	r2, r3
 8002a14:	d106      	bne.n	8002a24 <HAL_ADC_ConfigChannel+0x1f4>
 8002a16:	687b      	ldr	r3, [r7, #4]
 8002a18:	681b      	ldr	r3, [r3, #0]
 8002a1a:	2200      	movs	r2, #0
 8002a1c:	2100      	movs	r1, #0
 8002a1e:	4618      	mov	r0, r3
 8002a20:	f7ff f83c 	bl	8001a9c <LL_ADC_SetOffsetState>
 8002a24:	687b      	ldr	r3, [r7, #4]
 8002a26:	681b      	ldr	r3, [r3, #0]
 8002a28:	2101      	movs	r1, #1
 8002a2a:	4618      	mov	r0, r3
 8002a2c:	f7ff f820 	bl	8001a70 <LL_ADC_GetOffsetChannel>
 8002a30:	4603      	mov	r3, r0
 8002a32:	f3c3 0312 	ubfx	r3, r3, #0, #19
 8002a36:	2b00      	cmp	r3, #0
 8002a38:	d10a      	bne.n	8002a50 <HAL_ADC_ConfigChannel+0x220>
 8002a3a:	687b      	ldr	r3, [r7, #4]
 8002a3c:	681b      	ldr	r3, [r3, #0]
 8002a3e:	2101      	movs	r1, #1
 8002a40:	4618      	mov	r0, r3
 8002a42:	f7ff f815 	bl	8001a70 <LL_ADC_GetOffsetChannel>
 8002a46:	4603      	mov	r3, r0
 8002a48:	0e9b      	lsrs	r3, r3, #26
 8002a4a:	f003 021f 	and.w	r2, r3, #31
 8002a4e:	e01e      	b.n	8002a8e <HAL_ADC_ConfigChannel+0x25e>
 8002a50:	687b      	ldr	r3, [r7, #4]
 8002a52:	681b      	ldr	r3, [r3, #0]
 8002a54:	2101      	movs	r1, #1
 8002a56:	4618      	mov	r0, r3
 8002a58:	f7ff f80a 	bl	8001a70 <LL_ADC_GetOffsetChannel>
 8002a5c:	4603      	mov	r3, r0
 8002a5e:	f8c7 30a4 	str.w	r3, [r7, #164]	; 0xa4
 8002a62:	f8d7 30a4 	ldr.w	r3, [r7, #164]	; 0xa4
 8002a66:	fa93 f3a3 	rbit	r3, r3
 8002a6a:	f8c7 30a0 	str.w	r3, [r7, #160]	; 0xa0
 8002a6e:	f8d7 30a0 	ldr.w	r3, [r7, #160]	; 0xa0
 8002a72:	f8c7 30a8 	str.w	r3, [r7, #168]	; 0xa8
 8002a76:	f8d7 30a8 	ldr.w	r3, [r7, #168]	; 0xa8
 8002a7a:	2b00      	cmp	r3, #0
 8002a7c:	d101      	bne.n	8002a82 <HAL_ADC_ConfigChannel+0x252>
 8002a7e:	2320      	movs	r3, #32
 8002a80:	e004      	b.n	8002a8c <HAL_ADC_ConfigChannel+0x25c>
 8002a82:	f8d7 30a8 	ldr.w	r3, [r7, #168]	; 0xa8
 8002a86:	fab3 f383 	clz	r3, r3
 8002a8a:	b2db      	uxtb	r3, r3
 8002a8c:	461a      	mov	r2, r3
 8002a8e:	683b      	ldr	r3, [r7, #0]
 8002a90:	681b      	ldr	r3, [r3, #0]
 8002a92:	f3c3 0312 	ubfx	r3, r3, #0, #19
 8002a96:	2b00      	cmp	r3, #0
 8002a98:	d105      	bne.n	8002aa6 <HAL_ADC_ConfigChannel+0x276>
 8002a9a:	683b      	ldr	r3, [r7, #0]
 8002a9c:	681b      	ldr	r3, [r3, #0]
 8002a9e:	0e9b      	lsrs	r3, r3, #26
 8002aa0:	f003 031f 	and.w	r3, r3, #31
 8002aa4:	e018      	b.n	8002ad8 <HAL_ADC_ConfigChannel+0x2a8>
 8002aa6:	683b      	ldr	r3, [r7, #0]
 8002aa8:	681b      	ldr	r3, [r3, #0]
 8002aaa:	f8c7 3098 	str.w	r3, [r7, #152]	; 0x98
 8002aae:	f8d7 3098 	ldr.w	r3, [r7, #152]	; 0x98
 8002ab2:	fa93 f3a3 	rbit	r3, r3
 8002ab6:	f8c7 3094 	str.w	r3, [r7, #148]	; 0x94
 8002aba:	f8d7 3094 	ldr.w	r3, [r7, #148]	; 0x94
 8002abe:	f8c7 309c 	str.w	r3, [r7, #156]	; 0x9c
 8002ac2:	f8d7 309c 	ldr.w	r3, [r7, #156]	; 0x9c
 8002ac6:	2b00      	cmp	r3, #0
 8002ac8:	d101      	bne.n	8002ace <HAL_ADC_ConfigChannel+0x29e>
 8002aca:	2320      	movs	r3, #32
 8002acc:	e004      	b.n	8002ad8 <HAL_ADC_ConfigChannel+0x2a8>
 8002ace:	f8d7 309c 	ldr.w	r3, [r7, #156]	; 0x9c
 8002ad2:	fab3 f383 	clz	r3, r3
 8002ad6:	b2db      	uxtb	r3, r3
 8002ad8:	429a      	cmp	r2, r3
 8002ada:	d106      	bne.n	8002aea <HAL_ADC_ConfigChannel+0x2ba>
 8002adc:	687b      	ldr	r3, [r7, #4]
 8002ade:	681b      	ldr	r3, [r3, #0]
 8002ae0:	2200      	movs	r2, #0
 8002ae2:	2101      	movs	r1, #1
 8002ae4:	4618      	mov	r0, r3
 8002ae6:	f7fe ffd9 	bl	8001a9c <LL_ADC_SetOffsetState>
 8002aea:	687b      	ldr	r3, [r7, #4]
 8002aec:	681b      	ldr	r3, [r3, #0]
 8002aee:	2102      	movs	r1, #2
 8002af0:	4618      	mov	r0, r3
 8002af2:	f7fe ffbd 	bl	8001a70 <LL_ADC_GetOffsetChannel>
 8002af6:	4603      	mov	r3, r0
 8002af8:	f3c3 0312 	ubfx	r3, r3, #0, #19
 8002afc:	2b00      	cmp	r3, #0
 8002afe:	d10a      	bne.n	8002b16 <HAL_ADC_ConfigChannel+0x2e6>
 8002b00:	687b      	ldr	r3, [r7, #4]
 8002b02:	681b      	ldr	r3, [r3, #0]
 8002b04:	2102      	movs	r1, #2
 8002b06:	4618      	mov	r0, r3
 8002b08:	f7fe ffb2 	bl	8001a70 <LL_ADC_GetOffsetChannel>
 8002b0c:	4603      	mov	r3, r0
 8002b0e:	0e9b      	lsrs	r3, r3, #26
 8002b10:	f003 021f 	and.w	r2, r3, #31
 8002b14:	e01e      	b.n	8002b54 <HAL_ADC_ConfigChannel+0x324>
 8002b16:	687b      	ldr	r3, [r7, #4]
 8002b18:	681b      	ldr	r3, [r3, #0]
 8002b1a:	2102      	movs	r1, #2
 8002b1c:	4618      	mov	r0, r3
 8002b1e:	f7fe ffa7 	bl	8001a70 <LL_ADC_GetOffsetChannel>
 8002b22:	4603      	mov	r3, r0
 8002b24:	f8c7 308c 	str.w	r3, [r7, #140]	; 0x8c
 8002b28:	f8d7 308c 	ldr.w	r3, [r7, #140]	; 0x8c
 8002b2c:	fa93 f3a3 	rbit	r3, r3
 8002b30:	f8c7 3088 	str.w	r3, [r7, #136]	; 0x88
 8002b34:	f8d7 3088 	ldr.w	r3, [r7, #136]	; 0x88
 8002b38:	f8c7 3090 	str.w	r3, [r7, #144]	; 0x90
 8002b3c:	f8d7 3090 	ldr.w	r3, [r7, #144]	; 0x90
 8002b40:	2b00      	cmp	r3, #0
 8002b42:	d101      	bne.n	8002b48 <HAL_ADC_ConfigChannel+0x318>
 8002b44:	2320      	movs	r3, #32
 8002b46:	e004      	b.n	8002b52 <HAL_ADC_ConfigChannel+0x322>
 8002b48:	f8d7 3090 	ldr.w	r3, [r7, #144]	; 0x90
 8002b4c:	fab3 f383 	clz	r3, r3
 8002b50:	b2db      	uxtb	r3, r3
 8002b52:	461a      	mov	r2, r3
 8002b54:	683b      	ldr	r3, [r7, #0]
 8002b56:	681b      	ldr	r3, [r3, #0]
 8002b58:	f3c3 0312 	ubfx	r3, r3, #0, #19
 8002b5c:	2b00      	cmp	r3, #0
 8002b5e:	d105      	bne.n	8002b6c <HAL_ADC_ConfigChannel+0x33c>
 8002b60:	683b      	ldr	r3, [r7, #0]
 8002b62:	681b      	ldr	r3, [r3, #0]
 8002b64:	0e9b      	lsrs	r3, r3, #26
 8002b66:	f003 031f 	and.w	r3, r3, #31
 8002b6a:	e016      	b.n	8002b9a <HAL_ADC_ConfigChannel+0x36a>
 8002b6c:	683b      	ldr	r3, [r7, #0]
 8002b6e:	681b      	ldr	r3, [r3, #0]
 8002b70:	f8c7 3080 	str.w	r3, [r7, #128]	; 0x80
 8002b74:	f8d7 3080 	ldr.w	r3, [r7, #128]	; 0x80
 8002b78:	fa93 f3a3 	rbit	r3, r3
 8002b7c:	67fb      	str	r3, [r7, #124]	; 0x7c
 8002b7e:	6ffb      	ldr	r3, [r7, #124]	; 0x7c
 8002b80:	f8c7 3084 	str.w	r3, [r7, #132]	; 0x84
 8002b84:	f8d7 3084 	ldr.w	r3, [r7, #132]	; 0x84
 8002b88:	2b00      	cmp	r3, #0
 8002b8a:	d101      	bne.n	8002b90 <HAL_ADC_ConfigChannel+0x360>
 8002b8c:	2320      	movs	r3, #32
 8002b8e:	e004      	b.n	8002b9a <HAL_ADC_ConfigChannel+0x36a>
 8002b90:	f8d7 3084 	ldr.w	r3, [r7, #132]	; 0x84
 8002b94:	fab3 f383 	clz	r3, r3
 8002b98:	b2db      	uxtb	r3, r3
 8002b9a:	429a      	cmp	r2, r3
 8002b9c:	d106      	bne.n	8002bac <HAL_ADC_ConfigChannel+0x37c>
 8002b9e:	687b      	ldr	r3, [r7, #4]
 8002ba0:	681b      	ldr	r3, [r3, #0]
 8002ba2:	2200      	movs	r2, #0
 8002ba4:	2102      	movs	r1, #2
 8002ba6:	4618      	mov	r0, r3
 8002ba8:	f7fe ff78 	bl	8001a9c <LL_ADC_SetOffsetState>
 8002bac:	687b      	ldr	r3, [r7, #4]
 8002bae:	681b      	ldr	r3, [r3, #0]
 8002bb0:	2103      	movs	r1, #3
 8002bb2:	4618      	mov	r0, r3
 8002bb4:	f7fe ff5c 	bl	8001a70 <LL_ADC_GetOffsetChannel>
 8002bb8:	4603      	mov	r3, r0
 8002bba:	f3c3 0312 	ubfx	r3, r3, #0, #19
 8002bbe:	2b00      	cmp	r3, #0
 8002bc0:	d10a      	bne.n	8002bd8 <HAL_ADC_ConfigChannel+0x3a8>
 8002bc2:	687b      	ldr	r3, [r7, #4]
 8002bc4:	681b      	ldr	r3, [r3, #0]
 8002bc6:	2103      	movs	r1, #3
 8002bc8:	4618      	mov	r0, r3
 8002bca:	f7fe ff51 	bl	8001a70 <LL_ADC_GetOffsetChannel>
 8002bce:	4603      	mov	r3, r0
 8002bd0:	0e9b      	lsrs	r3, r3, #26
 8002bd2:	f003 021f 	and.w	r2, r3, #31
 8002bd6:	e017      	b.n	8002c08 <HAL_ADC_ConfigChannel+0x3d8>
 8002bd8:	687b      	ldr	r3, [r7, #4]
 8002bda:	681b      	ldr	r3, [r3, #0]
 8002bdc:	2103      	movs	r1, #3
 8002bde:	4618      	mov	r0, r3
 8002be0:	f7fe ff46 	bl	8001a70 <LL_ADC_GetOffsetChannel>
 8002be4:	4603      	mov	r3, r0
 8002be6:	677b      	str	r3, [r7, #116]	; 0x74
 8002be8:	6f7b      	ldr	r3, [r7, #116]	; 0x74
 8002bea:	fa93 f3a3 	rbit	r3, r3
 8002bee:	673b      	str	r3, [r7, #112]	; 0x70
 8002bf0:	6f3b      	ldr	r3, [r7, #112]	; 0x70
 8002bf2:	67bb      	str	r3, [r7, #120]	; 0x78
 8002bf4:	6fbb      	ldr	r3, [r7, #120]	; 0x78
 8002bf6:	2b00      	cmp	r3, #0
 8002bf8:	d101      	bne.n	8002bfe <HAL_ADC_ConfigChannel+0x3ce>
 8002bfa:	2320      	movs	r3, #32
 8002bfc:	e003      	b.n	8002c06 <HAL_ADC_ConfigChannel+0x3d6>
 8002bfe:	6fbb      	ldr	r3, [r7, #120]	; 0x78
 8002c00:	fab3 f383 	clz	r3, r3
 8002c04:	b2db      	uxtb	r3, r3
 8002c06:	461a      	mov	r2, r3
 8002c08:	683b      	ldr	r3, [r7, #0]
 8002c0a:	681b      	ldr	r3, [r3, #0]
 8002c0c:	f3c3 0312 	ubfx	r3, r3, #0, #19
 8002c10:	2b00      	cmp	r3, #0
 8002c12:	d105      	bne.n	8002c20 <HAL_ADC_ConfigChannel+0x3f0>
 8002c14:	683b      	ldr	r3, [r7, #0]
 8002c16:	681b      	ldr	r3, [r3, #0]
 8002c18:	0e9b      	lsrs	r3, r3, #26
 8002c1a:	f003 031f 	and.w	r3, r3, #31
 8002c1e:	e011      	b.n	8002c44 <HAL_ADC_ConfigChannel+0x414>
 8002c20:	683b      	ldr	r3, [r7, #0]
 8002c22:	681b      	ldr	r3, [r3, #0]
 8002c24:	66bb      	str	r3, [r7, #104]	; 0x68
 8002c26:	6ebb      	ldr	r3, [r7, #104]	; 0x68
 8002c28:	fa93 f3a3 	rbit	r3, r3
 8002c2c:	667b      	str	r3, [r7, #100]	; 0x64
 8002c2e:	6e7b      	ldr	r3, [r7, #100]	; 0x64
 8002c30:	66fb      	str	r3, [r7, #108]	; 0x6c
 8002c32:	6efb      	ldr	r3, [r7, #108]	; 0x6c
 8002c34:	2b00      	cmp	r3, #0
 8002c36:	d101      	bne.n	8002c3c <HAL_ADC_ConfigChannel+0x40c>
 8002c38:	2320      	movs	r3, #32
 8002c3a:	e003      	b.n	8002c44 <HAL_ADC_ConfigChannel+0x414>
 8002c3c:	6efb      	ldr	r3, [r7, #108]	; 0x6c
 8002c3e:	fab3 f383 	clz	r3, r3
 8002c42:	b2db      	uxtb	r3, r3
 8002c44:	429a      	cmp	r2, r3
 8002c46:	d106      	bne.n	8002c56 <HAL_ADC_ConfigChannel+0x426>
 8002c48:	687b      	ldr	r3, [r7, #4]
 8002c4a:	681b      	ldr	r3, [r3, #0]
 8002c4c:	2200      	movs	r2, #0
 8002c4e:	2103      	movs	r1, #3
 8002c50:	4618      	mov	r0, r3
 8002c52:	f7fe ff23 	bl	8001a9c <LL_ADC_SetOffsetState>
 8002c56:	687b      	ldr	r3, [r7, #4]
 8002c58:	681b      	ldr	r3, [r3, #0]
 8002c5a:	4618      	mov	r0, r3
 8002c5c:	f7ff f8a2 	bl	8001da4 <LL_ADC_IsEnabled>
 8002c60:	4603      	mov	r3, r0
 8002c62:	2b00      	cmp	r3, #0
 8002c64:	f040 8140 	bne.w	8002ee8 <HAL_ADC_ConfigChannel+0x6b8>
 8002c68:	687b      	ldr	r3, [r7, #4]
 8002c6a:	6818      	ldr	r0, [r3, #0]
 8002c6c:	683b      	ldr	r3, [r7, #0]
 8002c6e:	6819      	ldr	r1, [r3, #0]
 8002c70:	683b      	ldr	r3, [r7, #0]
 8002c72:	68db      	ldr	r3, [r3, #12]
 8002c74:	461a      	mov	r2, r3
 8002c76:	f7fe fff3 	bl	8001c60 <LL_ADC_SetChannelSingleDiff>
 8002c7a:	683b      	ldr	r3, [r7, #0]
 8002c7c:	68db      	ldr	r3, [r3, #12]
 8002c7e:	4a8f      	ldr	r2, [pc, #572]	; (8002ebc <HAL_ADC_ConfigChannel+0x68c>)
 8002c80:	4293      	cmp	r3, r2
 8002c82:	f040 8131 	bne.w	8002ee8 <HAL_ADC_ConfigChannel+0x6b8>
 8002c86:	687b      	ldr	r3, [r7, #4]
 8002c88:	6818      	ldr	r0, [r3, #0]
 8002c8a:	683b      	ldr	r3, [r7, #0]
 8002c8c:	681b      	ldr	r3, [r3, #0]
 8002c8e:	f3c3 0312 	ubfx	r3, r3, #0, #19
 8002c92:	2b00      	cmp	r3, #0
 8002c94:	d10b      	bne.n	8002cae <HAL_ADC_ConfigChannel+0x47e>
 8002c96:	683b      	ldr	r3, [r7, #0]
 8002c98:	681b      	ldr	r3, [r3, #0]
 8002c9a:	0e9b      	lsrs	r3, r3, #26
 8002c9c:	3301      	adds	r3, #1
 8002c9e:	f003 031f 	and.w	r3, r3, #31
 8002ca2:	2b09      	cmp	r3, #9
 8002ca4:	bf94      	ite	ls
 8002ca6:	2301      	movls	r3, #1
 8002ca8:	2300      	movhi	r3, #0
 8002caa:	b2db      	uxtb	r3, r3
 8002cac:	e019      	b.n	8002ce2 <HAL_ADC_ConfigChannel+0x4b2>
 8002cae:	683b      	ldr	r3, [r7, #0]
 8002cb0:	681b      	ldr	r3, [r3, #0]
 8002cb2:	65fb      	str	r3, [r7, #92]	; 0x5c
 8002cb4:	6dfb      	ldr	r3, [r7, #92]	; 0x5c
 8002cb6:	fa93 f3a3 	rbit	r3, r3
 8002cba:	65bb      	str	r3, [r7, #88]	; 0x58
 8002cbc:	6dbb      	ldr	r3, [r7, #88]	; 0x58
 8002cbe:	663b      	str	r3, [r7, #96]	; 0x60
 8002cc0:	6e3b      	ldr	r3, [r7, #96]	; 0x60
 8002cc2:	2b00      	cmp	r3, #0
 8002cc4:	d101      	bne.n	8002cca <HAL_ADC_ConfigChannel+0x49a>
 8002cc6:	2320      	movs	r3, #32
 8002cc8:	e003      	b.n	8002cd2 <HAL_ADC_ConfigChannel+0x4a2>
 8002cca:	6e3b      	ldr	r3, [r7, #96]	; 0x60
 8002ccc:	fab3 f383 	clz	r3, r3
 8002cd0:	b2db      	uxtb	r3, r3
 8002cd2:	3301      	adds	r3, #1
 8002cd4:	f003 031f 	and.w	r3, r3, #31
 8002cd8:	2b09      	cmp	r3, #9
 8002cda:	bf94      	ite	ls
 8002cdc:	2301      	movls	r3, #1
 8002cde:	2300      	movhi	r3, #0
 8002ce0:	b2db      	uxtb	r3, r3
 8002ce2:	2b00      	cmp	r3, #0
 8002ce4:	d079      	beq.n	8002dda <HAL_ADC_ConfigChannel+0x5aa>
 8002ce6:	683b      	ldr	r3, [r7, #0]
 8002ce8:	681b      	ldr	r3, [r3, #0]
 8002cea:	f3c3 0312 	ubfx	r3, r3, #0, #19
 8002cee:	2b00      	cmp	r3, #0
 8002cf0:	d107      	bne.n	8002d02 <HAL_ADC_ConfigChannel+0x4d2>
 8002cf2:	683b      	ldr	r3, [r7, #0]
 8002cf4:	681b      	ldr	r3, [r3, #0]
 8002cf6:	0e9b      	lsrs	r3, r3, #26
 8002cf8:	3301      	adds	r3, #1
 8002cfa:	069b      	lsls	r3, r3, #26
 8002cfc:	f003 42f8 	and.w	r2, r3, #2080374784	; 0x7c000000
 8002d00:	e015      	b.n	8002d2e <HAL_ADC_ConfigChannel+0x4fe>
 8002d02:	683b      	ldr	r3, [r7, #0]
 8002d04:	681b      	ldr	r3, [r3, #0]
 8002d06:	653b      	str	r3, [r7, #80]	; 0x50
 8002d08:	6d3b      	ldr	r3, [r7, #80]	; 0x50
 8002d0a:	fa93 f3a3 	rbit	r3, r3
 8002d0e:	64fb      	str	r3, [r7, #76]	; 0x4c
 8002d10:	6cfb      	ldr	r3, [r7, #76]	; 0x4c
 8002d12:	657b      	str	r3, [r7, #84]	; 0x54
 8002d14:	6d7b      	ldr	r3, [r7, #84]	; 0x54
 8002d16:	2b00      	cmp	r3, #0
 8002d18:	d101      	bne.n	8002d1e <HAL_ADC_ConfigChannel+0x4ee>
 8002d1a:	2320      	movs	r3, #32
 8002d1c:	e003      	b.n	8002d26 <HAL_ADC_ConfigChannel+0x4f6>
 8002d1e:	6d7b      	ldr	r3, [r7, #84]	; 0x54
 8002d20:	fab3 f383 	clz	r3, r3
 8002d24:	b2db      	uxtb	r3, r3
 8002d26:	3301      	adds	r3, #1
 8002d28:	069b      	lsls	r3, r3, #26
 8002d2a:	f003 42f8 	and.w	r2, r3, #2080374784	; 0x7c000000
 8002d2e:	683b      	ldr	r3, [r7, #0]
 8002d30:	681b      	ldr	r3, [r3, #0]
 8002d32:	f3c3 0312 	ubfx	r3, r3, #0, #19
 8002d36:	2b00      	cmp	r3, #0
 8002d38:	d109      	bne.n	8002d4e <HAL_ADC_ConfigChannel+0x51e>
 8002d3a:	683b      	ldr	r3, [r7, #0]
 8002d3c:	681b      	ldr	r3, [r3, #0]
 8002d3e:	0e9b      	lsrs	r3, r3, #26
 8002d40:	3301      	adds	r3, #1
 8002d42:	f003 031f 	and.w	r3, r3, #31
 8002d46:	2101      	movs	r1, #1
 8002d48:	fa01 f303 	lsl.w	r3, r1, r3
 8002d4c:	e017      	b.n	8002d7e <HAL_ADC_ConfigChannel+0x54e>
 8002d4e:	683b      	ldr	r3, [r7, #0]
 8002d50:	681b      	ldr	r3, [r3, #0]
 8002d52:	647b      	str	r3, [r7, #68]	; 0x44
 8002d54:	6c7b      	ldr	r3, [r7, #68]	; 0x44
 8002d56:	fa93 f3a3 	rbit	r3, r3
 8002d5a:	643b      	str	r3, [r7, #64]	; 0x40
 8002d5c:	6c3b      	ldr	r3, [r7, #64]	; 0x40
 8002d5e:	64bb      	str	r3, [r7, #72]	; 0x48
 8002d60:	6cbb      	ldr	r3, [r7, #72]	; 0x48
 8002d62:	2b00      	cmp	r3, #0
 8002d64:	d101      	bne.n	8002d6a <HAL_ADC_ConfigChannel+0x53a>
 8002d66:	2320      	movs	r3, #32
 8002d68:	e003      	b.n	8002d72 <HAL_ADC_ConfigChannel+0x542>
 8002d6a:	6cbb      	ldr	r3, [r7, #72]	; 0x48
 8002d6c:	fab3 f383 	clz	r3, r3
 8002d70:	b2db      	uxtb	r3, r3
 8002d72:	3301      	adds	r3, #1
 8002d74:	f003 031f 	and.w	r3, r3, #31
 8002d78:	2101      	movs	r1, #1
 8002d7a:	fa01 f303 	lsl.w	r3, r1, r3
 8002d7e:	ea42 0103 	orr.w	r1, r2, r3
 8002d82:	683b      	ldr	r3, [r7, #0]
 8002d84:	681b      	ldr	r3, [r3, #0]
 8002d86:	f3c3 0312 	ubfx	r3, r3, #0, #19
 8002d8a:	2b00      	cmp	r3, #0
 8002d8c:	d10a      	bne.n	8002da4 <HAL_ADC_ConfigChannel+0x574>
 8002d8e:	683b      	ldr	r3, [r7, #0]
 8002d90:	681b      	ldr	r3, [r3, #0]
 8002d92:	0e9b      	lsrs	r3, r3, #26
 8002d94:	3301      	adds	r3, #1
 8002d96:	f003 021f 	and.w	r2, r3, #31
 8002d9a:	4613      	mov	r3, r2
 8002d9c:	005b      	lsls	r3, r3, #1
 8002d9e:	4413      	add	r3, r2
 8002da0:	051b      	lsls	r3, r3, #20
 8002da2:	e018      	b.n	8002dd6 <HAL_ADC_ConfigChannel+0x5a6>
 8002da4:	683b      	ldr	r3, [r7, #0]
 8002da6:	681b      	ldr	r3, [r3, #0]
 8002da8:	63bb      	str	r3, [r7, #56]	; 0x38
 8002daa:	6bbb      	ldr	r3, [r7, #56]	; 0x38
 8002dac:	fa93 f3a3 	rbit	r3, r3
 8002db0:	637b      	str	r3, [r7, #52]	; 0x34
 8002db2:	6b7b      	ldr	r3, [r7, #52]	; 0x34
 8002db4:	63fb      	str	r3, [r7, #60]	; 0x3c
 8002db6:	6bfb      	ldr	r3, [r7, #60]	; 0x3c
 8002db8:	2b00      	cmp	r3, #0
 8002dba:	d101      	bne.n	8002dc0 <HAL_ADC_ConfigChannel+0x590>
 8002dbc:	2320      	movs	r3, #32
 8002dbe:	e003      	b.n	8002dc8 <HAL_ADC_ConfigChannel+0x598>
 8002dc0:	6bfb      	ldr	r3, [r7, #60]	; 0x3c
 8002dc2:	fab3 f383 	clz	r3, r3
 8002dc6:	b2db      	uxtb	r3, r3
 8002dc8:	3301      	adds	r3, #1
 8002dca:	f003 021f 	and.w	r2, r3, #31
 8002dce:	4613      	mov	r3, r2
 8002dd0:	005b      	lsls	r3, r3, #1
 8002dd2:	4413      	add	r3, r2
 8002dd4:	051b      	lsls	r3, r3, #20
 8002dd6:	430b      	orrs	r3, r1
 8002dd8:	e081      	b.n	8002ede <HAL_ADC_ConfigChannel+0x6ae>
 8002dda:	683b      	ldr	r3, [r7, #0]
 8002ddc:	681b      	ldr	r3, [r3, #0]
 8002dde:	f3c3 0312 	ubfx	r3, r3, #0, #19
 8002de2:	2b00      	cmp	r3, #0
 8002de4:	d107      	bne.n	8002df6 <HAL_ADC_ConfigChannel+0x5c6>
 8002de6:	683b      	ldr	r3, [r7, #0]
 8002de8:	681b      	ldr	r3, [r3, #0]
 8002dea:	0e9b      	lsrs	r3, r3, #26
 8002dec:	3301      	adds	r3, #1
 8002dee:	069b      	lsls	r3, r3, #26
 8002df0:	f003 42f8 	and.w	r2, r3, #2080374784	; 0x7c000000
 8002df4:	e015      	b.n	8002e22 <HAL_ADC_ConfigChannel+0x5f2>
 8002df6:	683b      	ldr	r3, [r7, #0]
 8002df8:	681b      	ldr	r3, [r3, #0]
 8002dfa:	62fb      	str	r3, [r7, #44]	; 0x2c
 8002dfc:	6afb      	ldr	r3, [r7, #44]	; 0x2c
 8002dfe:	fa93 f3a3 	rbit	r3, r3
 8002e02:	62bb      	str	r3, [r7, #40]	; 0x28
 8002e04:	6abb      	ldr	r3, [r7, #40]	; 0x28
 8002e06:	633b      	str	r3, [r7, #48]	; 0x30
 8002e08:	6b3b      	ldr	r3, [r7, #48]	; 0x30
 8002e0a:	2b00      	cmp	r3, #0
 8002e0c:	d101      	bne.n	8002e12 <HAL_ADC_ConfigChannel+0x5e2>
 8002e0e:	2320      	movs	r3, #32
 8002e10:	e003      	b.n	8002e1a <HAL_ADC_ConfigChannel+0x5ea>
 8002e12:	6b3b      	ldr	r3, [r7, #48]	; 0x30
 8002e14:	fab3 f383 	clz	r3, r3
 8002e18:	b2db      	uxtb	r3, r3
 8002e1a:	3301      	adds	r3, #1
 8002e1c:	069b      	lsls	r3, r3, #26
 8002e1e:	f003 42f8 	and.w	r2, r3, #2080374784	; 0x7c000000
 8002e22:	683b      	ldr	r3, [r7, #0]
 8002e24:	681b      	ldr	r3, [r3, #0]
 8002e26:	f3c3 0312 	ubfx	r3, r3, #0, #19
 8002e2a:	2b00      	cmp	r3, #0
 8002e2c:	d109      	bne.n	8002e42 <HAL_ADC_ConfigChannel+0x612>
 8002e2e:	683b      	ldr	r3, [r7, #0]
 8002e30:	681b      	ldr	r3, [r3, #0]
 8002e32:	0e9b      	lsrs	r3, r3, #26
 8002e34:	3301      	adds	r3, #1
 8002e36:	f003 031f 	and.w	r3, r3, #31
 8002e3a:	2101      	movs	r1, #1
 8002e3c:	fa01 f303 	lsl.w	r3, r1, r3
 8002e40:	e017      	b.n	8002e72 <HAL_ADC_ConfigChannel+0x642>
 8002e42:	683b      	ldr	r3, [r7, #0]
 8002e44:	681b      	ldr	r3, [r3, #0]
 8002e46:	623b      	str	r3, [r7, #32]
 8002e48:	6a3b      	ldr	r3, [r7, #32]
 8002e4a:	fa93 f3a3 	rbit	r3, r3
 8002e4e:	61fb      	str	r3, [r7, #28]
 8002e50:	69fb      	ldr	r3, [r7, #28]
 8002e52:	627b      	str	r3, [r7, #36]	; 0x24
 8002e54:	6a7b      	ldr	r3, [r7, #36]	; 0x24
 8002e56:	2b00      	cmp	r3, #0
 8002e58:	d101      	bne.n	8002e5e <HAL_ADC_ConfigChannel+0x62e>
 8002e5a:	2320      	movs	r3, #32
 8002e5c:	e003      	b.n	8002e66 <HAL_ADC_ConfigChannel+0x636>
 8002e5e:	6a7b      	ldr	r3, [r7, #36]	; 0x24
 8002e60:	fab3 f383 	clz	r3, r3
 8002e64:	b2db      	uxtb	r3, r3
 8002e66:	3301      	adds	r3, #1
 8002e68:	f003 031f 	and.w	r3, r3, #31
 8002e6c:	2101      	movs	r1, #1
 8002e6e:	fa01 f303 	lsl.w	r3, r1, r3
 8002e72:	ea42 0103 	orr.w	r1, r2, r3
 8002e76:	683b      	ldr	r3, [r7, #0]
 8002e78:	681b      	ldr	r3, [r3, #0]
 8002e7a:	f3c3 0312 	ubfx	r3, r3, #0, #19
 8002e7e:	2b00      	cmp	r3, #0
 8002e80:	d10d      	bne.n	8002e9e <HAL_ADC_ConfigChannel+0x66e>
 8002e82:	683b      	ldr	r3, [r7, #0]
 8002e84:	681b      	ldr	r3, [r3, #0]
 8002e86:	0e9b      	lsrs	r3, r3, #26
 8002e88:	3301      	adds	r3, #1
 8002e8a:	f003 021f 	and.w	r2, r3, #31
 8002e8e:	4613      	mov	r3, r2
 8002e90:	005b      	lsls	r3, r3, #1
 8002e92:	4413      	add	r3, r2
 8002e94:	3b1e      	subs	r3, #30
 8002e96:	051b      	lsls	r3, r3, #20
 8002e98:	f043 7300 	orr.w	r3, r3, #33554432	; 0x2000000
 8002e9c:	e01e      	b.n	8002edc <HAL_ADC_ConfigChannel+0x6ac>
 8002e9e:	683b      	ldr	r3, [r7, #0]
 8002ea0:	681b      	ldr	r3, [r3, #0]
 8002ea2:	617b      	str	r3, [r7, #20]
 8002ea4:	697b      	ldr	r3, [r7, #20]
 8002ea6:	fa93 f3a3 	rbit	r3, r3
 8002eaa:	613b      	str	r3, [r7, #16]
 8002eac:	693b      	ldr	r3, [r7, #16]
 8002eae:	61bb      	str	r3, [r7, #24]
 8002eb0:	69bb      	ldr	r3, [r7, #24]
 8002eb2:	2b00      	cmp	r3, #0
 8002eb4:	d104      	bne.n	8002ec0 <HAL_ADC_ConfigChannel+0x690>
 8002eb6:	2320      	movs	r3, #32
 8002eb8:	e006      	b.n	8002ec8 <HAL_ADC_ConfigChannel+0x698>
 8002eba:	bf00      	nop
 8002ebc:	407f0000 	.word	0x407f0000
 8002ec0:	69bb      	ldr	r3, [r7, #24]
 8002ec2:	fab3 f383 	clz	r3, r3
 8002ec6:	b2db      	uxtb	r3, r3
 8002ec8:	3301      	adds	r3, #1
 8002eca:	f003 021f 	and.w	r2, r3, #31
 8002ece:	4613      	mov	r3, r2
 8002ed0:	005b      	lsls	r3, r3, #1
 8002ed2:	4413      	add	r3, r2
 8002ed4:	3b1e      	subs	r3, #30
 8002ed6:	051b      	lsls	r3, r3, #20
 8002ed8:	f043 7300 	orr.w	r3, r3, #33554432	; 0x2000000
 8002edc:	430b      	orrs	r3, r1
 8002ede:	683a      	ldr	r2, [r7, #0]
 8002ee0:	6892      	ldr	r2, [r2, #8]
 8002ee2:	4619      	mov	r1, r3
 8002ee4:	f7fe fe90 	bl	8001c08 <LL_ADC_SetChannelSamplingTime>
 8002ee8:	683b      	ldr	r3, [r7, #0]
 8002eea:	681a      	ldr	r2, [r3, #0]
 8002eec:	4b3f      	ldr	r3, [pc, #252]	; (8002fec <HAL_ADC_ConfigChannel+0x7bc>)
 8002eee:	4013      	ands	r3, r2
 8002ef0:	2b00      	cmp	r3, #0
 8002ef2:	d071      	beq.n	8002fd8 <HAL_ADC_ConfigChannel+0x7a8>
 8002ef4:	483e      	ldr	r0, [pc, #248]	; (8002ff0 <HAL_ADC_ConfigChannel+0x7c0>)
 8002ef6:	f7fe fd89 	bl	8001a0c <LL_ADC_GetCommonPathInternalCh>
 8002efa:	f8c7 00c4 	str.w	r0, [r7, #196]	; 0xc4
 8002efe:	683b      	ldr	r3, [r7, #0]
 8002f00:	681b      	ldr	r3, [r3, #0]
 8002f02:	4a3c      	ldr	r2, [pc, #240]	; (8002ff4 <HAL_ADC_ConfigChannel+0x7c4>)
 8002f04:	4293      	cmp	r3, r2
 8002f06:	d004      	beq.n	8002f12 <HAL_ADC_ConfigChannel+0x6e2>
 8002f08:	683b      	ldr	r3, [r7, #0]
 8002f0a:	681b      	ldr	r3, [r3, #0]
 8002f0c:	4a3a      	ldr	r2, [pc, #232]	; (8002ff8 <HAL_ADC_ConfigChannel+0x7c8>)
 8002f0e:	4293      	cmp	r3, r2
 8002f10:	d127      	bne.n	8002f62 <HAL_ADC_ConfigChannel+0x732>
 8002f12:	f8d7 30c4 	ldr.w	r3, [r7, #196]	; 0xc4
 8002f16:	f403 0300 	and.w	r3, r3, #8388608	; 0x800000
 8002f1a:	2b00      	cmp	r3, #0
 8002f1c:	d121      	bne.n	8002f62 <HAL_ADC_ConfigChannel+0x732>
 8002f1e:	687b      	ldr	r3, [r7, #4]
 8002f20:	681b      	ldr	r3, [r3, #0]
 8002f22:	f1b3 4fa0 	cmp.w	r3, #1342177280	; 0x50000000
 8002f26:	d157      	bne.n	8002fd8 <HAL_ADC_ConfigChannel+0x7a8>
 8002f28:	f8d7 30c4 	ldr.w	r3, [r7, #196]	; 0xc4
 8002f2c:	f443 0300 	orr.w	r3, r3, #8388608	; 0x800000
 8002f30:	4619      	mov	r1, r3
 8002f32:	482f      	ldr	r0, [pc, #188]	; (8002ff0 <HAL_ADC_ConfigChannel+0x7c0>)
 8002f34:	f7fe fd57 	bl	80019e6 <LL_ADC_SetCommonPathInternalCh>
 8002f38:	4b30      	ldr	r3, [pc, #192]	; (8002ffc <HAL_ADC_ConfigChannel+0x7cc>)
 8002f3a:	681b      	ldr	r3, [r3, #0]
 8002f3c:	099b      	lsrs	r3, r3, #6
 8002f3e:	4a30      	ldr	r2, [pc, #192]	; (8003000 <HAL_ADC_ConfigChannel+0x7d0>)
 8002f40:	fba2 2303 	umull	r2, r3, r2, r3
 8002f44:	099b      	lsrs	r3, r3, #6
 8002f46:	1c5a      	adds	r2, r3, #1
 8002f48:	4613      	mov	r3, r2
 8002f4a:	005b      	lsls	r3, r3, #1
 8002f4c:	4413      	add	r3, r2
 8002f4e:	009b      	lsls	r3, r3, #2
 8002f50:	60fb      	str	r3, [r7, #12]
 8002f52:	e002      	b.n	8002f5a <HAL_ADC_ConfigChannel+0x72a>
 8002f54:	68fb      	ldr	r3, [r7, #12]
 8002f56:	3b01      	subs	r3, #1
 8002f58:	60fb      	str	r3, [r7, #12]
 8002f5a:	68fb      	ldr	r3, [r7, #12]
 8002f5c:	2b00      	cmp	r3, #0
 8002f5e:	d1f9      	bne.n	8002f54 <HAL_ADC_ConfigChannel+0x724>
 8002f60:	e03a      	b.n	8002fd8 <HAL_ADC_ConfigChannel+0x7a8>
 8002f62:	683b      	ldr	r3, [r7, #0]
 8002f64:	681b      	ldr	r3, [r3, #0]
 8002f66:	4a27      	ldr	r2, [pc, #156]	; (8003004 <HAL_ADC_ConfigChannel+0x7d4>)
 8002f68:	4293      	cmp	r3, r2
 8002f6a:	d113      	bne.n	8002f94 <HAL_ADC_ConfigChannel+0x764>
 8002f6c:	f8d7 30c4 	ldr.w	r3, [r7, #196]	; 0xc4
 8002f70:	f003 7380 	and.w	r3, r3, #16777216	; 0x1000000
 8002f74:	2b00      	cmp	r3, #0
 8002f76:	d10d      	bne.n	8002f94 <HAL_ADC_ConfigChannel+0x764>
 8002f78:	687b      	ldr	r3, [r7, #4]
 8002f7a:	681b      	ldr	r3, [r3, #0]
 8002f7c:	4a22      	ldr	r2, [pc, #136]	; (8003008 <HAL_ADC_ConfigChannel+0x7d8>)
 8002f7e:	4293      	cmp	r3, r2
 8002f80:	d02a      	beq.n	8002fd8 <HAL_ADC_ConfigChannel+0x7a8>
 8002f82:	f8d7 30c4 	ldr.w	r3, [r7, #196]	; 0xc4
 8002f86:	f043 7380 	orr.w	r3, r3, #16777216	; 0x1000000
 8002f8a:	4619      	mov	r1, r3
 8002f8c:	4818      	ldr	r0, [pc, #96]	; (8002ff0 <HAL_ADC_ConfigChannel+0x7c0>)
 8002f8e:	f7fe fd2a 	bl	80019e6 <LL_ADC_SetCommonPathInternalCh>
 8002f92:	e021      	b.n	8002fd8 <HAL_ADC_ConfigChannel+0x7a8>
 8002f94:	683b      	ldr	r3, [r7, #0]
 8002f96:	681b      	ldr	r3, [r3, #0]
 8002f98:	4a1c      	ldr	r2, [pc, #112]	; (800300c <HAL_ADC_ConfigChannel+0x7dc>)
 8002f9a:	4293      	cmp	r3, r2
 8002f9c:	d11c      	bne.n	8002fd8 <HAL_ADC_ConfigChannel+0x7a8>
 8002f9e:	f8d7 30c4 	ldr.w	r3, [r7, #196]	; 0xc4
 8002fa2:	f403 0380 	and.w	r3, r3, #4194304	; 0x400000
 8002fa6:	2b00      	cmp	r3, #0
 8002fa8:	d116      	bne.n	8002fd8 <HAL_ADC_ConfigChannel+0x7a8>
 8002faa:	687b      	ldr	r3, [r7, #4]
 8002fac:	681b      	ldr	r3, [r3, #0]
 8002fae:	4a16      	ldr	r2, [pc, #88]	; (8003008 <HAL_ADC_ConfigChannel+0x7d8>)
 8002fb0:	4293      	cmp	r3, r2
 8002fb2:	d011      	beq.n	8002fd8 <HAL_ADC_ConfigChannel+0x7a8>
 8002fb4:	f8d7 30c4 	ldr.w	r3, [r7, #196]	; 0xc4
 8002fb8:	f443 0380 	orr.w	r3, r3, #4194304	; 0x400000
 8002fbc:	4619      	mov	r1, r3
 8002fbe:	480c      	ldr	r0, [pc, #48]	; (8002ff0 <HAL_ADC_ConfigChannel+0x7c0>)
 8002fc0:	f7fe fd11 	bl	80019e6 <LL_ADC_SetCommonPathInternalCh>
 8002fc4:	e008      	b.n	8002fd8 <HAL_ADC_ConfigChannel+0x7a8>
 8002fc6:	687b      	ldr	r3, [r7, #4]
 8002fc8:	6ddb      	ldr	r3, [r3, #92]	; 0x5c
 8002fca:	f043 0220 	orr.w	r2, r3, #32
 8002fce:	687b      	ldr	r3, [r7, #4]
 8002fd0:	65da      	str	r2, [r3, #92]	; 0x5c
 8002fd2:	2301      	movs	r3, #1
 8002fd4:	f887 30d7 	strb.w	r3, [r7, #215]	; 0xd7
 8002fd8:	687b      	ldr	r3, [r7, #4]
 8002fda:	2200      	movs	r2, #0
 8002fdc:	f883 2058 	strb.w	r2, [r3, #88]	; 0x58
 8002fe0:	f897 30d7 	ldrb.w	r3, [r7, #215]	; 0xd7
 8002fe4:	4618      	mov	r0, r3
 8002fe6:	37d8      	adds	r7, #216	; 0xd8
 8002fe8:	46bd      	mov	sp, r7
 8002fea:	bd80      	pop	{r7, pc}
 8002fec:	80080000 	.word	0x80080000
 8002ff0:	50000300 	.word	0x50000300
 8002ff4:	c3210000 	.word	0xc3210000
 8002ff8:	90c00010 	.word	0x90c00010
 8002ffc:	2000200c 	.word	0x2000200c
 8003000:	053e2d63 	.word	0x053e2d63
 8003004:	c7520000 	.word	0xc7520000
 8003008:	50000100 	.word	0x50000100
 800300c:	cb840000 	.word	0xcb840000

08003010 <ADC_Enable>:
 8003010:	b580      	push	{r7, lr}
 8003012:	b084      	sub	sp, #16
 8003014:	af00      	add	r7, sp, #0
 8003016:	6078      	str	r0, [r7, #4]
 8003018:	687b      	ldr	r3, [r7, #4]
 800301a:	681b      	ldr	r3, [r3, #0]
 800301c:	4618      	mov	r0, r3
 800301e:	f7fe fec1 	bl	8001da4 <LL_ADC_IsEnabled>
 8003022:	4603      	mov	r3, r0
 8003024:	2b00      	cmp	r3, #0
 8003026:	d14d      	bne.n	80030c4 <ADC_Enable+0xb4>
 8003028:	687b      	ldr	r3, [r7, #4]
 800302a:	681b      	ldr	r3, [r3, #0]
 800302c:	689a      	ldr	r2, [r3, #8]
 800302e:	4b28      	ldr	r3, [pc, #160]	; (80030d0 <ADC_Enable+0xc0>)
 8003030:	4013      	ands	r3, r2
 8003032:	2b00      	cmp	r3, #0
 8003034:	d00d      	beq.n	8003052 <ADC_Enable+0x42>
 8003036:	687b      	ldr	r3, [r7, #4]
 8003038:	6ddb      	ldr	r3, [r3, #92]	; 0x5c
 800303a:	f043 0210 	orr.w	r2, r3, #16
 800303e:	687b      	ldr	r3, [r7, #4]
 8003040:	65da      	str	r2, [r3, #92]	; 0x5c
 8003042:	687b      	ldr	r3, [r7, #4]
 8003044:	6e1b      	ldr	r3, [r3, #96]	; 0x60
 8003046:	f043 0201 	orr.w	r2, r3, #1
 800304a:	687b      	ldr	r3, [r7, #4]
 800304c:	661a      	str	r2, [r3, #96]	; 0x60
 800304e:	2301      	movs	r3, #1
 8003050:	e039      	b.n	80030c6 <ADC_Enable+0xb6>
 8003052:	687b      	ldr	r3, [r7, #4]
 8003054:	681b      	ldr	r3, [r3, #0]
 8003056:	4618      	mov	r0, r3
 8003058:	f7fe fe90 	bl	8001d7c <LL_ADC_Enable>
 800305c:	f7fe fc82 	bl	8001964 <HAL_GetTick>
 8003060:	60f8      	str	r0, [r7, #12]
 8003062:	e028      	b.n	80030b6 <ADC_Enable+0xa6>
 8003064:	687b      	ldr	r3, [r7, #4]
 8003066:	681b      	ldr	r3, [r3, #0]
 8003068:	4618      	mov	r0, r3
 800306a:	f7fe fe9b 	bl	8001da4 <LL_ADC_IsEnabled>
 800306e:	4603      	mov	r3, r0
 8003070:	2b00      	cmp	r3, #0
 8003072:	d104      	bne.n	800307e <ADC_Enable+0x6e>
 8003074:	687b      	ldr	r3, [r7, #4]
 8003076:	681b      	ldr	r3, [r3, #0]
 8003078:	4618      	mov	r0, r3
 800307a:	f7fe fe7f 	bl	8001d7c <LL_ADC_Enable>
 800307e:	f7fe fc71 	bl	8001964 <HAL_GetTick>
 8003082:	4602      	mov	r2, r0
 8003084:	68fb      	ldr	r3, [r7, #12]
 8003086:	1ad3      	subs	r3, r2, r3
 8003088:	2b02      	cmp	r3, #2
 800308a:	d914      	bls.n	80030b6 <ADC_Enable+0xa6>
 800308c:	687b      	ldr	r3, [r7, #4]
 800308e:	681b      	ldr	r3, [r3, #0]
 8003090:	681b      	ldr	r3, [r3, #0]
 8003092:	f003 0301 	and.w	r3, r3, #1
 8003096:	2b01      	cmp	r3, #1
 8003098:	d00d      	beq.n	80030b6 <ADC_Enable+0xa6>
 800309a:	687b      	ldr	r3, [r7, #4]
 800309c:	6ddb      	ldr	r3, [r3, #92]	; 0x5c
 800309e:	f043 0210 	orr.w	r2, r3, #16
 80030a2:	687b      	ldr	r3, [r7, #4]
 80030a4:	65da      	str	r2, [r3, #92]	; 0x5c
 80030a6:	687b      	ldr	r3, [r7, #4]
 80030a8:	6e1b      	ldr	r3, [r3, #96]	; 0x60
 80030aa:	f043 0201 	orr.w	r2, r3, #1
 80030ae:	687b      	ldr	r3, [r7, #4]
 80030b0:	661a      	str	r2, [r3, #96]	; 0x60
 80030b2:	2301      	movs	r3, #1
 80030b4:	e007      	b.n	80030c6 <ADC_Enable+0xb6>
 80030b6:	687b      	ldr	r3, [r7, #4]
 80030b8:	681b      	ldr	r3, [r3, #0]
 80030ba:	681b      	ldr	r3, [r3, #0]
 80030bc:	f003 0301 	and.w	r3, r3, #1
 80030c0:	2b01      	cmp	r3, #1
 80030c2:	d1cf      	bne.n	8003064 <ADC_Enable+0x54>
 80030c4:	2300      	movs	r3, #0
 80030c6:	4618      	mov	r0, r3
 80030c8:	3710      	adds	r7, #16
 80030ca:	46bd      	mov	sp, r7
 80030cc:	bd80      	pop	{r7, pc}
 80030ce:	bf00      	nop
 80030d0:	8000003f 	.word	0x8000003f

080030d4 <LL_ADC_IsEnabled>:
 80030d4:	b480      	push	{r7}
 80030d6:	b083      	sub	sp, #12
 80030d8:	af00      	add	r7, sp, #0
 80030da:	6078      	str	r0, [r7, #4]
 80030dc:	687b      	ldr	r3, [r7, #4]
 80030de:	689b      	ldr	r3, [r3, #8]
 80030e0:	f003 0301 	and.w	r3, r3, #1
 80030e4:	2b01      	cmp	r3, #1
 80030e6:	d101      	bne.n	80030ec <LL_ADC_IsEnabled+0x18>
 80030e8:	2301      	movs	r3, #1
 80030ea:	e000      	b.n	80030ee <LL_ADC_IsEnabled+0x1a>
 80030ec:	2300      	movs	r3, #0
 80030ee:	4618      	mov	r0, r3
 80030f0:	370c      	adds	r7, #12
 80030f2:	46bd      	mov	sp, r7
 80030f4:	f85d 7b04 	ldr.w	r7, [sp], #4
 80030f8:	4770      	bx	lr

080030fa <LL_ADC_REG_IsConversionOngoing>:
 80030fa:	b480      	push	{r7}
 80030fc:	b083      	sub	sp, #12
 80030fe:	af00      	add	r7, sp, #0
 8003100:	6078      	str	r0, [r7, #4]
 8003102:	687b      	ldr	r3, [r7, #4]
 8003104:	689b      	ldr	r3, [r3, #8]
 8003106:	f003 0304 	and.w	r3, r3, #4
 800310a:	2b04      	cmp	r3, #4
 800310c:	d101      	bne.n	8003112 <LL_ADC_REG_IsConversionOngoing+0x18>
 800310e:	2301      	movs	r3, #1
 8003110:	e000      	b.n	8003114 <LL_ADC_REG_IsConversionOngoing+0x1a>
 8003112:	2300      	movs	r3, #0
 8003114:	4618      	mov	r0, r3
 8003116:	370c      	adds	r7, #12
 8003118:	46bd      	mov	sp, r7
 800311a:	f85d 7b04 	ldr.w	r7, [sp], #4
 800311e:	4770      	bx	lr

08003120 <HAL_ADCEx_InjectedConvCpltCallback>:
 8003120:	b480      	push	{r7}
 8003122:	b083      	sub	sp, #12
 8003124:	af00      	add	r7, sp, #0
 8003126:	6078      	str	r0, [r7, #4]
 8003128:	bf00      	nop
 800312a:	370c      	adds	r7, #12
 800312c:	46bd      	mov	sp, r7
 800312e:	f85d 7b04 	ldr.w	r7, [sp], #4
 8003132:	4770      	bx	lr

08003134 <HAL_ADCEx_InjectedQueueOverflowCallback>:
 8003134:	b480      	push	{r7}
 8003136:	b083      	sub	sp, #12
 8003138:	af00      	add	r7, sp, #0
 800313a:	6078      	str	r0, [r7, #4]
 800313c:	bf00      	nop
 800313e:	370c      	adds	r7, #12
 8003140:	46bd      	mov	sp, r7
 8003142:	f85d 7b04 	ldr.w	r7, [sp], #4
 8003146:	4770      	bx	lr

08003148 <HAL_ADCEx_LevelOutOfWindow2Callback>:
 8003148:	b480      	push	{r7}
 800314a:	b083      	sub	sp, #12
 800314c:	af00      	add	r7, sp, #0
 800314e:	6078      	str	r0, [r7, #4]
 8003150:	bf00      	nop
 8003152:	370c      	adds	r7, #12
 8003154:	46bd      	mov	sp, r7
 8003156:	f85d 7b04 	ldr.w	r7, [sp], #4
 800315a:	4770      	bx	lr

0800315c <HAL_ADCEx_LevelOutOfWindow3Callback>:
 800315c:	b480      	push	{r7}
 800315e:	b083      	sub	sp, #12
 8003160:	af00      	add	r7, sp, #0
 8003162:	6078      	str	r0, [r7, #4]
 8003164:	bf00      	nop
 8003166:	370c      	adds	r7, #12
 8003168:	46bd      	mov	sp, r7
 800316a:	f85d 7b04 	ldr.w	r7, [sp], #4
 800316e:	4770      	bx	lr

08003170 <HAL_ADCEx_EndOfSamplingCallback>:
 8003170:	b480      	push	{r7}
 8003172:	b083      	sub	sp, #12
 8003174:	af00      	add	r7, sp, #0
 8003176:	6078      	str	r0, [r7, #4]
 8003178:	bf00      	nop
 800317a:	370c      	adds	r7, #12
 800317c:	46bd      	mov	sp, r7
 800317e:	f85d 7b04 	ldr.w	r7, [sp], #4
 8003182:	4770      	bx	lr

08003184 <HAL_ADCEx_MultiModeConfigChannel>:
 8003184:	b590      	push	{r4, r7, lr}
 8003186:	b0a1      	sub	sp, #132	; 0x84
 8003188:	af00      	add	r7, sp, #0
 800318a:	6078      	str	r0, [r7, #4]
 800318c:	6039      	str	r1, [r7, #0]
 800318e:	2300      	movs	r3, #0
 8003190:	f887 307f 	strb.w	r3, [r7, #127]	; 0x7f
 8003194:	687b      	ldr	r3, [r7, #4]
 8003196:	f893 3058 	ldrb.w	r3, [r3, #88]	; 0x58
 800319a:	2b01      	cmp	r3, #1
 800319c:	d101      	bne.n	80031a2 <HAL_ADCEx_MultiModeConfigChannel+0x1e>
 800319e:	2302      	movs	r3, #2
 80031a0:	e08b      	b.n	80032ba <HAL_ADCEx_MultiModeConfigChannel+0x136>
 80031a2:	687b      	ldr	r3, [r7, #4]
 80031a4:	2201      	movs	r2, #1
 80031a6:	f883 2058 	strb.w	r2, [r3, #88]	; 0x58
 80031aa:	2300      	movs	r3, #0
 80031ac:	667b      	str	r3, [r7, #100]	; 0x64
 80031ae:	2300      	movs	r3, #0
 80031b0:	66bb      	str	r3, [r7, #104]	; 0x68
 80031b2:	687b      	ldr	r3, [r7, #4]
 80031b4:	681b      	ldr	r3, [r3, #0]
 80031b6:	f1b3 4fa0 	cmp.w	r3, #1342177280	; 0x50000000
 80031ba:	d102      	bne.n	80031c2 <HAL_ADCEx_MultiModeConfigChannel+0x3e>
 80031bc:	4b41      	ldr	r3, [pc, #260]	; (80032c4 <HAL_ADCEx_MultiModeConfigChannel+0x140>)
 80031be:	60bb      	str	r3, [r7, #8]
 80031c0:	e001      	b.n	80031c6 <HAL_ADCEx_MultiModeConfigChannel+0x42>
 80031c2:	2300      	movs	r3, #0
 80031c4:	60bb      	str	r3, [r7, #8]
 80031c6:	68bb      	ldr	r3, [r7, #8]
 80031c8:	2b00      	cmp	r3, #0
 80031ca:	d10b      	bne.n	80031e4 <HAL_ADCEx_MultiModeConfigChannel+0x60>
 80031cc:	687b      	ldr	r3, [r7, #4]
 80031ce:	6ddb      	ldr	r3, [r3, #92]	; 0x5c
 80031d0:	f043 0220 	orr.w	r2, r3, #32
 80031d4:	687b      	ldr	r3, [r7, #4]
 80031d6:	65da      	str	r2, [r3, #92]	; 0x5c
 80031d8:	687b      	ldr	r3, [r7, #4]
 80031da:	2200      	movs	r2, #0
 80031dc:	f883 2058 	strb.w	r2, [r3, #88]	; 0x58
 80031e0:	2301      	movs	r3, #1
 80031e2:	e06a      	b.n	80032ba <HAL_ADCEx_MultiModeConfigChannel+0x136>
 80031e4:	68bb      	ldr	r3, [r7, #8]
 80031e6:	4618      	mov	r0, r3
 80031e8:	f7ff ff87 	bl	80030fa <LL_ADC_REG_IsConversionOngoing>
 80031ec:	67b8      	str	r0, [r7, #120]	; 0x78
 80031ee:	687b      	ldr	r3, [r7, #4]
 80031f0:	681b      	ldr	r3, [r3, #0]
 80031f2:	4618      	mov	r0, r3
 80031f4:	f7ff ff81 	bl	80030fa <LL_ADC_REG_IsConversionOngoing>
 80031f8:	4603      	mov	r3, r0
 80031fa:	2b00      	cmp	r3, #0
 80031fc:	d14c      	bne.n	8003298 <HAL_ADCEx_MultiModeConfigChannel+0x114>
 80031fe:	6fbb      	ldr	r3, [r7, #120]	; 0x78
 8003200:	2b00      	cmp	r3, #0
 8003202:	d149      	bne.n	8003298 <HAL_ADCEx_MultiModeConfigChannel+0x114>
 8003204:	4b30      	ldr	r3, [pc, #192]	; (80032c8 <HAL_ADCEx_MultiModeConfigChannel+0x144>)
 8003206:	677b      	str	r3, [r7, #116]	; 0x74
 8003208:	683b      	ldr	r3, [r7, #0]
 800320a:	681b      	ldr	r3, [r3, #0]
 800320c:	2b00      	cmp	r3, #0
 800320e:	d028      	beq.n	8003262 <HAL_ADCEx_MultiModeConfigChannel+0xde>
 8003210:	6f7b      	ldr	r3, [r7, #116]	; 0x74
 8003212:	689b      	ldr	r3, [r3, #8]
 8003214:	f423 4260 	bic.w	r2, r3, #57344	; 0xe000
 8003218:	683b      	ldr	r3, [r7, #0]
 800321a:	6859      	ldr	r1, [r3, #4]
 800321c:	687b      	ldr	r3, [r7, #4]
 800321e:	f893 3038 	ldrb.w	r3, [r3, #56]	; 0x38
 8003222:	035b      	lsls	r3, r3, #13
 8003224:	430b      	orrs	r3, r1
 8003226:	431a      	orrs	r2, r3
 8003228:	6f7b      	ldr	r3, [r7, #116]	; 0x74
 800322a:	609a      	str	r2, [r3, #8]
 800322c:	f04f 40a0 	mov.w	r0, #1342177280	; 0x50000000
 8003230:	f7ff ff50 	bl	80030d4 <LL_ADC_IsEnabled>
 8003234:	4604      	mov	r4, r0
 8003236:	4823      	ldr	r0, [pc, #140]	; (80032c4 <HAL_ADCEx_MultiModeConfigChannel+0x140>)
 8003238:	f7ff ff4c 	bl	80030d4 <LL_ADC_IsEnabled>
 800323c:	4603      	mov	r3, r0
 800323e:	4323      	orrs	r3, r4
 8003240:	2b00      	cmp	r3, #0
 8003242:	d133      	bne.n	80032ac <HAL_ADCEx_MultiModeConfigChannel+0x128>
 8003244:	6f7b      	ldr	r3, [r7, #116]	; 0x74
 8003246:	689b      	ldr	r3, [r3, #8]
 8003248:	f423 6371 	bic.w	r3, r3, #3856	; 0xf10
 800324c:	f023 030f 	bic.w	r3, r3, #15
 8003250:	683a      	ldr	r2, [r7, #0]
 8003252:	6811      	ldr	r1, [r2, #0]
 8003254:	683a      	ldr	r2, [r7, #0]
 8003256:	6892      	ldr	r2, [r2, #8]
 8003258:	430a      	orrs	r2, r1
 800325a:	431a      	orrs	r2, r3
 800325c:	6f7b      	ldr	r3, [r7, #116]	; 0x74
 800325e:	609a      	str	r2, [r3, #8]
 8003260:	e024      	b.n	80032ac <HAL_ADCEx_MultiModeConfigChannel+0x128>
 8003262:	6f7b      	ldr	r3, [r7, #116]	; 0x74
 8003264:	689b      	ldr	r3, [r3, #8]
 8003266:	f423 4260 	bic.w	r2, r3, #57344	; 0xe000
 800326a:	6f7b      	ldr	r3, [r7, #116]	; 0x74
 800326c:	609a      	str	r2, [r3, #8]
 800326e:	f04f 40a0 	mov.w	r0, #1342177280	; 0x50000000
 8003272:	f7ff ff2f 	bl	80030d4 <LL_ADC_IsEnabled>
 8003276:	4604      	mov	r4, r0
 8003278:	4812      	ldr	r0, [pc, #72]	; (80032c4 <HAL_ADCEx_MultiModeConfigChannel+0x140>)
 800327a:	f7ff ff2b 	bl	80030d4 <LL_ADC_IsEnabled>
 800327e:	4603      	mov	r3, r0
 8003280:	4323      	orrs	r3, r4
 8003282:	2b00      	cmp	r3, #0
 8003284:	d112      	bne.n	80032ac <HAL_ADCEx_MultiModeConfigChannel+0x128>
 8003286:	6f7b      	ldr	r3, [r7, #116]	; 0x74
 8003288:	689b      	ldr	r3, [r3, #8]
 800328a:	f423 6371 	bic.w	r3, r3, #3856	; 0xf10
 800328e:	f023 030f 	bic.w	r3, r3, #15
 8003292:	6f7a      	ldr	r2, [r7, #116]	; 0x74
 8003294:	6093      	str	r3, [r2, #8]
 8003296:	e009      	b.n	80032ac <HAL_ADCEx_MultiModeConfigChannel+0x128>
 8003298:	687b      	ldr	r3, [r7, #4]
 800329a:	6ddb      	ldr	r3, [r3, #92]	; 0x5c
 800329c:	f043 0220 	orr.w	r2, r3, #32
 80032a0:	687b      	ldr	r3, [r7, #4]
 80032a2:	65da      	str	r2, [r3, #92]	; 0x5c
 80032a4:	2301      	movs	r3, #1
 80032a6:	f887 307f 	strb.w	r3, [r7, #127]	; 0x7f
 80032aa:	e000      	b.n	80032ae <HAL_ADCEx_MultiModeConfigChannel+0x12a>
 80032ac:	bf00      	nop
 80032ae:	687b      	ldr	r3, [r7, #4]
 80032b0:	2200      	movs	r2, #0
 80032b2:	f883 2058 	strb.w	r2, [r3, #88]	; 0x58
 80032b6:	f897 307f 	ldrb.w	r3, [r7, #127]	; 0x7f
 80032ba:	4618      	mov	r0, r3
 80032bc:	3784      	adds	r7, #132	; 0x84
 80032be:	46bd      	mov	sp, r7
 80032c0:	bd90      	pop	{r4, r7, pc}
 80032c2:	bf00      	nop
 80032c4:	50000100 	.word	0x50000100
 80032c8:	50000300 	.word	0x50000300

080032cc <__NVIC_SetPriorityGrouping>:
 80032cc:	b480      	push	{r7}
 80032ce:	b085      	sub	sp, #20
 80032d0:	af00      	add	r7, sp, #0
 80032d2:	6078      	str	r0, [r7, #4]
 80032d4:	687b      	ldr	r3, [r7, #4]
 80032d6:	f003 0307 	and.w	r3, r3, #7
 80032da:	60fb      	str	r3, [r7, #12]
 80032dc:	4b0c      	ldr	r3, [pc, #48]	; (8003310 <__NVIC_SetPriorityGrouping+0x44>)
 80032de:	68db      	ldr	r3, [r3, #12]
 80032e0:	60bb      	str	r3, [r7, #8]
 80032e2:	68ba      	ldr	r2, [r7, #8]
 80032e4:	f64f 03ff 	movw	r3, #63743	; 0xf8ff
 80032e8:	4013      	ands	r3, r2
 80032ea:	60bb      	str	r3, [r7, #8]
 80032ec:	68fb      	ldr	r3, [r7, #12]
 80032ee:	021a      	lsls	r2, r3, #8
 80032f0:	68bb      	ldr	r3, [r7, #8]
 80032f2:	4313      	orrs	r3, r2
 80032f4:	f043 63bf 	orr.w	r3, r3, #100139008	; 0x5f80000
 80032f8:	f443 3300 	orr.w	r3, r3, #131072	; 0x20000
 80032fc:	60bb      	str	r3, [r7, #8]
 80032fe:	4a04      	ldr	r2, [pc, #16]	; (8003310 <__NVIC_SetPriorityGrouping+0x44>)
 8003300:	68bb      	ldr	r3, [r7, #8]
 8003302:	60d3      	str	r3, [r2, #12]
 8003304:	bf00      	nop
 8003306:	3714      	adds	r7, #20
 8003308:	46bd      	mov	sp, r7
 800330a:	f85d 7b04 	ldr.w	r7, [sp], #4
 800330e:	4770      	bx	lr
 8003310:	e000ed00 	.word	0xe000ed00

08003314 <__NVIC_GetPriorityGrouping>:
 8003314:	b480      	push	{r7}
 8003316:	af00      	add	r7, sp, #0
 8003318:	4b04      	ldr	r3, [pc, #16]	; (800332c <__NVIC_GetPriorityGrouping+0x18>)
 800331a:	68db      	ldr	r3, [r3, #12]
 800331c:	0a1b      	lsrs	r3, r3, #8
 800331e:	f003 0307 	and.w	r3, r3, #7
 8003322:	4618      	mov	r0, r3
 8003324:	46bd      	mov	sp, r7
 8003326:	f85d 7b04 	ldr.w	r7, [sp], #4
 800332a:	4770      	bx	lr
 800332c:	e000ed00 	.word	0xe000ed00

08003330 <__NVIC_EnableIRQ>:
 8003330:	b480      	push	{r7}
 8003332:	b083      	sub	sp, #12
 8003334:	af00      	add	r7, sp, #0
 8003336:	4603      	mov	r3, r0
 8003338:	71fb      	strb	r3, [r7, #7]
 800333a:	f997 3007 	ldrsb.w	r3, [r7, #7]
 800333e:	2b00      	cmp	r3, #0
 8003340:	db0b      	blt.n	800335a <__NVIC_EnableIRQ+0x2a>
 8003342:	79fb      	ldrb	r3, [r7, #7]
 8003344:	f003 021f 	and.w	r2, r3, #31
 8003348:	4907      	ldr	r1, [pc, #28]	; (8003368 <__NVIC_EnableIRQ+0x38>)
 800334a:	f997 3007 	ldrsb.w	r3, [r7, #7]
 800334e:	095b      	lsrs	r3, r3, #5
 8003350:	2001      	movs	r0, #1
 8003352:	fa00 f202 	lsl.w	r2, r0, r2
 8003356:	f841 2023 	str.w	r2, [r1, r3, lsl #2]
 800335a:	bf00      	nop
 800335c:	370c      	adds	r7, #12
 800335e:	46bd      	mov	sp, r7
 8003360:	f85d 7b04 	ldr.w	r7, [sp], #4
 8003364:	4770      	bx	lr
 8003366:	bf00      	nop
 8003368:	e000e100 	.word	0xe000e100

0800336c <__NVIC_SetPriority>:
 800336c:	b480      	push	{r7}
 800336e:	b083      	sub	sp, #12
 8003370:	af00      	add	r7, sp, #0
 8003372:	4603      	mov	r3, r0
 8003374:	6039      	str	r1, [r7, #0]
 8003376:	71fb      	strb	r3, [r7, #7]
 8003378:	f997 3007 	ldrsb.w	r3, [r7, #7]
 800337c:	2b00      	cmp	r3, #0
 800337e:	db0a      	blt.n	8003396 <__NVIC_SetPriority+0x2a>
 8003380:	683b      	ldr	r3, [r7, #0]
 8003382:	b2da      	uxtb	r2, r3
 8003384:	490c      	ldr	r1, [pc, #48]	; (80033b8 <__NVIC_SetPriority+0x4c>)
 8003386:	f997 3007 	ldrsb.w	r3, [r7, #7]
 800338a:	0112      	lsls	r2, r2, #4
 800338c:	b2d2      	uxtb	r2, r2
 800338e:	440b      	add	r3, r1
 8003390:	f883 2300 	strb.w	r2, [r3, #768]	; 0x300
 8003394:	e00a      	b.n	80033ac <__NVIC_SetPriority+0x40>
 8003396:	683b      	ldr	r3, [r7, #0]
 8003398:	b2da      	uxtb	r2, r3
 800339a:	4908      	ldr	r1, [pc, #32]	; (80033bc <__NVIC_SetPriority+0x50>)
 800339c:	79fb      	ldrb	r3, [r7, #7]
 800339e:	f003 030f 	and.w	r3, r3, #15
 80033a2:	3b04      	subs	r3, #4
 80033a4:	0112      	lsls	r2, r2, #4
 80033a6:	b2d2      	uxtb	r2, r2
 80033a8:	440b      	add	r3, r1
 80033aa:	761a      	strb	r2, [r3, #24]
 80033ac:	bf00      	nop
 80033ae:	370c      	adds	r7, #12
 80033b0:	46bd      	mov	sp, r7
 80033b2:	f85d 7b04 	ldr.w	r7, [sp], #4
 80033b6:	4770      	bx	lr
 80033b8:	e000e100 	.word	0xe000e100
 80033bc:	e000ed00 	.word	0xe000ed00

080033c0 <NVIC_EncodePriority>:
 80033c0:	b480      	push	{r7}
 80033c2:	b089      	sub	sp, #36	; 0x24
 80033c4:	af00      	add	r7, sp, #0
 80033c6:	60f8      	str	r0, [r7, #12]
 80033c8:	60b9      	str	r1, [r7, #8]
 80033ca:	607a      	str	r2, [r7, #4]
 80033cc:	68fb      	ldr	r3, [r7, #12]
 80033ce:	f003 0307 	and.w	r3, r3, #7
 80033d2:	61fb      	str	r3, [r7, #28]
 80033d4:	69fb      	ldr	r3, [r7, #28]
 80033d6:	f1c3 0307 	rsb	r3, r3, #7
 80033da:	2b04      	cmp	r3, #4
 80033dc:	bf28      	it	cs
 80033de:	2304      	movcs	r3, #4
 80033e0:	61bb      	str	r3, [r7, #24]
 80033e2:	69fb      	ldr	r3, [r7, #28]
 80033e4:	3304      	adds	r3, #4
 80033e6:	2b06      	cmp	r3, #6
 80033e8:	d902      	bls.n	80033f0 <NVIC_EncodePriority+0x30>
 80033ea:	69fb      	ldr	r3, [r7, #28]
 80033ec:	3b03      	subs	r3, #3
 80033ee:	e000      	b.n	80033f2 <NVIC_EncodePriority+0x32>
 80033f0:	2300      	movs	r3, #0
 80033f2:	617b      	str	r3, [r7, #20]
 80033f4:	f04f 32ff 	mov.w	r2, #4294967295
 80033f8:	69bb      	ldr	r3, [r7, #24]
 80033fa:	fa02 f303 	lsl.w	r3, r2, r3
 80033fe:	43da      	mvns	r2, r3
 8003400:	68bb      	ldr	r3, [r7, #8]
 8003402:	401a      	ands	r2, r3
 8003404:	697b      	ldr	r3, [r7, #20]
 8003406:	409a      	lsls	r2, r3
 8003408:	f04f 31ff 	mov.w	r1, #4294967295
 800340c:	697b      	ldr	r3, [r7, #20]
 800340e:	fa01 f303 	lsl.w	r3, r1, r3
 8003412:	43d9      	mvns	r1, r3
 8003414:	687b      	ldr	r3, [r7, #4]
 8003416:	400b      	ands	r3, r1
 8003418:	4313      	orrs	r3, r2
 800341a:	4618      	mov	r0, r3
 800341c:	3724      	adds	r7, #36	; 0x24
 800341e:	46bd      	mov	sp, r7
 8003420:	f85d 7b04 	ldr.w	r7, [sp], #4
 8003424:	4770      	bx	lr
	...

08003428 <SysTick_Config>:
 8003428:	b580      	push	{r7, lr}
 800342a:	b082      	sub	sp, #8
 800342c:	af00      	add	r7, sp, #0
 800342e:	6078      	str	r0, [r7, #4]
 8003430:	687b      	ldr	r3, [r7, #4]
 8003432:	3b01      	subs	r3, #1
 8003434:	f1b3 7f80 	cmp.w	r3, #16777216	; 0x1000000
 8003438:	d301      	bcc.n	800343e <SysTick_Config+0x16>
 800343a:	2301      	movs	r3, #1
 800343c:	e00f      	b.n	800345e <SysTick_Config+0x36>
 800343e:	4a0a      	ldr	r2, [pc, #40]	; (8003468 <SysTick_Config+0x40>)
 8003440:	687b      	ldr	r3, [r7, #4]
 8003442:	3b01      	subs	r3, #1
 8003444:	6053      	str	r3, [r2, #4]
 8003446:	210f      	movs	r1, #15
 8003448:	f04f 30ff 	mov.w	r0, #4294967295
 800344c:	f7ff ff8e 	bl	800336c <__NVIC_SetPriority>
 8003450:	4b05      	ldr	r3, [pc, #20]	; (8003468 <SysTick_Config+0x40>)
 8003452:	2200      	movs	r2, #0
 8003454:	609a      	str	r2, [r3, #8]
 8003456:	4b04      	ldr	r3, [pc, #16]	; (8003468 <SysTick_Config+0x40>)
 8003458:	2207      	movs	r2, #7
 800345a:	601a      	str	r2, [r3, #0]
 800345c:	2300      	movs	r3, #0
 800345e:	4618      	mov	r0, r3
 8003460:	3708      	adds	r7, #8
 8003462:	46bd      	mov	sp, r7
 8003464:	bd80      	pop	{r7, pc}
 8003466:	bf00      	nop
 8003468:	e000e010 	.word	0xe000e010

0800346c <HAL_NVIC_SetPriorityGrouping>:
 800346c:	b580      	push	{r7, lr}
 800346e:	b082      	sub	sp, #8
 8003470:	af00      	add	r7, sp, #0
 8003472:	6078      	str	r0, [r7, #4]
 8003474:	6878      	ldr	r0, [r7, #4]
 8003476:	f7ff ff29 	bl	80032cc <__NVIC_SetPriorityGrouping>
 800347a:	bf00      	nop
 800347c:	3708      	adds	r7, #8
 800347e:	46bd      	mov	sp, r7
 8003480:	bd80      	pop	{r7, pc}

08003482 <HAL_NVIC_SetPriority>:
 8003482:	b580      	push	{r7, lr}
 8003484:	b086      	sub	sp, #24
 8003486:	af00      	add	r7, sp, #0
 8003488:	4603      	mov	r3, r0
 800348a:	60b9      	str	r1, [r7, #8]
 800348c:	607a      	str	r2, [r7, #4]
 800348e:	73fb      	strb	r3, [r7, #15]
 8003490:	f7ff ff40 	bl	8003314 <__NVIC_GetPriorityGrouping>
 8003494:	6178      	str	r0, [r7, #20]
 8003496:	687a      	ldr	r2, [r7, #4]
 8003498:	68b9      	ldr	r1, [r7, #8]
 800349a:	6978      	ldr	r0, [r7, #20]
 800349c:	f7ff ff90 	bl	80033c0 <NVIC_EncodePriority>
 80034a0:	4602      	mov	r2, r0
 80034a2:	f997 300f 	ldrsb.w	r3, [r7, #15]
 80034a6:	4611      	mov	r1, r2
 80034a8:	4618      	mov	r0, r3
 80034aa:	f7ff ff5f 	bl	800336c <__NVIC_SetPriority>
 80034ae:	bf00      	nop
 80034b0:	3718      	adds	r7, #24
 80034b2:	46bd      	mov	sp, r7
 80034b4:	bd80      	pop	{r7, pc}

080034b6 <HAL_NVIC_EnableIRQ>:
 80034b6:	b580      	push	{r7, lr}
 80034b8:	b082      	sub	sp, #8
 80034ba:	af00      	add	r7, sp, #0
 80034bc:	4603      	mov	r3, r0
 80034be:	71fb      	strb	r3, [r7, #7]
 80034c0:	f997 3007 	ldrsb.w	r3, [r7, #7]
 80034c4:	4618      	mov	r0, r3
 80034c6:	f7ff ff33 	bl	8003330 <__NVIC_EnableIRQ>
 80034ca:	bf00      	nop
 80034cc:	3708      	adds	r7, #8
 80034ce:	46bd      	mov	sp, r7
 80034d0:	bd80      	pop	{r7, pc}

080034d2 <HAL_SYSTICK_Config>:
 80034d2:	b580      	push	{r7, lr}
 80034d4:	b082      	sub	sp, #8
 80034d6:	af00      	add	r7, sp, #0
 80034d8:	6078      	str	r0, [r7, #4]
 80034da:	6878      	ldr	r0, [r7, #4]
 80034dc:	f7ff ffa4 	bl	8003428 <SysTick_Config>
 80034e0:	4603      	mov	r3, r0
 80034e2:	4618      	mov	r0, r3
 80034e4:	3708      	adds	r7, #8
 80034e6:	46bd      	mov	sp, r7
 80034e8:	bd80      	pop	{r7, pc}

080034ea <HAL_DAC_Init>:
 80034ea:	b580      	push	{r7, lr}
 80034ec:	b082      	sub	sp, #8
 80034ee:	af00      	add	r7, sp, #0
 80034f0:	6078      	str	r0, [r7, #4]
 80034f2:	687b      	ldr	r3, [r7, #4]
 80034f4:	2b00      	cmp	r3, #0
 80034f6:	d101      	bne.n	80034fc <HAL_DAC_Init+0x12>
 80034f8:	2301      	movs	r3, #1
 80034fa:	e014      	b.n	8003526 <HAL_DAC_Init+0x3c>
 80034fc:	687b      	ldr	r3, [r7, #4]
 80034fe:	791b      	ldrb	r3, [r3, #4]
 8003500:	b2db      	uxtb	r3, r3
 8003502:	2b00      	cmp	r3, #0
 8003504:	d105      	bne.n	8003512 <HAL_DAC_Init+0x28>
 8003506:	687b      	ldr	r3, [r7, #4]
 8003508:	2200      	movs	r2, #0
 800350a:	715a      	strb	r2, [r3, #5]
 800350c:	6878      	ldr	r0, [r7, #4]
 800350e:	f7fe f873 	bl	80015f8 <HAL_DAC_MspInit>
 8003512:	687b      	ldr	r3, [r7, #4]
 8003514:	2202      	movs	r2, #2
 8003516:	711a      	strb	r2, [r3, #4]
 8003518:	687b      	ldr	r3, [r7, #4]
 800351a:	2200      	movs	r2, #0
 800351c:	611a      	str	r2, [r3, #16]
 800351e:	687b      	ldr	r3, [r7, #4]
 8003520:	2201      	movs	r2, #1
 8003522:	711a      	strb	r2, [r3, #4]
 8003524:	2300      	movs	r3, #0
 8003526:	4618      	mov	r0, r3
 8003528:	3708      	adds	r7, #8
 800352a:	46bd      	mov	sp, r7
 800352c:	bd80      	pop	{r7, pc}

0800352e <HAL_DAC_Start>:
 800352e:	b580      	push	{r7, lr}
 8003530:	b082      	sub	sp, #8
 8003532:	af00      	add	r7, sp, #0
 8003534:	6078      	str	r0, [r7, #4]
 8003536:	6039      	str	r1, [r7, #0]
 8003538:	687b      	ldr	r3, [r7, #4]
 800353a:	795b      	ldrb	r3, [r3, #5]
 800353c:	2b01      	cmp	r3, #1
 800353e:	d101      	bne.n	8003544 <HAL_DAC_Start+0x16>
 8003540:	2302      	movs	r3, #2
 8003542:	e043      	b.n	80035cc <HAL_DAC_Start+0x9e>
 8003544:	687b      	ldr	r3, [r7, #4]
 8003546:	2201      	movs	r2, #1
 8003548:	715a      	strb	r2, [r3, #5]
 800354a:	687b      	ldr	r3, [r7, #4]
 800354c:	2202      	movs	r2, #2
 800354e:	711a      	strb	r2, [r3, #4]
 8003550:	687b      	ldr	r3, [r7, #4]
 8003552:	681b      	ldr	r3, [r3, #0]
 8003554:	6819      	ldr	r1, [r3, #0]
 8003556:	683b      	ldr	r3, [r7, #0]
 8003558:	f003 0310 	and.w	r3, r3, #16
 800355c:	2201      	movs	r2, #1
 800355e:	409a      	lsls	r2, r3
 8003560:	687b      	ldr	r3, [r7, #4]
 8003562:	681b      	ldr	r3, [r3, #0]
 8003564:	430a      	orrs	r2, r1
 8003566:	601a      	str	r2, [r3, #0]
 8003568:	2001      	movs	r0, #1
 800356a:	f7fe fa07 	bl	800197c <HAL_Delay>
 800356e:	683b      	ldr	r3, [r7, #0]
 8003570:	2b00      	cmp	r3, #0
 8003572:	d10f      	bne.n	8003594 <HAL_DAC_Start+0x66>
 8003574:	687b      	ldr	r3, [r7, #4]
 8003576:	681b      	ldr	r3, [r3, #0]
 8003578:	681b      	ldr	r3, [r3, #0]
 800357a:	f003 033e 	and.w	r3, r3, #62	; 0x3e
 800357e:	2b02      	cmp	r3, #2
 8003580:	d11d      	bne.n	80035be <HAL_DAC_Start+0x90>
 8003582:	687b      	ldr	r3, [r7, #4]
 8003584:	681b      	ldr	r3, [r3, #0]
 8003586:	685a      	ldr	r2, [r3, #4]
 8003588:	687b      	ldr	r3, [r7, #4]
 800358a:	681b      	ldr	r3, [r3, #0]
 800358c:	f042 0201 	orr.w	r2, r2, #1
 8003590:	605a      	str	r2, [r3, #4]
 8003592:	e014      	b.n	80035be <HAL_DAC_Start+0x90>
 8003594:	687b      	ldr	r3, [r7, #4]
 8003596:	681b      	ldr	r3, [r3, #0]
 8003598:	681b      	ldr	r3, [r3, #0]
 800359a:	f403 1278 	and.w	r2, r3, #4063232	; 0x3e0000
 800359e:	683b      	ldr	r3, [r7, #0]
 80035a0:	f003 0310 	and.w	r3, r3, #16
 80035a4:	2102      	movs	r1, #2
 80035a6:	fa01 f303 	lsl.w	r3, r1, r3
 80035aa:	429a      	cmp	r2, r3
 80035ac:	d107      	bne.n	80035be <HAL_DAC_Start+0x90>
 80035ae:	687b      	ldr	r3, [r7, #4]
 80035b0:	681b      	ldr	r3, [r3, #0]
 80035b2:	685a      	ldr	r2, [r3, #4]
 80035b4:	687b      	ldr	r3, [r7, #4]
 80035b6:	681b      	ldr	r3, [r3, #0]
 80035b8:	f042 0202 	orr.w	r2, r2, #2
 80035bc:	605a      	str	r2, [r3, #4]
 80035be:	687b      	ldr	r3, [r7, #4]
 80035c0:	2201      	movs	r2, #1
 80035c2:	711a      	strb	r2, [r3, #4]
 80035c4:	687b      	ldr	r3, [r7, #4]
 80035c6:	2200      	movs	r2, #0
 80035c8:	715a      	strb	r2, [r3, #5]
 80035ca:	2300      	movs	r3, #0
 80035cc:	4618      	mov	r0, r3
 80035ce:	3708      	adds	r7, #8
 80035d0:	46bd      	mov	sp, r7
 80035d2:	bd80      	pop	{r7, pc}

080035d4 <HAL_DAC_SetValue>:
 80035d4:	b480      	push	{r7}
 80035d6:	b087      	sub	sp, #28
 80035d8:	af00      	add	r7, sp, #0
 80035da:	60f8      	str	r0, [r7, #12]
 80035dc:	60b9      	str	r1, [r7, #8]
 80035de:	607a      	str	r2, [r7, #4]
 80035e0:	603b      	str	r3, [r7, #0]
 80035e2:	2300      	movs	r3, #0
 80035e4:	617b      	str	r3, [r7, #20]
 80035e6:	68fb      	ldr	r3, [r7, #12]
 80035e8:	681b      	ldr	r3, [r3, #0]
 80035ea:	6bdb      	ldr	r3, [r3, #60]	; 0x3c
 80035ec:	68fb      	ldr	r3, [r7, #12]
 80035ee:	681b      	ldr	r3, [r3, #0]
 80035f0:	617b      	str	r3, [r7, #20]
 80035f2:	68bb      	ldr	r3, [r7, #8]
 80035f4:	2b00      	cmp	r3, #0
 80035f6:	d105      	bne.n	8003604 <HAL_DAC_SetValue+0x30>
 80035f8:	697a      	ldr	r2, [r7, #20]
 80035fa:	687b      	ldr	r3, [r7, #4]
 80035fc:	4413      	add	r3, r2
 80035fe:	3308      	adds	r3, #8
 8003600:	617b      	str	r3, [r7, #20]
 8003602:	e004      	b.n	800360e <HAL_DAC_SetValue+0x3a>
 8003604:	697a      	ldr	r2, [r7, #20]
 8003606:	687b      	ldr	r3, [r7, #4]
 8003608:	4413      	add	r3, r2
 800360a:	3314      	adds	r3, #20
 800360c:	617b      	str	r3, [r7, #20]
 800360e:	697b      	ldr	r3, [r7, #20]
 8003610:	461a      	mov	r2, r3
 8003612:	683b      	ldr	r3, [r7, #0]
 8003614:	6013      	str	r3, [r2, #0]
 8003616:	2300      	movs	r3, #0
 8003618:	4618      	mov	r0, r3
 800361a:	371c      	adds	r7, #28
 800361c:	46bd      	mov	sp, r7
 800361e:	f85d 7b04 	ldr.w	r7, [sp], #4
 8003622:	4770      	bx	lr

08003624 <HAL_DAC_ConfigChannel>:
 8003624:	b580      	push	{r7, lr}
 8003626:	b08a      	sub	sp, #40	; 0x28
 8003628:	af00      	add	r7, sp, #0
 800362a:	60f8      	str	r0, [r7, #12]
 800362c:	60b9      	str	r1, [r7, #8]
 800362e:	607a      	str	r2, [r7, #4]
 8003630:	68fb      	ldr	r3, [r7, #12]
 8003632:	795b      	ldrb	r3, [r3, #5]
 8003634:	2b01      	cmp	r3, #1
 8003636:	d101      	bne.n	800363c <HAL_DAC_ConfigChannel+0x18>
 8003638:	2302      	movs	r3, #2
 800363a:	e192      	b.n	8003962 <HAL_DAC_ConfigChannel+0x33e>
 800363c:	68fb      	ldr	r3, [r7, #12]
 800363e:	2201      	movs	r2, #1
 8003640:	715a      	strb	r2, [r3, #5]
 8003642:	68fb      	ldr	r3, [r7, #12]
 8003644:	2202      	movs	r2, #2
 8003646:	711a      	strb	r2, [r3, #4]
 8003648:	68bb      	ldr	r3, [r7, #8]
 800364a:	689b      	ldr	r3, [r3, #8]
 800364c:	2b04      	cmp	r3, #4
 800364e:	d174      	bne.n	800373a <HAL_DAC_ConfigChannel+0x116>
 8003650:	f7fe f988 	bl	8001964 <HAL_GetTick>
 8003654:	61f8      	str	r0, [r7, #28]
 8003656:	687b      	ldr	r3, [r7, #4]
 8003658:	2b00      	cmp	r3, #0
 800365a:	d134      	bne.n	80036c6 <HAL_DAC_ConfigChannel+0xa2>
 800365c:	e011      	b.n	8003682 <HAL_DAC_ConfigChannel+0x5e>
 800365e:	f7fe f981 	bl	8001964 <HAL_GetTick>
 8003662:	4602      	mov	r2, r0
 8003664:	69fb      	ldr	r3, [r7, #28]
 8003666:	1ad3      	subs	r3, r2, r3
 8003668:	2b01      	cmp	r3, #1
 800366a:	d90a      	bls.n	8003682 <HAL_DAC_ConfigChannel+0x5e>
 800366c:	68fb      	ldr	r3, [r7, #12]
 800366e:	691b      	ldr	r3, [r3, #16]
 8003670:	f043 0208 	orr.w	r2, r3, #8
 8003674:	68fb      	ldr	r3, [r7, #12]
 8003676:	611a      	str	r2, [r3, #16]
 8003678:	68fb      	ldr	r3, [r7, #12]
 800367a:	2203      	movs	r2, #3
 800367c:	711a      	strb	r2, [r3, #4]
 800367e:	2303      	movs	r3, #3
 8003680:	e16f      	b.n	8003962 <HAL_DAC_ConfigChannel+0x33e>
 8003682:	68fb      	ldr	r3, [r7, #12]
 8003684:	681b      	ldr	r3, [r3, #0]
 8003686:	6b5b      	ldr	r3, [r3, #52]	; 0x34
 8003688:	f403 4300 	and.w	r3, r3, #32768	; 0x8000
 800368c:	2b00      	cmp	r3, #0
 800368e:	d1e6      	bne.n	800365e <HAL_DAC_ConfigChannel+0x3a>
 8003690:	2001      	movs	r0, #1
 8003692:	f7fe f973 	bl	800197c <HAL_Delay>
 8003696:	68fb      	ldr	r3, [r7, #12]
 8003698:	681b      	ldr	r3, [r3, #0]
 800369a:	68ba      	ldr	r2, [r7, #8]
 800369c:	6a52      	ldr	r2, [r2, #36]	; 0x24
 800369e:	641a      	str	r2, [r3, #64]	; 0x40
 80036a0:	e01e      	b.n	80036e0 <HAL_DAC_ConfigChannel+0xbc>
 80036a2:	f7fe f95f 	bl	8001964 <HAL_GetTick>
 80036a6:	4602      	mov	r2, r0
 80036a8:	69fb      	ldr	r3, [r7, #28]
 80036aa:	1ad3      	subs	r3, r2, r3
 80036ac:	2b01      	cmp	r3, #1
 80036ae:	d90a      	bls.n	80036c6 <HAL_DAC_ConfigChannel+0xa2>
 80036b0:	68fb      	ldr	r3, [r7, #12]
 80036b2:	691b      	ldr	r3, [r3, #16]
 80036b4:	f043 0208 	orr.w	r2, r3, #8
 80036b8:	68fb      	ldr	r3, [r7, #12]
 80036ba:	611a      	str	r2, [r3, #16]
 80036bc:	68fb      	ldr	r3, [r7, #12]
 80036be:	2203      	movs	r2, #3
 80036c0:	711a      	strb	r2, [r3, #4]
 80036c2:	2303      	movs	r3, #3
 80036c4:	e14d      	b.n	8003962 <HAL_DAC_ConfigChannel+0x33e>
 80036c6:	68fb      	ldr	r3, [r7, #12]
 80036c8:	681b      	ldr	r3, [r3, #0]
 80036ca:	6b5b      	ldr	r3, [r3, #52]	; 0x34
 80036cc:	2b00      	cmp	r3, #0
 80036ce:	dbe8      	blt.n	80036a2 <HAL_DAC_ConfigChannel+0x7e>
 80036d0:	2001      	movs	r0, #1
 80036d2:	f7fe f953 	bl	800197c <HAL_Delay>
 80036d6:	68fb      	ldr	r3, [r7, #12]
 80036d8:	681b      	ldr	r3, [r3, #0]
 80036da:	68ba      	ldr	r2, [r7, #8]
 80036dc:	6a52      	ldr	r2, [r2, #36]	; 0x24
 80036de:	645a      	str	r2, [r3, #68]	; 0x44
 80036e0:	68fb      	ldr	r3, [r7, #12]
 80036e2:	681b      	ldr	r3, [r3, #0]
 80036e4:	6c9a      	ldr	r2, [r3, #72]	; 0x48
 80036e6:	687b      	ldr	r3, [r7, #4]
 80036e8:	f003 0310 	and.w	r3, r3, #16
 80036ec:	f240 31ff 	movw	r1, #1023	; 0x3ff
 80036f0:	fa01 f303 	lsl.w	r3, r1, r3
 80036f4:	43db      	mvns	r3, r3
 80036f6:	ea02 0103 	and.w	r1, r2, r3
 80036fa:	68bb      	ldr	r3, [r7, #8]
 80036fc:	6a9a      	ldr	r2, [r3, #40]	; 0x28
 80036fe:	687b      	ldr	r3, [r7, #4]
 8003700:	f003 0310 	and.w	r3, r3, #16
 8003704:	409a      	lsls	r2, r3
 8003706:	68fb      	ldr	r3, [r7, #12]
 8003708:	681b      	ldr	r3, [r3, #0]
 800370a:	430a      	orrs	r2, r1
 800370c:	649a      	str	r2, [r3, #72]	; 0x48
 800370e:	68fb      	ldr	r3, [r7, #12]
 8003710:	681b      	ldr	r3, [r3, #0]
 8003712:	6cda      	ldr	r2, [r3, #76]	; 0x4c
 8003714:	687b      	ldr	r3, [r7, #4]
 8003716:	f003 0310 	and.w	r3, r3, #16
 800371a:	21ff      	movs	r1, #255	; 0xff
 800371c:	fa01 f303 	lsl.w	r3, r1, r3
 8003720:	43db      	mvns	r3, r3
 8003722:	ea02 0103 	and.w	r1, r2, r3
 8003726:	68bb      	ldr	r3, [r7, #8]
 8003728:	6ada      	ldr	r2, [r3, #44]	; 0x2c
 800372a:	687b      	ldr	r3, [r7, #4]
 800372c:	f003 0310 	and.w	r3, r3, #16
 8003730:	409a      	lsls	r2, r3
 8003732:	68fb      	ldr	r3, [r7, #12]
 8003734:	681b      	ldr	r3, [r3, #0]
 8003736:	430a      	orrs	r2, r1
 8003738:	64da      	str	r2, [r3, #76]	; 0x4c
 800373a:	68bb      	ldr	r3, [r7, #8]
 800373c:	69db      	ldr	r3, [r3, #28]
 800373e:	2b01      	cmp	r3, #1
 8003740:	d11d      	bne.n	800377e <HAL_DAC_ConfigChannel+0x15a>
 8003742:	68fb      	ldr	r3, [r7, #12]
 8003744:	681b      	ldr	r3, [r3, #0]
 8003746:	6b9b      	ldr	r3, [r3, #56]	; 0x38
 8003748:	627b      	str	r3, [r7, #36]	; 0x24
 800374a:	687b      	ldr	r3, [r7, #4]
 800374c:	f003 0310 	and.w	r3, r3, #16
 8003750:	221f      	movs	r2, #31
 8003752:	fa02 f303 	lsl.w	r3, r2, r3
 8003756:	43db      	mvns	r3, r3
 8003758:	6a7a      	ldr	r2, [r7, #36]	; 0x24
 800375a:	4013      	ands	r3, r2
 800375c:	627b      	str	r3, [r7, #36]	; 0x24
 800375e:	68bb      	ldr	r3, [r7, #8]
 8003760:	6a1b      	ldr	r3, [r3, #32]
 8003762:	61bb      	str	r3, [r7, #24]
 8003764:	687b      	ldr	r3, [r7, #4]
 8003766:	f003 0310 	and.w	r3, r3, #16
 800376a:	69ba      	ldr	r2, [r7, #24]
 800376c:	fa02 f303 	lsl.w	r3, r2, r3
 8003770:	6a7a      	ldr	r2, [r7, #36]	; 0x24
 8003772:	4313      	orrs	r3, r2
 8003774:	627b      	str	r3, [r7, #36]	; 0x24
 8003776:	68fb      	ldr	r3, [r7, #12]
 8003778:	681b      	ldr	r3, [r3, #0]
 800377a:	6a7a      	ldr	r2, [r7, #36]	; 0x24
 800377c:	639a      	str	r2, [r3, #56]	; 0x38
 800377e:	68fb      	ldr	r3, [r7, #12]
 8003780:	681b      	ldr	r3, [r3, #0]
 8003782:	6bdb      	ldr	r3, [r3, #60]	; 0x3c
 8003784:	627b      	str	r3, [r7, #36]	; 0x24
 8003786:	687b      	ldr	r3, [r7, #4]
 8003788:	f003 0310 	and.w	r3, r3, #16
 800378c:	2207      	movs	r2, #7
 800378e:	fa02 f303 	lsl.w	r3, r2, r3
 8003792:	43db      	mvns	r3, r3
 8003794:	6a7a      	ldr	r2, [r7, #36]	; 0x24
 8003796:	4013      	ands	r3, r2
 8003798:	627b      	str	r3, [r7, #36]	; 0x24
 800379a:	68bb      	ldr	r3, [r7, #8]
 800379c:	699b      	ldr	r3, [r3, #24]
 800379e:	2b01      	cmp	r3, #1
 80037a0:	d102      	bne.n	80037a8 <HAL_DAC_ConfigChannel+0x184>
 80037a2:	2300      	movs	r3, #0
 80037a4:	623b      	str	r3, [r7, #32]
 80037a6:	e00f      	b.n	80037c8 <HAL_DAC_ConfigChannel+0x1a4>
 80037a8:	68bb      	ldr	r3, [r7, #8]
 80037aa:	699b      	ldr	r3, [r3, #24]
 80037ac:	2b02      	cmp	r3, #2
 80037ae:	d102      	bne.n	80037b6 <HAL_DAC_ConfigChannel+0x192>
 80037b0:	2301      	movs	r3, #1
 80037b2:	623b      	str	r3, [r7, #32]
 80037b4:	e008      	b.n	80037c8 <HAL_DAC_ConfigChannel+0x1a4>
 80037b6:	68bb      	ldr	r3, [r7, #8]
 80037b8:	695b      	ldr	r3, [r3, #20]
 80037ba:	2b00      	cmp	r3, #0
 80037bc:	d102      	bne.n	80037c4 <HAL_DAC_ConfigChannel+0x1a0>
 80037be:	2301      	movs	r3, #1
 80037c0:	623b      	str	r3, [r7, #32]
 80037c2:	e001      	b.n	80037c8 <HAL_DAC_ConfigChannel+0x1a4>
 80037c4:	2300      	movs	r3, #0
 80037c6:	623b      	str	r3, [r7, #32]
 80037c8:	68bb      	ldr	r3, [r7, #8]
 80037ca:	689a      	ldr	r2, [r3, #8]
 80037cc:	68bb      	ldr	r3, [r7, #8]
 80037ce:	695b      	ldr	r3, [r3, #20]
 80037d0:	4313      	orrs	r3, r2
 80037d2:	6a3a      	ldr	r2, [r7, #32]
 80037d4:	4313      	orrs	r3, r2
 80037d6:	61bb      	str	r3, [r7, #24]
 80037d8:	687b      	ldr	r3, [r7, #4]
 80037da:	f003 0310 	and.w	r3, r3, #16
 80037de:	f44f 7280 	mov.w	r2, #256	; 0x100
 80037e2:	fa02 f303 	lsl.w	r3, r2, r3
 80037e6:	43db      	mvns	r3, r3
 80037e8:	6a7a      	ldr	r2, [r7, #36]	; 0x24
 80037ea:	4013      	ands	r3, r2
 80037ec:	627b      	str	r3, [r7, #36]	; 0x24
 80037ee:	68bb      	ldr	r3, [r7, #8]
 80037f0:	791b      	ldrb	r3, [r3, #4]
 80037f2:	2b01      	cmp	r3, #1
 80037f4:	d102      	bne.n	80037fc <HAL_DAC_ConfigChannel+0x1d8>
 80037f6:	f44f 7380 	mov.w	r3, #256	; 0x100
 80037fa:	e000      	b.n	80037fe <HAL_DAC_ConfigChannel+0x1da>
 80037fc:	2300      	movs	r3, #0
 80037fe:	69ba      	ldr	r2, [r7, #24]
 8003800:	4313      	orrs	r3, r2
 8003802:	61bb      	str	r3, [r7, #24]
 8003804:	687b      	ldr	r3, [r7, #4]
 8003806:	f003 0310 	and.w	r3, r3, #16
 800380a:	f44f 7200 	mov.w	r2, #512	; 0x200
 800380e:	fa02 f303 	lsl.w	r3, r2, r3
 8003812:	43db      	mvns	r3, r3
 8003814:	6a7a      	ldr	r2, [r7, #36]	; 0x24
 8003816:	4013      	ands	r3, r2
 8003818:	627b      	str	r3, [r7, #36]	; 0x24
 800381a:	68bb      	ldr	r3, [r7, #8]
 800381c:	795b      	ldrb	r3, [r3, #5]
 800381e:	2b01      	cmp	r3, #1
 8003820:	d102      	bne.n	8003828 <HAL_DAC_ConfigChannel+0x204>
 8003822:	f44f 7300 	mov.w	r3, #512	; 0x200
 8003826:	e000      	b.n	800382a <HAL_DAC_ConfigChannel+0x206>
 8003828:	2300      	movs	r3, #0
 800382a:	69ba      	ldr	r2, [r7, #24]
 800382c:	4313      	orrs	r3, r2
 800382e:	61bb      	str	r3, [r7, #24]
 8003830:	6a7b      	ldr	r3, [r7, #36]	; 0x24
 8003832:	f423 4340 	bic.w	r3, r3, #49152	; 0xc000
 8003836:	627b      	str	r3, [r7, #36]	; 0x24
 8003838:	68bb      	ldr	r3, [r7, #8]
 800383a:	681b      	ldr	r3, [r3, #0]
 800383c:	2b02      	cmp	r3, #2
 800383e:	d114      	bne.n	800386a <HAL_DAC_ConfigChannel+0x246>
 8003840:	f000 ff9c 	bl	800477c <HAL_RCC_GetHCLKFreq>
 8003844:	6178      	str	r0, [r7, #20]
 8003846:	697b      	ldr	r3, [r7, #20]
 8003848:	4a48      	ldr	r2, [pc, #288]	; (800396c <HAL_DAC_ConfigChannel+0x348>)
 800384a:	4293      	cmp	r3, r2
 800384c:	d904      	bls.n	8003858 <HAL_DAC_ConfigChannel+0x234>
 800384e:	6a7b      	ldr	r3, [r7, #36]	; 0x24
 8003850:	f443 4300 	orr.w	r3, r3, #32768	; 0x8000
 8003854:	627b      	str	r3, [r7, #36]	; 0x24
 8003856:	e00f      	b.n	8003878 <HAL_DAC_ConfigChannel+0x254>
 8003858:	697b      	ldr	r3, [r7, #20]
 800385a:	4a45      	ldr	r2, [pc, #276]	; (8003970 <HAL_DAC_ConfigChannel+0x34c>)
 800385c:	4293      	cmp	r3, r2
 800385e:	d90a      	bls.n	8003876 <HAL_DAC_ConfigChannel+0x252>
 8003860:	6a7b      	ldr	r3, [r7, #36]	; 0x24
 8003862:	f443 4380 	orr.w	r3, r3, #16384	; 0x4000
 8003866:	627b      	str	r3, [r7, #36]	; 0x24
 8003868:	e006      	b.n	8003878 <HAL_DAC_ConfigChannel+0x254>
 800386a:	68bb      	ldr	r3, [r7, #8]
 800386c:	681b      	ldr	r3, [r3, #0]
 800386e:	6a7a      	ldr	r2, [r7, #36]	; 0x24
 8003870:	4313      	orrs	r3, r2
 8003872:	627b      	str	r3, [r7, #36]	; 0x24
 8003874:	e000      	b.n	8003878 <HAL_DAC_ConfigChannel+0x254>
 8003876:	bf00      	nop
 8003878:	687b      	ldr	r3, [r7, #4]
 800387a:	f003 0310 	and.w	r3, r3, #16
 800387e:	69ba      	ldr	r2, [r7, #24]
 8003880:	fa02 f303 	lsl.w	r3, r2, r3
 8003884:	6a7a      	ldr	r2, [r7, #36]	; 0x24
 8003886:	4313      	orrs	r3, r2
 8003888:	627b      	str	r3, [r7, #36]	; 0x24
 800388a:	68fb      	ldr	r3, [r7, #12]
 800388c:	681b      	ldr	r3, [r3, #0]
 800388e:	6a7a      	ldr	r2, [r7, #36]	; 0x24
 8003890:	63da      	str	r2, [r3, #60]	; 0x3c
 8003892:	68fb      	ldr	r3, [r7, #12]
 8003894:	681b      	ldr	r3, [r3, #0]
 8003896:	6819      	ldr	r1, [r3, #0]
 8003898:	687b      	ldr	r3, [r7, #4]
 800389a:	f003 0310 	and.w	r3, r3, #16
 800389e:	f44f 4280 	mov.w	r2, #16384	; 0x4000
 80038a2:	fa02 f303 	lsl.w	r3, r2, r3
 80038a6:	43da      	mvns	r2, r3
 80038a8:	68fb      	ldr	r3, [r7, #12]
 80038aa:	681b      	ldr	r3, [r3, #0]
 80038ac:	400a      	ands	r2, r1
 80038ae:	601a      	str	r2, [r3, #0]
 80038b0:	68fb      	ldr	r3, [r7, #12]
 80038b2:	681b      	ldr	r3, [r3, #0]
 80038b4:	681b      	ldr	r3, [r3, #0]
 80038b6:	627b      	str	r3, [r7, #36]	; 0x24
 80038b8:	687b      	ldr	r3, [r7, #4]
 80038ba:	f003 0310 	and.w	r3, r3, #16
 80038be:	f640 72fe 	movw	r2, #4094	; 0xffe
 80038c2:	fa02 f303 	lsl.w	r3, r2, r3
 80038c6:	43db      	mvns	r3, r3
 80038c8:	6a7a      	ldr	r2, [r7, #36]	; 0x24
 80038ca:	4013      	ands	r3, r2
 80038cc:	627b      	str	r3, [r7, #36]	; 0x24
 80038ce:	68bb      	ldr	r3, [r7, #8]
 80038d0:	68db      	ldr	r3, [r3, #12]
 80038d2:	61bb      	str	r3, [r7, #24]
 80038d4:	687b      	ldr	r3, [r7, #4]
 80038d6:	f003 0310 	and.w	r3, r3, #16
 80038da:	69ba      	ldr	r2, [r7, #24]
 80038dc:	fa02 f303 	lsl.w	r3, r2, r3
 80038e0:	6a7a      	ldr	r2, [r7, #36]	; 0x24
 80038e2:	4313      	orrs	r3, r2
 80038e4:	627b      	str	r3, [r7, #36]	; 0x24
 80038e6:	68fb      	ldr	r3, [r7, #12]
 80038e8:	681b      	ldr	r3, [r3, #0]
 80038ea:	6a7a      	ldr	r2, [r7, #36]	; 0x24
 80038ec:	601a      	str	r2, [r3, #0]
 80038ee:	68fb      	ldr	r3, [r7, #12]
 80038f0:	681b      	ldr	r3, [r3, #0]
 80038f2:	6819      	ldr	r1, [r3, #0]
 80038f4:	687b      	ldr	r3, [r7, #4]
 80038f6:	f003 0310 	and.w	r3, r3, #16
 80038fa:	22c0      	movs	r2, #192	; 0xc0
 80038fc:	fa02 f303 	lsl.w	r3, r2, r3
 8003900:	43da      	mvns	r2, r3
 8003902:	68fb      	ldr	r3, [r7, #12]
 8003904:	681b      	ldr	r3, [r3, #0]
 8003906:	400a      	ands	r2, r1
 8003908:	601a      	str	r2, [r3, #0]
 800390a:	68bb      	ldr	r3, [r7, #8]
 800390c:	68db      	ldr	r3, [r3, #12]
 800390e:	089b      	lsrs	r3, r3, #2
 8003910:	f003 030f 	and.w	r3, r3, #15
 8003914:	61bb      	str	r3, [r7, #24]
 8003916:	68bb      	ldr	r3, [r7, #8]
 8003918:	691b      	ldr	r3, [r3, #16]
 800391a:	089b      	lsrs	r3, r3, #2
 800391c:	021b      	lsls	r3, r3, #8
 800391e:	f403 6370 	and.w	r3, r3, #3840	; 0xf00
 8003922:	69ba      	ldr	r2, [r7, #24]
 8003924:	4313      	orrs	r3, r2
 8003926:	61bb      	str	r3, [r7, #24]
 8003928:	68fb      	ldr	r3, [r7, #12]
 800392a:	681b      	ldr	r3, [r3, #0]
 800392c:	6e1a      	ldr	r2, [r3, #96]	; 0x60
 800392e:	687b      	ldr	r3, [r7, #4]
 8003930:	f003 0310 	and.w	r3, r3, #16
 8003934:	f640 710f 	movw	r1, #3855	; 0xf0f
 8003938:	fa01 f303 	lsl.w	r3, r1, r3
 800393c:	43db      	mvns	r3, r3
 800393e:	ea02 0103 	and.w	r1, r2, r3
 8003942:	687b      	ldr	r3, [r7, #4]
 8003944:	f003 0310 	and.w	r3, r3, #16
 8003948:	69ba      	ldr	r2, [r7, #24]
 800394a:	409a      	lsls	r2, r3
 800394c:	68fb      	ldr	r3, [r7, #12]
 800394e:	681b      	ldr	r3, [r3, #0]
 8003950:	430a      	orrs	r2, r1
 8003952:	661a      	str	r2, [r3, #96]	; 0x60
 8003954:	68fb      	ldr	r3, [r7, #12]
 8003956:	2201      	movs	r2, #1
 8003958:	711a      	strb	r2, [r3, #4]
 800395a:	68fb      	ldr	r3, [r7, #12]
 800395c:	2200      	movs	r2, #0
 800395e:	715a      	strb	r2, [r3, #5]
 8003960:	2300      	movs	r3, #0
 8003962:	4618      	mov	r0, r3
 8003964:	3728      	adds	r7, #40	; 0x28
 8003966:	46bd      	mov	sp, r7
 8003968:	bd80      	pop	{r7, pc}
 800396a:	bf00      	nop
 800396c:	09896800 	.word	0x09896800
 8003970:	04c4b400 	.word	0x04c4b400

08003974 <HAL_GPIO_Init>:
 8003974:	b480      	push	{r7}
 8003976:	b087      	sub	sp, #28
 8003978:	af00      	add	r7, sp, #0
 800397a:	6078      	str	r0, [r7, #4]
 800397c:	6039      	str	r1, [r7, #0]
 800397e:	2300      	movs	r3, #0
 8003980:	617b      	str	r3, [r7, #20]
 8003982:	e15a      	b.n	8003c3a <HAL_GPIO_Init+0x2c6>
 8003984:	683b      	ldr	r3, [r7, #0]
 8003986:	681a      	ldr	r2, [r3, #0]
 8003988:	2101      	movs	r1, #1
 800398a:	697b      	ldr	r3, [r7, #20]
 800398c:	fa01 f303 	lsl.w	r3, r1, r3
 8003990:	4013      	ands	r3, r2
 8003992:	60fb      	str	r3, [r7, #12]
 8003994:	68fb      	ldr	r3, [r7, #12]
 8003996:	2b00      	cmp	r3, #0
 8003998:	f000 814c 	beq.w	8003c34 <HAL_GPIO_Init+0x2c0>
 800399c:	683b      	ldr	r3, [r7, #0]
 800399e:	685b      	ldr	r3, [r3, #4]
 80039a0:	2b01      	cmp	r3, #1
 80039a2:	d00b      	beq.n	80039bc <HAL_GPIO_Init+0x48>
 80039a4:	683b      	ldr	r3, [r7, #0]
 80039a6:	685b      	ldr	r3, [r3, #4]
 80039a8:	2b02      	cmp	r3, #2
 80039aa:	d007      	beq.n	80039bc <HAL_GPIO_Init+0x48>
 80039ac:	683b      	ldr	r3, [r7, #0]
 80039ae:	685b      	ldr	r3, [r3, #4]
 80039b0:	2b11      	cmp	r3, #17
 80039b2:	d003      	beq.n	80039bc <HAL_GPIO_Init+0x48>
 80039b4:	683b      	ldr	r3, [r7, #0]
 80039b6:	685b      	ldr	r3, [r3, #4]
 80039b8:	2b12      	cmp	r3, #18
 80039ba:	d130      	bne.n	8003a1e <HAL_GPIO_Init+0xaa>
 80039bc:	687b      	ldr	r3, [r7, #4]
 80039be:	689b      	ldr	r3, [r3, #8]
 80039c0:	613b      	str	r3, [r7, #16]
 80039c2:	697b      	ldr	r3, [r7, #20]
 80039c4:	005b      	lsls	r3, r3, #1
 80039c6:	2203      	movs	r2, #3
 80039c8:	fa02 f303 	lsl.w	r3, r2, r3
 80039cc:	43db      	mvns	r3, r3
 80039ce:	693a      	ldr	r2, [r7, #16]
 80039d0:	4013      	ands	r3, r2
 80039d2:	613b      	str	r3, [r7, #16]
 80039d4:	683b      	ldr	r3, [r7, #0]
 80039d6:	68da      	ldr	r2, [r3, #12]
 80039d8:	697b      	ldr	r3, [r7, #20]
 80039da:	005b      	lsls	r3, r3, #1
 80039dc:	fa02 f303 	lsl.w	r3, r2, r3
 80039e0:	693a      	ldr	r2, [r7, #16]
 80039e2:	4313      	orrs	r3, r2
 80039e4:	613b      	str	r3, [r7, #16]
 80039e6:	687b      	ldr	r3, [r7, #4]
 80039e8:	693a      	ldr	r2, [r7, #16]
 80039ea:	609a      	str	r2, [r3, #8]
 80039ec:	687b      	ldr	r3, [r7, #4]
 80039ee:	685b      	ldr	r3, [r3, #4]
 80039f0:	613b      	str	r3, [r7, #16]
 80039f2:	2201      	movs	r2, #1
 80039f4:	697b      	ldr	r3, [r7, #20]
 80039f6:	fa02 f303 	lsl.w	r3, r2, r3
 80039fa:	43db      	mvns	r3, r3
 80039fc:	693a      	ldr	r2, [r7, #16]
 80039fe:	4013      	ands	r3, r2
 8003a00:	613b      	str	r3, [r7, #16]
 8003a02:	683b      	ldr	r3, [r7, #0]
 8003a04:	685b      	ldr	r3, [r3, #4]
 8003a06:	091b      	lsrs	r3, r3, #4
 8003a08:	f003 0201 	and.w	r2, r3, #1
 8003a0c:	697b      	ldr	r3, [r7, #20]
 8003a0e:	fa02 f303 	lsl.w	r3, r2, r3
 8003a12:	693a      	ldr	r2, [r7, #16]
 8003a14:	4313      	orrs	r3, r2
 8003a16:	613b      	str	r3, [r7, #16]
 8003a18:	687b      	ldr	r3, [r7, #4]
 8003a1a:	693a      	ldr	r2, [r7, #16]
 8003a1c:	605a      	str	r2, [r3, #4]
 8003a1e:	687b      	ldr	r3, [r7, #4]
 8003a20:	68db      	ldr	r3, [r3, #12]
 8003a22:	613b      	str	r3, [r7, #16]
 8003a24:	697b      	ldr	r3, [r7, #20]
 8003a26:	005b      	lsls	r3, r3, #1
 8003a28:	2203      	movs	r2, #3
 8003a2a:	fa02 f303 	lsl.w	r3, r2, r3
 8003a2e:	43db      	mvns	r3, r3
 8003a30:	693a      	ldr	r2, [r7, #16]
 8003a32:	4013      	ands	r3, r2
 8003a34:	613b      	str	r3, [r7, #16]
 8003a36:	683b      	ldr	r3, [r7, #0]
 8003a38:	689a      	ldr	r2, [r3, #8]
 8003a3a:	697b      	ldr	r3, [r7, #20]
 8003a3c:	005b      	lsls	r3, r3, #1
 8003a3e:	fa02 f303 	lsl.w	r3, r2, r3
 8003a42:	693a      	ldr	r2, [r7, #16]
 8003a44:	4313      	orrs	r3, r2
 8003a46:	613b      	str	r3, [r7, #16]
 8003a48:	687b      	ldr	r3, [r7, #4]
 8003a4a:	693a      	ldr	r2, [r7, #16]
 8003a4c:	60da      	str	r2, [r3, #12]
 8003a4e:	683b      	ldr	r3, [r7, #0]
 8003a50:	685b      	ldr	r3, [r3, #4]
 8003a52:	2b02      	cmp	r3, #2
 8003a54:	d003      	beq.n	8003a5e <HAL_GPIO_Init+0xea>
 8003a56:	683b      	ldr	r3, [r7, #0]
 8003a58:	685b      	ldr	r3, [r3, #4]
 8003a5a:	2b12      	cmp	r3, #18
 8003a5c:	d123      	bne.n	8003aa6 <HAL_GPIO_Init+0x132>
 8003a5e:	697b      	ldr	r3, [r7, #20]
 8003a60:	08da      	lsrs	r2, r3, #3
 8003a62:	687b      	ldr	r3, [r7, #4]
 8003a64:	3208      	adds	r2, #8
 8003a66:	f853 3022 	ldr.w	r3, [r3, r2, lsl #2]
 8003a6a:	613b      	str	r3, [r7, #16]
 8003a6c:	697b      	ldr	r3, [r7, #20]
 8003a6e:	f003 0307 	and.w	r3, r3, #7
 8003a72:	009b      	lsls	r3, r3, #2
 8003a74:	220f      	movs	r2, #15
 8003a76:	fa02 f303 	lsl.w	r3, r2, r3
 8003a7a:	43db      	mvns	r3, r3
 8003a7c:	693a      	ldr	r2, [r7, #16]
 8003a7e:	4013      	ands	r3, r2
 8003a80:	613b      	str	r3, [r7, #16]
 8003a82:	683b      	ldr	r3, [r7, #0]
 8003a84:	691a      	ldr	r2, [r3, #16]
 8003a86:	697b      	ldr	r3, [r7, #20]
 8003a88:	f003 0307 	and.w	r3, r3, #7
 8003a8c:	009b      	lsls	r3, r3, #2
 8003a8e:	fa02 f303 	lsl.w	r3, r2, r3
 8003a92:	693a      	ldr	r2, [r7, #16]
 8003a94:	4313      	orrs	r3, r2
 8003a96:	613b      	str	r3, [r7, #16]
 8003a98:	697b      	ldr	r3, [r7, #20]
 8003a9a:	08da      	lsrs	r2, r3, #3
 8003a9c:	687b      	ldr	r3, [r7, #4]
 8003a9e:	3208      	adds	r2, #8
 8003aa0:	6939      	ldr	r1, [r7, #16]
 8003aa2:	f843 1022 	str.w	r1, [r3, r2, lsl #2]
 8003aa6:	687b      	ldr	r3, [r7, #4]
 8003aa8:	681b      	ldr	r3, [r3, #0]
 8003aaa:	613b      	str	r3, [r7, #16]
 8003aac:	697b      	ldr	r3, [r7, #20]
 8003aae:	005b      	lsls	r3, r3, #1
 8003ab0:	2203      	movs	r2, #3
 8003ab2:	fa02 f303 	lsl.w	r3, r2, r3
 8003ab6:	43db      	mvns	r3, r3
 8003ab8:	693a      	ldr	r2, [r7, #16]
 8003aba:	4013      	ands	r3, r2
 8003abc:	613b      	str	r3, [r7, #16]
 8003abe:	683b      	ldr	r3, [r7, #0]
 8003ac0:	685b      	ldr	r3, [r3, #4]
 8003ac2:	f003 0203 	and.w	r2, r3, #3
 8003ac6:	697b      	ldr	r3, [r7, #20]
 8003ac8:	005b      	lsls	r3, r3, #1
 8003aca:	fa02 f303 	lsl.w	r3, r2, r3
 8003ace:	693a      	ldr	r2, [r7, #16]
 8003ad0:	4313      	orrs	r3, r2
 8003ad2:	613b      	str	r3, [r7, #16]
 8003ad4:	687b      	ldr	r3, [r7, #4]
 8003ad6:	693a      	ldr	r2, [r7, #16]
 8003ad8:	601a      	str	r2, [r3, #0]
 8003ada:	683b      	ldr	r3, [r7, #0]
 8003adc:	685b      	ldr	r3, [r3, #4]
 8003ade:	f003 5380 	and.w	r3, r3, #268435456	; 0x10000000
 8003ae2:	2b00      	cmp	r3, #0
 8003ae4:	f000 80a6 	beq.w	8003c34 <HAL_GPIO_Init+0x2c0>
 8003ae8:	4b5b      	ldr	r3, [pc, #364]	; (8003c58 <HAL_GPIO_Init+0x2e4>)
 8003aea:	6e1b      	ldr	r3, [r3, #96]	; 0x60
 8003aec:	4a5a      	ldr	r2, [pc, #360]	; (8003c58 <HAL_GPIO_Init+0x2e4>)
 8003aee:	f043 0301 	orr.w	r3, r3, #1
 8003af2:	6613      	str	r3, [r2, #96]	; 0x60
 8003af4:	4b58      	ldr	r3, [pc, #352]	; (8003c58 <HAL_GPIO_Init+0x2e4>)
 8003af6:	6e1b      	ldr	r3, [r3, #96]	; 0x60
 8003af8:	f003 0301 	and.w	r3, r3, #1
 8003afc:	60bb      	str	r3, [r7, #8]
 8003afe:	68bb      	ldr	r3, [r7, #8]
 8003b00:	4a56      	ldr	r2, [pc, #344]	; (8003c5c <HAL_GPIO_Init+0x2e8>)
 8003b02:	697b      	ldr	r3, [r7, #20]
 8003b04:	089b      	lsrs	r3, r3, #2
 8003b06:	3302      	adds	r3, #2
 8003b08:	f852 3023 	ldr.w	r3, [r2, r3, lsl #2]
 8003b0c:	613b      	str	r3, [r7, #16]
 8003b0e:	697b      	ldr	r3, [r7, #20]
 8003b10:	f003 0303 	and.w	r3, r3, #3
 8003b14:	009b      	lsls	r3, r3, #2
 8003b16:	220f      	movs	r2, #15
 8003b18:	fa02 f303 	lsl.w	r3, r2, r3
 8003b1c:	43db      	mvns	r3, r3
 8003b1e:	693a      	ldr	r2, [r7, #16]
 8003b20:	4013      	ands	r3, r2
 8003b22:	613b      	str	r3, [r7, #16]
 8003b24:	687b      	ldr	r3, [r7, #4]
 8003b26:	f1b3 4f90 	cmp.w	r3, #1207959552	; 0x48000000
 8003b2a:	d01f      	beq.n	8003b6c <HAL_GPIO_Init+0x1f8>
 8003b2c:	687b      	ldr	r3, [r7, #4]
 8003b2e:	4a4c      	ldr	r2, [pc, #304]	; (8003c60 <HAL_GPIO_Init+0x2ec>)
 8003b30:	4293      	cmp	r3, r2
 8003b32:	d019      	beq.n	8003b68 <HAL_GPIO_Init+0x1f4>
 8003b34:	687b      	ldr	r3, [r7, #4]
 8003b36:	4a4b      	ldr	r2, [pc, #300]	; (8003c64 <HAL_GPIO_Init+0x2f0>)
 8003b38:	4293      	cmp	r3, r2
 8003b3a:	d013      	beq.n	8003b64 <HAL_GPIO_Init+0x1f0>
 8003b3c:	687b      	ldr	r3, [r7, #4]
 8003b3e:	4a4a      	ldr	r2, [pc, #296]	; (8003c68 <HAL_GPIO_Init+0x2f4>)
 8003b40:	4293      	cmp	r3, r2
 8003b42:	d00d      	beq.n	8003b60 <HAL_GPIO_Init+0x1ec>
 8003b44:	687b      	ldr	r3, [r7, #4]
 8003b46:	4a49      	ldr	r2, [pc, #292]	; (8003c6c <HAL_GPIO_Init+0x2f8>)
 8003b48:	4293      	cmp	r3, r2
 8003b4a:	d007      	beq.n	8003b5c <HAL_GPIO_Init+0x1e8>
 8003b4c:	687b      	ldr	r3, [r7, #4]
 8003b4e:	4a48      	ldr	r2, [pc, #288]	; (8003c70 <HAL_GPIO_Init+0x2fc>)
 8003b50:	4293      	cmp	r3, r2
 8003b52:	d101      	bne.n	8003b58 <HAL_GPIO_Init+0x1e4>
 8003b54:	2305      	movs	r3, #5
 8003b56:	e00a      	b.n	8003b6e <HAL_GPIO_Init+0x1fa>
 8003b58:	2306      	movs	r3, #6
 8003b5a:	e008      	b.n	8003b6e <HAL_GPIO_Init+0x1fa>
 8003b5c:	2304      	movs	r3, #4
 8003b5e:	e006      	b.n	8003b6e <HAL_GPIO_Init+0x1fa>
 8003b60:	2303      	movs	r3, #3
 8003b62:	e004      	b.n	8003b6e <HAL_GPIO_Init+0x1fa>
 8003b64:	2302      	movs	r3, #2
 8003b66:	e002      	b.n	8003b6e <HAL_GPIO_Init+0x1fa>
 8003b68:	2301      	movs	r3, #1
 8003b6a:	e000      	b.n	8003b6e <HAL_GPIO_Init+0x1fa>
 8003b6c:	2300      	movs	r3, #0
 8003b6e:	697a      	ldr	r2, [r7, #20]
 8003b70:	f002 0203 	and.w	r2, r2, #3
 8003b74:	0092      	lsls	r2, r2, #2
 8003b76:	4093      	lsls	r3, r2
 8003b78:	693a      	ldr	r2, [r7, #16]
 8003b7a:	4313      	orrs	r3, r2
 8003b7c:	613b      	str	r3, [r7, #16]
 8003b7e:	4937      	ldr	r1, [pc, #220]	; (8003c5c <HAL_GPIO_Init+0x2e8>)
 8003b80:	697b      	ldr	r3, [r7, #20]
 8003b82:	089b      	lsrs	r3, r3, #2
 8003b84:	3302      	adds	r3, #2
 8003b86:	693a      	ldr	r2, [r7, #16]
 8003b88:	f841 2023 	str.w	r2, [r1, r3, lsl #2]
 8003b8c:	4b39      	ldr	r3, [pc, #228]	; (8003c74 <HAL_GPIO_Init+0x300>)
 8003b8e:	681b      	ldr	r3, [r3, #0]
 8003b90:	613b      	str	r3, [r7, #16]
 8003b92:	68fb      	ldr	r3, [r7, #12]
 8003b94:	43db      	mvns	r3, r3
 8003b96:	693a      	ldr	r2, [r7, #16]
 8003b98:	4013      	ands	r3, r2
 8003b9a:	613b      	str	r3, [r7, #16]
 8003b9c:	683b      	ldr	r3, [r7, #0]
 8003b9e:	685b      	ldr	r3, [r3, #4]
 8003ba0:	f403 3380 	and.w	r3, r3, #65536	; 0x10000
 8003ba4:	2b00      	cmp	r3, #0
 8003ba6:	d003      	beq.n	8003bb0 <HAL_GPIO_Init+0x23c>
 8003ba8:	693a      	ldr	r2, [r7, #16]
 8003baa:	68fb      	ldr	r3, [r7, #12]
 8003bac:	4313      	orrs	r3, r2
 8003bae:	613b      	str	r3, [r7, #16]
 8003bb0:	4a30      	ldr	r2, [pc, #192]	; (8003c74 <HAL_GPIO_Init+0x300>)
 8003bb2:	693b      	ldr	r3, [r7, #16]
 8003bb4:	6013      	str	r3, [r2, #0]
 8003bb6:	4b2f      	ldr	r3, [pc, #188]	; (8003c74 <HAL_GPIO_Init+0x300>)
 8003bb8:	685b      	ldr	r3, [r3, #4]
 8003bba:	613b      	str	r3, [r7, #16]
 8003bbc:	68fb      	ldr	r3, [r7, #12]
 8003bbe:	43db      	mvns	r3, r3
 8003bc0:	693a      	ldr	r2, [r7, #16]
 8003bc2:	4013      	ands	r3, r2
 8003bc4:	613b      	str	r3, [r7, #16]
 8003bc6:	683b      	ldr	r3, [r7, #0]
 8003bc8:	685b      	ldr	r3, [r3, #4]
 8003bca:	f403 3300 	and.w	r3, r3, #131072	; 0x20000
 8003bce:	2b00      	cmp	r3, #0
 8003bd0:	d003      	beq.n	8003bda <HAL_GPIO_Init+0x266>
 8003bd2:	693a      	ldr	r2, [r7, #16]
 8003bd4:	68fb      	ldr	r3, [r7, #12]
 8003bd6:	4313      	orrs	r3, r2
 8003bd8:	613b      	str	r3, [r7, #16]
 8003bda:	4a26      	ldr	r2, [pc, #152]	; (8003c74 <HAL_GPIO_Init+0x300>)
 8003bdc:	693b      	ldr	r3, [r7, #16]
 8003bde:	6053      	str	r3, [r2, #4]
 8003be0:	4b24      	ldr	r3, [pc, #144]	; (8003c74 <HAL_GPIO_Init+0x300>)
 8003be2:	689b      	ldr	r3, [r3, #8]
 8003be4:	613b      	str	r3, [r7, #16]
 8003be6:	68fb      	ldr	r3, [r7, #12]
 8003be8:	43db      	mvns	r3, r3
 8003bea:	693a      	ldr	r2, [r7, #16]
 8003bec:	4013      	ands	r3, r2
 8003bee:	613b      	str	r3, [r7, #16]
 8003bf0:	683b      	ldr	r3, [r7, #0]
 8003bf2:	685b      	ldr	r3, [r3, #4]
 8003bf4:	f403 1380 	and.w	r3, r3, #1048576	; 0x100000
 8003bf8:	2b00      	cmp	r3, #0
 8003bfa:	d003      	beq.n	8003c04 <HAL_GPIO_Init+0x290>
 8003bfc:	693a      	ldr	r2, [r7, #16]
 8003bfe:	68fb      	ldr	r3, [r7, #12]
 8003c00:	4313      	orrs	r3, r2
 8003c02:	613b      	str	r3, [r7, #16]
 8003c04:	4a1b      	ldr	r2, [pc, #108]	; (8003c74 <HAL_GPIO_Init+0x300>)
 8003c06:	693b      	ldr	r3, [r7, #16]
 8003c08:	6093      	str	r3, [r2, #8]
 8003c0a:	4b1a      	ldr	r3, [pc, #104]	; (8003c74 <HAL_GPIO_Init+0x300>)
 8003c0c:	68db      	ldr	r3, [r3, #12]
 8003c0e:	613b      	str	r3, [r7, #16]
 8003c10:	68fb      	ldr	r3, [r7, #12]
 8003c12:	43db      	mvns	r3, r3
 8003c14:	693a      	ldr	r2, [r7, #16]
 8003c16:	4013      	ands	r3, r2
 8003c18:	613b      	str	r3, [r7, #16]
 8003c1a:	683b      	ldr	r3, [r7, #0]
 8003c1c:	685b      	ldr	r3, [r3, #4]
 8003c1e:	f403 1300 	and.w	r3, r3, #2097152	; 0x200000
 8003c22:	2b00      	cmp	r3, #0
 8003c24:	d003      	beq.n	8003c2e <HAL_GPIO_Init+0x2ba>
 8003c26:	693a      	ldr	r2, [r7, #16]
 8003c28:	68fb      	ldr	r3, [r7, #12]
 8003c2a:	4313      	orrs	r3, r2
 8003c2c:	613b      	str	r3, [r7, #16]
 8003c2e:	4a11      	ldr	r2, [pc, #68]	; (8003c74 <HAL_GPIO_Init+0x300>)
 8003c30:	693b      	ldr	r3, [r7, #16]
 8003c32:	60d3      	str	r3, [r2, #12]
 8003c34:	697b      	ldr	r3, [r7, #20]
 8003c36:	3301      	adds	r3, #1
 8003c38:	617b      	str	r3, [r7, #20]
 8003c3a:	683b      	ldr	r3, [r7, #0]
 8003c3c:	681a      	ldr	r2, [r3, #0]
 8003c3e:	697b      	ldr	r3, [r7, #20]
 8003c40:	fa22 f303 	lsr.w	r3, r2, r3
 8003c44:	2b00      	cmp	r3, #0
 8003c46:	f47f ae9d 	bne.w	8003984 <HAL_GPIO_Init+0x10>
 8003c4a:	bf00      	nop
 8003c4c:	bf00      	nop
 8003c4e:	371c      	adds	r7, #28
 8003c50:	46bd      	mov	sp, r7
 8003c52:	f85d 7b04 	ldr.w	r7, [sp], #4
 8003c56:	4770      	bx	lr
 8003c58:	40021000 	.word	0x40021000
 8003c5c:	40010000 	.word	0x40010000
 8003c60:	48000400 	.word	0x48000400
 8003c64:	48000800 	.word	0x48000800
 8003c68:	48000c00 	.word	0x48000c00
 8003c6c:	48001000 	.word	0x48001000
 8003c70:	48001400 	.word	0x48001400
 8003c74:	40010400 	.word	0x40010400

08003c78 <HAL_GPIO_WritePin>:
 8003c78:	b480      	push	{r7}
 8003c7a:	b083      	sub	sp, #12
 8003c7c:	af00      	add	r7, sp, #0
 8003c7e:	6078      	str	r0, [r7, #4]
 8003c80:	460b      	mov	r3, r1
 8003c82:	807b      	strh	r3, [r7, #2]
 8003c84:	4613      	mov	r3, r2
 8003c86:	707b      	strb	r3, [r7, #1]
 8003c88:	787b      	ldrb	r3, [r7, #1]
 8003c8a:	2b00      	cmp	r3, #0
 8003c8c:	d003      	beq.n	8003c96 <HAL_GPIO_WritePin+0x1e>
 8003c8e:	887a      	ldrh	r2, [r7, #2]
 8003c90:	687b      	ldr	r3, [r7, #4]
 8003c92:	619a      	str	r2, [r3, #24]
 8003c94:	e002      	b.n	8003c9c <HAL_GPIO_WritePin+0x24>
 8003c96:	887a      	ldrh	r2, [r7, #2]
 8003c98:	687b      	ldr	r3, [r7, #4]
 8003c9a:	629a      	str	r2, [r3, #40]	; 0x28
 8003c9c:	bf00      	nop
 8003c9e:	370c      	adds	r7, #12
 8003ca0:	46bd      	mov	sp, r7
 8003ca2:	f85d 7b04 	ldr.w	r7, [sp], #4
 8003ca6:	4770      	bx	lr

08003ca8 <HAL_PWREx_ControlVoltageScaling>:
 8003ca8:	b480      	push	{r7}
 8003caa:	b085      	sub	sp, #20
 8003cac:	af00      	add	r7, sp, #0
 8003cae:	6078      	str	r0, [r7, #4]
 8003cb0:	687b      	ldr	r3, [r7, #4]
 8003cb2:	2b00      	cmp	r3, #0
 8003cb4:	d141      	bne.n	8003d3a <HAL_PWREx_ControlVoltageScaling+0x92>
 8003cb6:	4b4b      	ldr	r3, [pc, #300]	; (8003de4 <HAL_PWREx_ControlVoltageScaling+0x13c>)
 8003cb8:	681b      	ldr	r3, [r3, #0]
 8003cba:	f403 63c0 	and.w	r3, r3, #1536	; 0x600
 8003cbe:	f5b3 6f80 	cmp.w	r3, #1024	; 0x400
 8003cc2:	d131      	bne.n	8003d28 <HAL_PWREx_ControlVoltageScaling+0x80>
 8003cc4:	4b47      	ldr	r3, [pc, #284]	; (8003de4 <HAL_PWREx_ControlVoltageScaling+0x13c>)
 8003cc6:	f8d3 3080 	ldr.w	r3, [r3, #128]	; 0x80
 8003cca:	4a46      	ldr	r2, [pc, #280]	; (8003de4 <HAL_PWREx_ControlVoltageScaling+0x13c>)
 8003ccc:	f423 7380 	bic.w	r3, r3, #256	; 0x100
 8003cd0:	f8c2 3080 	str.w	r3, [r2, #128]	; 0x80
 8003cd4:	4b43      	ldr	r3, [pc, #268]	; (8003de4 <HAL_PWREx_ControlVoltageScaling+0x13c>)
 8003cd6:	681b      	ldr	r3, [r3, #0]
 8003cd8:	f423 63c0 	bic.w	r3, r3, #1536	; 0x600
 8003cdc:	4a41      	ldr	r2, [pc, #260]	; (8003de4 <HAL_PWREx_ControlVoltageScaling+0x13c>)
 8003cde:	f443 7300 	orr.w	r3, r3, #512	; 0x200
 8003ce2:	6013      	str	r3, [r2, #0]
 8003ce4:	4b40      	ldr	r3, [pc, #256]	; (8003de8 <HAL_PWREx_ControlVoltageScaling+0x140>)
 8003ce6:	681b      	ldr	r3, [r3, #0]
 8003ce8:	2232      	movs	r2, #50	; 0x32
 8003cea:	fb02 f303 	mul.w	r3, r2, r3
 8003cee:	4a3f      	ldr	r2, [pc, #252]	; (8003dec <HAL_PWREx_ControlVoltageScaling+0x144>)
 8003cf0:	fba2 2303 	umull	r2, r3, r2, r3
 8003cf4:	0c9b      	lsrs	r3, r3, #18
 8003cf6:	3301      	adds	r3, #1
 8003cf8:	60fb      	str	r3, [r7, #12]
 8003cfa:	e002      	b.n	8003d02 <HAL_PWREx_ControlVoltageScaling+0x5a>
 8003cfc:	68fb      	ldr	r3, [r7, #12]
 8003cfe:	3b01      	subs	r3, #1
 8003d00:	60fb      	str	r3, [r7, #12]
 8003d02:	4b38      	ldr	r3, [pc, #224]	; (8003de4 <HAL_PWREx_ControlVoltageScaling+0x13c>)
 8003d04:	695b      	ldr	r3, [r3, #20]
 8003d06:	f403 6380 	and.w	r3, r3, #1024	; 0x400
 8003d0a:	f5b3 6f80 	cmp.w	r3, #1024	; 0x400
 8003d0e:	d102      	bne.n	8003d16 <HAL_PWREx_ControlVoltageScaling+0x6e>
 8003d10:	68fb      	ldr	r3, [r7, #12]
 8003d12:	2b00      	cmp	r3, #0
 8003d14:	d1f2      	bne.n	8003cfc <HAL_PWREx_ControlVoltageScaling+0x54>
 8003d16:	4b33      	ldr	r3, [pc, #204]	; (8003de4 <HAL_PWREx_ControlVoltageScaling+0x13c>)
 8003d18:	695b      	ldr	r3, [r3, #20]
 8003d1a:	f403 6380 	and.w	r3, r3, #1024	; 0x400
 8003d1e:	f5b3 6f80 	cmp.w	r3, #1024	; 0x400
 8003d22:	d158      	bne.n	8003dd6 <HAL_PWREx_ControlVoltageScaling+0x12e>
 8003d24:	2303      	movs	r3, #3
 8003d26:	e057      	b.n	8003dd8 <HAL_PWREx_ControlVoltageScaling+0x130>
 8003d28:	4b2e      	ldr	r3, [pc, #184]	; (8003de4 <HAL_PWREx_ControlVoltageScaling+0x13c>)
 8003d2a:	f8d3 3080 	ldr.w	r3, [r3, #128]	; 0x80
 8003d2e:	4a2d      	ldr	r2, [pc, #180]	; (8003de4 <HAL_PWREx_ControlVoltageScaling+0x13c>)
 8003d30:	f423 7380 	bic.w	r3, r3, #256	; 0x100
 8003d34:	f8c2 3080 	str.w	r3, [r2, #128]	; 0x80
 8003d38:	e04d      	b.n	8003dd6 <HAL_PWREx_ControlVoltageScaling+0x12e>
 8003d3a:	687b      	ldr	r3, [r7, #4]
 8003d3c:	f5b3 7f00 	cmp.w	r3, #512	; 0x200
 8003d40:	d141      	bne.n	8003dc6 <HAL_PWREx_ControlVoltageScaling+0x11e>
 8003d42:	4b28      	ldr	r3, [pc, #160]	; (8003de4 <HAL_PWREx_ControlVoltageScaling+0x13c>)
 8003d44:	681b      	ldr	r3, [r3, #0]
 8003d46:	f403 63c0 	and.w	r3, r3, #1536	; 0x600
 8003d4a:	f5b3 6f80 	cmp.w	r3, #1024	; 0x400
 8003d4e:	d131      	bne.n	8003db4 <HAL_PWREx_ControlVoltageScaling+0x10c>
 8003d50:	4b24      	ldr	r3, [pc, #144]	; (8003de4 <HAL_PWREx_ControlVoltageScaling+0x13c>)
 8003d52:	f8d3 3080 	ldr.w	r3, [r3, #128]	; 0x80
 8003d56:	4a23      	ldr	r2, [pc, #140]	; (8003de4 <HAL_PWREx_ControlVoltageScaling+0x13c>)
 8003d58:	f443 7380 	orr.w	r3, r3, #256	; 0x100
 8003d5c:	f8c2 3080 	str.w	r3, [r2, #128]	; 0x80
 8003d60:	4b20      	ldr	r3, [pc, #128]	; (8003de4 <HAL_PWREx_ControlVoltageScaling+0x13c>)
 8003d62:	681b      	ldr	r3, [r3, #0]
 8003d64:	f423 63c0 	bic.w	r3, r3, #1536	; 0x600
 8003d68:	4a1e      	ldr	r2, [pc, #120]	; (8003de4 <HAL_PWREx_ControlVoltageScaling+0x13c>)
 8003d6a:	f443 7300 	orr.w	r3, r3, #512	; 0x200
 8003d6e:	6013      	str	r3, [r2, #0]
 8003d70:	4b1d      	ldr	r3, [pc, #116]	; (8003de8 <HAL_PWREx_ControlVoltageScaling+0x140>)
 8003d72:	681b      	ldr	r3, [r3, #0]
 8003d74:	2232      	movs	r2, #50	; 0x32
 8003d76:	fb02 f303 	mul.w	r3, r2, r3
 8003d7a:	4a1c      	ldr	r2, [pc, #112]	; (8003dec <HAL_PWREx_ControlVoltageScaling+0x144>)
 8003d7c:	fba2 2303 	umull	r2, r3, r2, r3
 8003d80:	0c9b      	lsrs	r3, r3, #18
 8003d82:	3301      	adds	r3, #1
 8003d84:	60fb      	str	r3, [r7, #12]
 8003d86:	e002      	b.n	8003d8e <HAL_PWREx_ControlVoltageScaling+0xe6>
 8003d88:	68fb      	ldr	r3, [r7, #12]
 8003d8a:	3b01      	subs	r3, #1
 8003d8c:	60fb      	str	r3, [r7, #12]
 8003d8e:	4b15      	ldr	r3, [pc, #84]	; (8003de4 <HAL_PWREx_ControlVoltageScaling+0x13c>)
 8003d90:	695b      	ldr	r3, [r3, #20]
 8003d92:	f403 6380 	and.w	r3, r3, #1024	; 0x400
 8003d96:	f5b3 6f80 	cmp.w	r3, #1024	; 0x400
 8003d9a:	d102      	bne.n	8003da2 <HAL_PWREx_ControlVoltageScaling+0xfa>
 8003d9c:	68fb      	ldr	r3, [r7, #12]
 8003d9e:	2b00      	cmp	r3, #0
 8003da0:	d1f2      	bne.n	8003d88 <HAL_PWREx_ControlVoltageScaling+0xe0>
 8003da2:	4b10      	ldr	r3, [pc, #64]	; (8003de4 <HAL_PWREx_ControlVoltageScaling+0x13c>)
 8003da4:	695b      	ldr	r3, [r3, #20]
 8003da6:	f403 6380 	and.w	r3, r3, #1024	; 0x400
 8003daa:	f5b3 6f80 	cmp.w	r3, #1024	; 0x400
 8003dae:	d112      	bne.n	8003dd6 <HAL_PWREx_ControlVoltageScaling+0x12e>
 8003db0:	2303      	movs	r3, #3
 8003db2:	e011      	b.n	8003dd8 <HAL_PWREx_ControlVoltageScaling+0x130>
 8003db4:	4b0b      	ldr	r3, [pc, #44]	; (8003de4 <HAL_PWREx_ControlVoltageScaling+0x13c>)
 8003db6:	f8d3 3080 	ldr.w	r3, [r3, #128]	; 0x80
 8003dba:	4a0a      	ldr	r2, [pc, #40]	; (8003de4 <HAL_PWREx_ControlVoltageScaling+0x13c>)
 8003dbc:	f443 7380 	orr.w	r3, r3, #256	; 0x100
 8003dc0:	f8c2 3080 	str.w	r3, [r2, #128]	; 0x80
 8003dc4:	e007      	b.n	8003dd6 <HAL_PWREx_ControlVoltageScaling+0x12e>
 8003dc6:	4b07      	ldr	r3, [pc, #28]	; (8003de4 <HAL_PWREx_ControlVoltageScaling+0x13c>)
 8003dc8:	681b      	ldr	r3, [r3, #0]
 8003dca:	f423 63c0 	bic.w	r3, r3, #1536	; 0x600
 8003dce:	4a05      	ldr	r2, [pc, #20]	; (8003de4 <HAL_PWREx_ControlVoltageScaling+0x13c>)
 8003dd0:	f443 6380 	orr.w	r3, r3, #1024	; 0x400
 8003dd4:	6013      	str	r3, [r2, #0]
 8003dd6:	2300      	movs	r3, #0
 8003dd8:	4618      	mov	r0, r3
 8003dda:	3714      	adds	r7, #20
 8003ddc:	46bd      	mov	sp, r7
 8003dde:	f85d 7b04 	ldr.w	r7, [sp], #4
 8003de2:	4770      	bx	lr
 8003de4:	40007000 	.word	0x40007000
 8003de8:	2000200c 	.word	0x2000200c
 8003dec:	431bde83 	.word	0x431bde83

08003df0 <HAL_PWREx_DisableUCPDDeadBattery>:
 8003df0:	b480      	push	{r7}
 8003df2:	af00      	add	r7, sp, #0
 8003df4:	4b05      	ldr	r3, [pc, #20]	; (8003e0c <HAL_PWREx_DisableUCPDDeadBattery+0x1c>)
 8003df6:	689b      	ldr	r3, [r3, #8]
 8003df8:	4a04      	ldr	r2, [pc, #16]	; (8003e0c <HAL_PWREx_DisableUCPDDeadBattery+0x1c>)
 8003dfa:	f443 4380 	orr.w	r3, r3, #16384	; 0x4000
 8003dfe:	6093      	str	r3, [r2, #8]
 8003e00:	bf00      	nop
 8003e02:	46bd      	mov	sp, r7
 8003e04:	f85d 7b04 	ldr.w	r7, [sp], #4
 8003e08:	4770      	bx	lr
 8003e0a:	bf00      	nop
 8003e0c:	40007000 	.word	0x40007000

08003e10 <HAL_RCC_OscConfig>:
 8003e10:	b580      	push	{r7, lr}
 8003e12:	b088      	sub	sp, #32
 8003e14:	af00      	add	r7, sp, #0
 8003e16:	6078      	str	r0, [r7, #4]
 8003e18:	687b      	ldr	r3, [r7, #4]
 8003e1a:	2b00      	cmp	r3, #0
 8003e1c:	d101      	bne.n	8003e22 <HAL_RCC_OscConfig+0x12>
 8003e1e:	2301      	movs	r3, #1
 8003e20:	e308      	b.n	8004434 <HAL_RCC_OscConfig+0x624>
 8003e22:	687b      	ldr	r3, [r7, #4]
 8003e24:	681b      	ldr	r3, [r3, #0]
 8003e26:	f003 0301 	and.w	r3, r3, #1
 8003e2a:	2b00      	cmp	r3, #0
 8003e2c:	d075      	beq.n	8003f1a <HAL_RCC_OscConfig+0x10a>
 8003e2e:	4ba3      	ldr	r3, [pc, #652]	; (80040bc <HAL_RCC_OscConfig+0x2ac>)
 8003e30:	689b      	ldr	r3, [r3, #8]
 8003e32:	f003 030c 	and.w	r3, r3, #12
 8003e36:	61bb      	str	r3, [r7, #24]
 8003e38:	4ba0      	ldr	r3, [pc, #640]	; (80040bc <HAL_RCC_OscConfig+0x2ac>)
 8003e3a:	68db      	ldr	r3, [r3, #12]
 8003e3c:	f003 0303 	and.w	r3, r3, #3
 8003e40:	617b      	str	r3, [r7, #20]
 8003e42:	69bb      	ldr	r3, [r7, #24]
 8003e44:	2b0c      	cmp	r3, #12
 8003e46:	d102      	bne.n	8003e4e <HAL_RCC_OscConfig+0x3e>
 8003e48:	697b      	ldr	r3, [r7, #20]
 8003e4a:	2b03      	cmp	r3, #3
 8003e4c:	d002      	beq.n	8003e54 <HAL_RCC_OscConfig+0x44>
 8003e4e:	69bb      	ldr	r3, [r7, #24]
 8003e50:	2b08      	cmp	r3, #8
 8003e52:	d10b      	bne.n	8003e6c <HAL_RCC_OscConfig+0x5c>
 8003e54:	4b99      	ldr	r3, [pc, #612]	; (80040bc <HAL_RCC_OscConfig+0x2ac>)
 8003e56:	681b      	ldr	r3, [r3, #0]
 8003e58:	f403 3300 	and.w	r3, r3, #131072	; 0x20000
 8003e5c:	2b00      	cmp	r3, #0
 8003e5e:	d05b      	beq.n	8003f18 <HAL_RCC_OscConfig+0x108>
 8003e60:	687b      	ldr	r3, [r7, #4]
 8003e62:	685b      	ldr	r3, [r3, #4]
 8003e64:	2b00      	cmp	r3, #0
 8003e66:	d157      	bne.n	8003f18 <HAL_RCC_OscConfig+0x108>
 8003e68:	2301      	movs	r3, #1
 8003e6a:	e2e3      	b.n	8004434 <HAL_RCC_OscConfig+0x624>
 8003e6c:	687b      	ldr	r3, [r7, #4]
 8003e6e:	685b      	ldr	r3, [r3, #4]
 8003e70:	f5b3 3f80 	cmp.w	r3, #65536	; 0x10000
 8003e74:	d106      	bne.n	8003e84 <HAL_RCC_OscConfig+0x74>
 8003e76:	4b91      	ldr	r3, [pc, #580]	; (80040bc <HAL_RCC_OscConfig+0x2ac>)
 8003e78:	681b      	ldr	r3, [r3, #0]
 8003e7a:	4a90      	ldr	r2, [pc, #576]	; (80040bc <HAL_RCC_OscConfig+0x2ac>)
 8003e7c:	f443 3380 	orr.w	r3, r3, #65536	; 0x10000
 8003e80:	6013      	str	r3, [r2, #0]
 8003e82:	e01d      	b.n	8003ec0 <HAL_RCC_OscConfig+0xb0>
 8003e84:	687b      	ldr	r3, [r7, #4]
 8003e86:	685b      	ldr	r3, [r3, #4]
 8003e88:	f5b3 2fa0 	cmp.w	r3, #327680	; 0x50000
 8003e8c:	d10c      	bne.n	8003ea8 <HAL_RCC_OscConfig+0x98>
 8003e8e:	4b8b      	ldr	r3, [pc, #556]	; (80040bc <HAL_RCC_OscConfig+0x2ac>)
 8003e90:	681b      	ldr	r3, [r3, #0]
 8003e92:	4a8a      	ldr	r2, [pc, #552]	; (80040bc <HAL_RCC_OscConfig+0x2ac>)
 8003e94:	f443 2380 	orr.w	r3, r3, #262144	; 0x40000
 8003e98:	6013      	str	r3, [r2, #0]
 8003e9a:	4b88      	ldr	r3, [pc, #544]	; (80040bc <HAL_RCC_OscConfig+0x2ac>)
 8003e9c:	681b      	ldr	r3, [r3, #0]
 8003e9e:	4a87      	ldr	r2, [pc, #540]	; (80040bc <HAL_RCC_OscConfig+0x2ac>)
 8003ea0:	f443 3380 	orr.w	r3, r3, #65536	; 0x10000
 8003ea4:	6013      	str	r3, [r2, #0]
 8003ea6:	e00b      	b.n	8003ec0 <HAL_RCC_OscConfig+0xb0>
 8003ea8:	4b84      	ldr	r3, [pc, #528]	; (80040bc <HAL_RCC_OscConfig+0x2ac>)
 8003eaa:	681b      	ldr	r3, [r3, #0]
 8003eac:	4a83      	ldr	r2, [pc, #524]	; (80040bc <HAL_RCC_OscConfig+0x2ac>)
 8003eae:	f423 3380 	bic.w	r3, r3, #65536	; 0x10000
 8003eb2:	6013      	str	r3, [r2, #0]
 8003eb4:	4b81      	ldr	r3, [pc, #516]	; (80040bc <HAL_RCC_OscConfig+0x2ac>)
 8003eb6:	681b      	ldr	r3, [r3, #0]
 8003eb8:	4a80      	ldr	r2, [pc, #512]	; (80040bc <HAL_RCC_OscConfig+0x2ac>)
 8003eba:	f423 2380 	bic.w	r3, r3, #262144	; 0x40000
 8003ebe:	6013      	str	r3, [r2, #0]
 8003ec0:	687b      	ldr	r3, [r7, #4]
 8003ec2:	685b      	ldr	r3, [r3, #4]
 8003ec4:	2b00      	cmp	r3, #0
 8003ec6:	d013      	beq.n	8003ef0 <HAL_RCC_OscConfig+0xe0>
 8003ec8:	f7fd fd4c 	bl	8001964 <HAL_GetTick>
 8003ecc:	6138      	str	r0, [r7, #16]
 8003ece:	e008      	b.n	8003ee2 <HAL_RCC_OscConfig+0xd2>
 8003ed0:	f7fd fd48 	bl	8001964 <HAL_GetTick>
 8003ed4:	4602      	mov	r2, r0
 8003ed6:	693b      	ldr	r3, [r7, #16]
 8003ed8:	1ad3      	subs	r3, r2, r3
 8003eda:	2b64      	cmp	r3, #100	; 0x64
 8003edc:	d901      	bls.n	8003ee2 <HAL_RCC_OscConfig+0xd2>
 8003ede:	2303      	movs	r3, #3
 8003ee0:	e2a8      	b.n	8004434 <HAL_RCC_OscConfig+0x624>
 8003ee2:	4b76      	ldr	r3, [pc, #472]	; (80040bc <HAL_RCC_OscConfig+0x2ac>)
 8003ee4:	681b      	ldr	r3, [r3, #0]
 8003ee6:	f403 3300 	and.w	r3, r3, #131072	; 0x20000
 8003eea:	2b00      	cmp	r3, #0
 8003eec:	d0f0      	beq.n	8003ed0 <HAL_RCC_OscConfig+0xc0>
 8003eee:	e014      	b.n	8003f1a <HAL_RCC_OscConfig+0x10a>
 8003ef0:	f7fd fd38 	bl	8001964 <HAL_GetTick>
 8003ef4:	6138      	str	r0, [r7, #16]
 8003ef6:	e008      	b.n	8003f0a <HAL_RCC_OscConfig+0xfa>
 8003ef8:	f7fd fd34 	bl	8001964 <HAL_GetTick>
 8003efc:	4602      	mov	r2, r0
 8003efe:	693b      	ldr	r3, [r7, #16]
 8003f00:	1ad3      	subs	r3, r2, r3
 8003f02:	2b64      	cmp	r3, #100	; 0x64
 8003f04:	d901      	bls.n	8003f0a <HAL_RCC_OscConfig+0xfa>
 8003f06:	2303      	movs	r3, #3
 8003f08:	e294      	b.n	8004434 <HAL_RCC_OscConfig+0x624>
 8003f0a:	4b6c      	ldr	r3, [pc, #432]	; (80040bc <HAL_RCC_OscConfig+0x2ac>)
 8003f0c:	681b      	ldr	r3, [r3, #0]
 8003f0e:	f403 3300 	and.w	r3, r3, #131072	; 0x20000
 8003f12:	2b00      	cmp	r3, #0
 8003f14:	d1f0      	bne.n	8003ef8 <HAL_RCC_OscConfig+0xe8>
 8003f16:	e000      	b.n	8003f1a <HAL_RCC_OscConfig+0x10a>
 8003f18:	bf00      	nop
 8003f1a:	687b      	ldr	r3, [r7, #4]
 8003f1c:	681b      	ldr	r3, [r3, #0]
 8003f1e:	f003 0302 	and.w	r3, r3, #2
 8003f22:	2b00      	cmp	r3, #0
 8003f24:	d075      	beq.n	8004012 <HAL_RCC_OscConfig+0x202>
 8003f26:	4b65      	ldr	r3, [pc, #404]	; (80040bc <HAL_RCC_OscConfig+0x2ac>)
 8003f28:	689b      	ldr	r3, [r3, #8]
 8003f2a:	f003 030c 	and.w	r3, r3, #12
 8003f2e:	61bb      	str	r3, [r7, #24]
 8003f30:	4b62      	ldr	r3, [pc, #392]	; (80040bc <HAL_RCC_OscConfig+0x2ac>)
 8003f32:	68db      	ldr	r3, [r3, #12]
 8003f34:	f003 0303 	and.w	r3, r3, #3
 8003f38:	617b      	str	r3, [r7, #20]
 8003f3a:	69bb      	ldr	r3, [r7, #24]
 8003f3c:	2b0c      	cmp	r3, #12
 8003f3e:	d102      	bne.n	8003f46 <HAL_RCC_OscConfig+0x136>
 8003f40:	697b      	ldr	r3, [r7, #20]
 8003f42:	2b02      	cmp	r3, #2
 8003f44:	d002      	beq.n	8003f4c <HAL_RCC_OscConfig+0x13c>
 8003f46:	69bb      	ldr	r3, [r7, #24]
 8003f48:	2b04      	cmp	r3, #4
 8003f4a:	d11f      	bne.n	8003f8c <HAL_RCC_OscConfig+0x17c>
 8003f4c:	4b5b      	ldr	r3, [pc, #364]	; (80040bc <HAL_RCC_OscConfig+0x2ac>)
 8003f4e:	681b      	ldr	r3, [r3, #0]
 8003f50:	f403 6380 	and.w	r3, r3, #1024	; 0x400
 8003f54:	2b00      	cmp	r3, #0
 8003f56:	d005      	beq.n	8003f64 <HAL_RCC_OscConfig+0x154>
 8003f58:	687b      	ldr	r3, [r7, #4]
 8003f5a:	68db      	ldr	r3, [r3, #12]
 8003f5c:	2b00      	cmp	r3, #0
 8003f5e:	d101      	bne.n	8003f64 <HAL_RCC_OscConfig+0x154>
 8003f60:	2301      	movs	r3, #1
 8003f62:	e267      	b.n	8004434 <HAL_RCC_OscConfig+0x624>
 8003f64:	4b55      	ldr	r3, [pc, #340]	; (80040bc <HAL_RCC_OscConfig+0x2ac>)
 8003f66:	685b      	ldr	r3, [r3, #4]
 8003f68:	f023 42fe 	bic.w	r2, r3, #2130706432	; 0x7f000000
 8003f6c:	687b      	ldr	r3, [r7, #4]
 8003f6e:	691b      	ldr	r3, [r3, #16]
 8003f70:	061b      	lsls	r3, r3, #24
 8003f72:	4952      	ldr	r1, [pc, #328]	; (80040bc <HAL_RCC_OscConfig+0x2ac>)
 8003f74:	4313      	orrs	r3, r2
 8003f76:	604b      	str	r3, [r1, #4]
 8003f78:	4b51      	ldr	r3, [pc, #324]	; (80040c0 <HAL_RCC_OscConfig+0x2b0>)
 8003f7a:	681b      	ldr	r3, [r3, #0]
 8003f7c:	4618      	mov	r0, r3
 8003f7e:	f7fd fca5 	bl	80018cc <HAL_InitTick>
 8003f82:	4603      	mov	r3, r0
 8003f84:	2b00      	cmp	r3, #0
 8003f86:	d043      	beq.n	8004010 <HAL_RCC_OscConfig+0x200>
 8003f88:	2301      	movs	r3, #1
 8003f8a:	e253      	b.n	8004434 <HAL_RCC_OscConfig+0x624>
 8003f8c:	687b      	ldr	r3, [r7, #4]
 8003f8e:	68db      	ldr	r3, [r3, #12]
 8003f90:	2b00      	cmp	r3, #0
 8003f92:	d023      	beq.n	8003fdc <HAL_RCC_OscConfig+0x1cc>
 8003f94:	4b49      	ldr	r3, [pc, #292]	; (80040bc <HAL_RCC_OscConfig+0x2ac>)
 8003f96:	681b      	ldr	r3, [r3, #0]
 8003f98:	4a48      	ldr	r2, [pc, #288]	; (80040bc <HAL_RCC_OscConfig+0x2ac>)
 8003f9a:	f443 7380 	orr.w	r3, r3, #256	; 0x100
 8003f9e:	6013      	str	r3, [r2, #0]
 8003fa0:	f7fd fce0 	bl	8001964 <HAL_GetTick>
 8003fa4:	6138      	str	r0, [r7, #16]
 8003fa6:	e008      	b.n	8003fba <HAL_RCC_OscConfig+0x1aa>
 8003fa8:	f7fd fcdc 	bl	8001964 <HAL_GetTick>
 8003fac:	4602      	mov	r2, r0
 8003fae:	693b      	ldr	r3, [r7, #16]
 8003fb0:	1ad3      	subs	r3, r2, r3
 8003fb2:	2b02      	cmp	r3, #2
 8003fb4:	d901      	bls.n	8003fba <HAL_RCC_OscConfig+0x1aa>
 8003fb6:	2303      	movs	r3, #3
 8003fb8:	e23c      	b.n	8004434 <HAL_RCC_OscConfig+0x624>
 8003fba:	4b40      	ldr	r3, [pc, #256]	; (80040bc <HAL_RCC_OscConfig+0x2ac>)
 8003fbc:	681b      	ldr	r3, [r3, #0]
 8003fbe:	f403 6380 	and.w	r3, r3, #1024	; 0x400
 8003fc2:	2b00      	cmp	r3, #0
 8003fc4:	d0f0      	beq.n	8003fa8 <HAL_RCC_OscConfig+0x198>
 8003fc6:	4b3d      	ldr	r3, [pc, #244]	; (80040bc <HAL_RCC_OscConfig+0x2ac>)
 8003fc8:	685b      	ldr	r3, [r3, #4]
 8003fca:	f023 42fe 	bic.w	r2, r3, #2130706432	; 0x7f000000
 8003fce:	687b      	ldr	r3, [r7, #4]
 8003fd0:	691b      	ldr	r3, [r3, #16]
 8003fd2:	061b      	lsls	r3, r3, #24
 8003fd4:	4939      	ldr	r1, [pc, #228]	; (80040bc <HAL_RCC_OscConfig+0x2ac>)
 8003fd6:	4313      	orrs	r3, r2
 8003fd8:	604b      	str	r3, [r1, #4]
 8003fda:	e01a      	b.n	8004012 <HAL_RCC_OscConfig+0x202>
 8003fdc:	4b37      	ldr	r3, [pc, #220]	; (80040bc <HAL_RCC_OscConfig+0x2ac>)
 8003fde:	681b      	ldr	r3, [r3, #0]
 8003fe0:	4a36      	ldr	r2, [pc, #216]	; (80040bc <HAL_RCC_OscConfig+0x2ac>)
 8003fe2:	f423 7380 	bic.w	r3, r3, #256	; 0x100
 8003fe6:	6013      	str	r3, [r2, #0]
 8003fe8:	f7fd fcbc 	bl	8001964 <HAL_GetTick>
 8003fec:	6138      	str	r0, [r7, #16]
 8003fee:	e008      	b.n	8004002 <HAL_RCC_OscConfig+0x1f2>
 8003ff0:	f7fd fcb8 	bl	8001964 <HAL_GetTick>
 8003ff4:	4602      	mov	r2, r0
 8003ff6:	693b      	ldr	r3, [r7, #16]
 8003ff8:	1ad3      	subs	r3, r2, r3
 8003ffa:	2b02      	cmp	r3, #2
 8003ffc:	d901      	bls.n	8004002 <HAL_RCC_OscConfig+0x1f2>
 8003ffe:	2303      	movs	r3, #3
 8004000:	e218      	b.n	8004434 <HAL_RCC_OscConfig+0x624>
 8004002:	4b2e      	ldr	r3, [pc, #184]	; (80040bc <HAL_RCC_OscConfig+0x2ac>)
 8004004:	681b      	ldr	r3, [r3, #0]
 8004006:	f403 6380 	and.w	r3, r3, #1024	; 0x400
 800400a:	2b00      	cmp	r3, #0
 800400c:	d1f0      	bne.n	8003ff0 <HAL_RCC_OscConfig+0x1e0>
 800400e:	e000      	b.n	8004012 <HAL_RCC_OscConfig+0x202>
 8004010:	bf00      	nop
 8004012:	687b      	ldr	r3, [r7, #4]
 8004014:	681b      	ldr	r3, [r3, #0]
 8004016:	f003 0308 	and.w	r3, r3, #8
 800401a:	2b00      	cmp	r3, #0
 800401c:	d03c      	beq.n	8004098 <HAL_RCC_OscConfig+0x288>
 800401e:	687b      	ldr	r3, [r7, #4]
 8004020:	695b      	ldr	r3, [r3, #20]
 8004022:	2b00      	cmp	r3, #0
 8004024:	d01c      	beq.n	8004060 <HAL_RCC_OscConfig+0x250>
 8004026:	4b25      	ldr	r3, [pc, #148]	; (80040bc <HAL_RCC_OscConfig+0x2ac>)
 8004028:	f8d3 3094 	ldr.w	r3, [r3, #148]	; 0x94
 800402c:	4a23      	ldr	r2, [pc, #140]	; (80040bc <HAL_RCC_OscConfig+0x2ac>)
 800402e:	f043 0301 	orr.w	r3, r3, #1
 8004032:	f8c2 3094 	str.w	r3, [r2, #148]	; 0x94
 8004036:	f7fd fc95 	bl	8001964 <HAL_GetTick>
 800403a:	6138      	str	r0, [r7, #16]
 800403c:	e008      	b.n	8004050 <HAL_RCC_OscConfig+0x240>
 800403e:	f7fd fc91 	bl	8001964 <HAL_GetTick>
 8004042:	4602      	mov	r2, r0
 8004044:	693b      	ldr	r3, [r7, #16]
 8004046:	1ad3      	subs	r3, r2, r3
 8004048:	2b02      	cmp	r3, #2
 800404a:	d901      	bls.n	8004050 <HAL_RCC_OscConfig+0x240>
 800404c:	2303      	movs	r3, #3
 800404e:	e1f1      	b.n	8004434 <HAL_RCC_OscConfig+0x624>
 8004050:	4b1a      	ldr	r3, [pc, #104]	; (80040bc <HAL_RCC_OscConfig+0x2ac>)
 8004052:	f8d3 3094 	ldr.w	r3, [r3, #148]	; 0x94
 8004056:	f003 0302 	and.w	r3, r3, #2
 800405a:	2b00      	cmp	r3, #0
 800405c:	d0ef      	beq.n	800403e <HAL_RCC_OscConfig+0x22e>
 800405e:	e01b      	b.n	8004098 <HAL_RCC_OscConfig+0x288>
 8004060:	4b16      	ldr	r3, [pc, #88]	; (80040bc <HAL_RCC_OscConfig+0x2ac>)
 8004062:	f8d3 3094 	ldr.w	r3, [r3, #148]	; 0x94
 8004066:	4a15      	ldr	r2, [pc, #84]	; (80040bc <HAL_RCC_OscConfig+0x2ac>)
 8004068:	f023 0301 	bic.w	r3, r3, #1
 800406c:	f8c2 3094 	str.w	r3, [r2, #148]	; 0x94
 8004070:	f7fd fc78 	bl	8001964 <HAL_GetTick>
 8004074:	6138      	str	r0, [r7, #16]
 8004076:	e008      	b.n	800408a <HAL_RCC_OscConfig+0x27a>
 8004078:	f7fd fc74 	bl	8001964 <HAL_GetTick>
 800407c:	4602      	mov	r2, r0
 800407e:	693b      	ldr	r3, [r7, #16]
 8004080:	1ad3      	subs	r3, r2, r3
 8004082:	2b02      	cmp	r3, #2
 8004084:	d901      	bls.n	800408a <HAL_RCC_OscConfig+0x27a>
 8004086:	2303      	movs	r3, #3
 8004088:	e1d4      	b.n	8004434 <HAL_RCC_OscConfig+0x624>
 800408a:	4b0c      	ldr	r3, [pc, #48]	; (80040bc <HAL_RCC_OscConfig+0x2ac>)
 800408c:	f8d3 3094 	ldr.w	r3, [r3, #148]	; 0x94
 8004090:	f003 0302 	and.w	r3, r3, #2
 8004094:	2b00      	cmp	r3, #0
 8004096:	d1ef      	bne.n	8004078 <HAL_RCC_OscConfig+0x268>
 8004098:	687b      	ldr	r3, [r7, #4]
 800409a:	681b      	ldr	r3, [r3, #0]
 800409c:	f003 0304 	and.w	r3, r3, #4
 80040a0:	2b00      	cmp	r3, #0
 80040a2:	f000 80ab 	beq.w	80041fc <HAL_RCC_OscConfig+0x3ec>
 80040a6:	2300      	movs	r3, #0
 80040a8:	77fb      	strb	r3, [r7, #31]
 80040aa:	4b04      	ldr	r3, [pc, #16]	; (80040bc <HAL_RCC_OscConfig+0x2ac>)
 80040ac:	6d9b      	ldr	r3, [r3, #88]	; 0x58
 80040ae:	f003 5380 	and.w	r3, r3, #268435456	; 0x10000000
 80040b2:	2b00      	cmp	r3, #0
 80040b4:	d106      	bne.n	80040c4 <HAL_RCC_OscConfig+0x2b4>
 80040b6:	2301      	movs	r3, #1
 80040b8:	e005      	b.n	80040c6 <HAL_RCC_OscConfig+0x2b6>
 80040ba:	bf00      	nop
 80040bc:	40021000 	.word	0x40021000
 80040c0:	20002010 	.word	0x20002010
 80040c4:	2300      	movs	r3, #0
 80040c6:	2b00      	cmp	r3, #0
 80040c8:	d00d      	beq.n	80040e6 <HAL_RCC_OscConfig+0x2d6>
 80040ca:	4baf      	ldr	r3, [pc, #700]	; (8004388 <HAL_RCC_OscConfig+0x578>)
 80040cc:	6d9b      	ldr	r3, [r3, #88]	; 0x58
 80040ce:	4aae      	ldr	r2, [pc, #696]	; (8004388 <HAL_RCC_OscConfig+0x578>)
 80040d0:	f043 5380 	orr.w	r3, r3, #268435456	; 0x10000000
 80040d4:	6593      	str	r3, [r2, #88]	; 0x58
 80040d6:	4bac      	ldr	r3, [pc, #688]	; (8004388 <HAL_RCC_OscConfig+0x578>)
 80040d8:	6d9b      	ldr	r3, [r3, #88]	; 0x58
 80040da:	f003 5380 	and.w	r3, r3, #268435456	; 0x10000000
 80040de:	60fb      	str	r3, [r7, #12]
 80040e0:	68fb      	ldr	r3, [r7, #12]
 80040e2:	2301      	movs	r3, #1
 80040e4:	77fb      	strb	r3, [r7, #31]
 80040e6:	4ba9      	ldr	r3, [pc, #676]	; (800438c <HAL_RCC_OscConfig+0x57c>)
 80040e8:	681b      	ldr	r3, [r3, #0]
 80040ea:	f403 7380 	and.w	r3, r3, #256	; 0x100
 80040ee:	2b00      	cmp	r3, #0
 80040f0:	d118      	bne.n	8004124 <HAL_RCC_OscConfig+0x314>
 80040f2:	4ba6      	ldr	r3, [pc, #664]	; (800438c <HAL_RCC_OscConfig+0x57c>)
 80040f4:	681b      	ldr	r3, [r3, #0]
 80040f6:	4aa5      	ldr	r2, [pc, #660]	; (800438c <HAL_RCC_OscConfig+0x57c>)
 80040f8:	f443 7380 	orr.w	r3, r3, #256	; 0x100
 80040fc:	6013      	str	r3, [r2, #0]
 80040fe:	f7fd fc31 	bl	8001964 <HAL_GetTick>
 8004102:	6138      	str	r0, [r7, #16]
 8004104:	e008      	b.n	8004118 <HAL_RCC_OscConfig+0x308>
 8004106:	f7fd fc2d 	bl	8001964 <HAL_GetTick>
 800410a:	4602      	mov	r2, r0
 800410c:	693b      	ldr	r3, [r7, #16]
 800410e:	1ad3      	subs	r3, r2, r3
 8004110:	2b02      	cmp	r3, #2
 8004112:	d901      	bls.n	8004118 <HAL_RCC_OscConfig+0x308>
 8004114:	2303      	movs	r3, #3
 8004116:	e18d      	b.n	8004434 <HAL_RCC_OscConfig+0x624>
 8004118:	4b9c      	ldr	r3, [pc, #624]	; (800438c <HAL_RCC_OscConfig+0x57c>)
 800411a:	681b      	ldr	r3, [r3, #0]
 800411c:	f403 7380 	and.w	r3, r3, #256	; 0x100
 8004120:	2b00      	cmp	r3, #0
 8004122:	d0f0      	beq.n	8004106 <HAL_RCC_OscConfig+0x2f6>
 8004124:	687b      	ldr	r3, [r7, #4]
 8004126:	689b      	ldr	r3, [r3, #8]
 8004128:	2b01      	cmp	r3, #1
 800412a:	d108      	bne.n	800413e <HAL_RCC_OscConfig+0x32e>
 800412c:	4b96      	ldr	r3, [pc, #600]	; (8004388 <HAL_RCC_OscConfig+0x578>)
 800412e:	f8d3 3090 	ldr.w	r3, [r3, #144]	; 0x90
 8004132:	4a95      	ldr	r2, [pc, #596]	; (8004388 <HAL_RCC_OscConfig+0x578>)
 8004134:	f043 0301 	orr.w	r3, r3, #1
 8004138:	f8c2 3090 	str.w	r3, [r2, #144]	; 0x90
 800413c:	e024      	b.n	8004188 <HAL_RCC_OscConfig+0x378>
 800413e:	687b      	ldr	r3, [r7, #4]
 8004140:	689b      	ldr	r3, [r3, #8]
 8004142:	2b05      	cmp	r3, #5
 8004144:	d110      	bne.n	8004168 <HAL_RCC_OscConfig+0x358>
 8004146:	4b90      	ldr	r3, [pc, #576]	; (8004388 <HAL_RCC_OscConfig+0x578>)
 8004148:	f8d3 3090 	ldr.w	r3, [r3, #144]	; 0x90
 800414c:	4a8e      	ldr	r2, [pc, #568]	; (8004388 <HAL_RCC_OscConfig+0x578>)
 800414e:	f043 0304 	orr.w	r3, r3, #4
 8004152:	f8c2 3090 	str.w	r3, [r2, #144]	; 0x90
 8004156:	4b8c      	ldr	r3, [pc, #560]	; (8004388 <HAL_RCC_OscConfig+0x578>)
 8004158:	f8d3 3090 	ldr.w	r3, [r3, #144]	; 0x90
 800415c:	4a8a      	ldr	r2, [pc, #552]	; (8004388 <HAL_RCC_OscConfig+0x578>)
 800415e:	f043 0301 	orr.w	r3, r3, #1
 8004162:	f8c2 3090 	str.w	r3, [r2, #144]	; 0x90
 8004166:	e00f      	b.n	8004188 <HAL_RCC_OscConfig+0x378>
 8004168:	4b87      	ldr	r3, [pc, #540]	; (8004388 <HAL_RCC_OscConfig+0x578>)
 800416a:	f8d3 3090 	ldr.w	r3, [r3, #144]	; 0x90
 800416e:	4a86      	ldr	r2, [pc, #536]	; (8004388 <HAL_RCC_OscConfig+0x578>)
 8004170:	f023 0301 	bic.w	r3, r3, #1
 8004174:	f8c2 3090 	str.w	r3, [r2, #144]	; 0x90
 8004178:	4b83      	ldr	r3, [pc, #524]	; (8004388 <HAL_RCC_OscConfig+0x578>)
 800417a:	f8d3 3090 	ldr.w	r3, [r3, #144]	; 0x90
 800417e:	4a82      	ldr	r2, [pc, #520]	; (8004388 <HAL_RCC_OscConfig+0x578>)
 8004180:	f023 0304 	bic.w	r3, r3, #4
 8004184:	f8c2 3090 	str.w	r3, [r2, #144]	; 0x90
 8004188:	687b      	ldr	r3, [r7, #4]
 800418a:	689b      	ldr	r3, [r3, #8]
 800418c:	2b00      	cmp	r3, #0
 800418e:	d016      	beq.n	80041be <HAL_RCC_OscConfig+0x3ae>
 8004190:	f7fd fbe8 	bl	8001964 <HAL_GetTick>
 8004194:	6138      	str	r0, [r7, #16]
 8004196:	e00a      	b.n	80041ae <HAL_RCC_OscConfig+0x39e>
 8004198:	f7fd fbe4 	bl	8001964 <HAL_GetTick>
 800419c:	4602      	mov	r2, r0
 800419e:	693b      	ldr	r3, [r7, #16]
 80041a0:	1ad3      	subs	r3, r2, r3
 80041a2:	f241 3288 	movw	r2, #5000	; 0x1388
 80041a6:	4293      	cmp	r3, r2
 80041a8:	d901      	bls.n	80041ae <HAL_RCC_OscConfig+0x39e>
 80041aa:	2303      	movs	r3, #3
 80041ac:	e142      	b.n	8004434 <HAL_RCC_OscConfig+0x624>
 80041ae:	4b76      	ldr	r3, [pc, #472]	; (8004388 <HAL_RCC_OscConfig+0x578>)
 80041b0:	f8d3 3090 	ldr.w	r3, [r3, #144]	; 0x90
 80041b4:	f003 0302 	and.w	r3, r3, #2
 80041b8:	2b00      	cmp	r3, #0
 80041ba:	d0ed      	beq.n	8004198 <HAL_RCC_OscConfig+0x388>
 80041bc:	e015      	b.n	80041ea <HAL_RCC_OscConfig+0x3da>
 80041be:	f7fd fbd1 	bl	8001964 <HAL_GetTick>
 80041c2:	6138      	str	r0, [r7, #16]
 80041c4:	e00a      	b.n	80041dc <HAL_RCC_OscConfig+0x3cc>
 80041c6:	f7fd fbcd 	bl	8001964 <HAL_GetTick>
 80041ca:	4602      	mov	r2, r0
 80041cc:	693b      	ldr	r3, [r7, #16]
 80041ce:	1ad3      	subs	r3, r2, r3
 80041d0:	f241 3288 	movw	r2, #5000	; 0x1388
 80041d4:	4293      	cmp	r3, r2
 80041d6:	d901      	bls.n	80041dc <HAL_RCC_OscConfig+0x3cc>
 80041d8:	2303      	movs	r3, #3
 80041da:	e12b      	b.n	8004434 <HAL_RCC_OscConfig+0x624>
 80041dc:	4b6a      	ldr	r3, [pc, #424]	; (8004388 <HAL_RCC_OscConfig+0x578>)
 80041de:	f8d3 3090 	ldr.w	r3, [r3, #144]	; 0x90
 80041e2:	f003 0302 	and.w	r3, r3, #2
 80041e6:	2b00      	cmp	r3, #0
 80041e8:	d1ed      	bne.n	80041c6 <HAL_RCC_OscConfig+0x3b6>
 80041ea:	7ffb      	ldrb	r3, [r7, #31]
 80041ec:	2b01      	cmp	r3, #1
 80041ee:	d105      	bne.n	80041fc <HAL_RCC_OscConfig+0x3ec>
 80041f0:	4b65      	ldr	r3, [pc, #404]	; (8004388 <HAL_RCC_OscConfig+0x578>)
 80041f2:	6d9b      	ldr	r3, [r3, #88]	; 0x58
 80041f4:	4a64      	ldr	r2, [pc, #400]	; (8004388 <HAL_RCC_OscConfig+0x578>)
 80041f6:	f023 5380 	bic.w	r3, r3, #268435456	; 0x10000000
 80041fa:	6593      	str	r3, [r2, #88]	; 0x58
 80041fc:	687b      	ldr	r3, [r7, #4]
 80041fe:	681b      	ldr	r3, [r3, #0]
 8004200:	f003 0320 	and.w	r3, r3, #32
 8004204:	2b00      	cmp	r3, #0
 8004206:	d03c      	beq.n	8004282 <HAL_RCC_OscConfig+0x472>
 8004208:	687b      	ldr	r3, [r7, #4]
 800420a:	699b      	ldr	r3, [r3, #24]
 800420c:	2b00      	cmp	r3, #0
 800420e:	d01c      	beq.n	800424a <HAL_RCC_OscConfig+0x43a>
 8004210:	4b5d      	ldr	r3, [pc, #372]	; (8004388 <HAL_RCC_OscConfig+0x578>)
 8004212:	f8d3 3098 	ldr.w	r3, [r3, #152]	; 0x98
 8004216:	4a5c      	ldr	r2, [pc, #368]	; (8004388 <HAL_RCC_OscConfig+0x578>)
 8004218:	f043 0301 	orr.w	r3, r3, #1
 800421c:	f8c2 3098 	str.w	r3, [r2, #152]	; 0x98
 8004220:	f7fd fba0 	bl	8001964 <HAL_GetTick>
 8004224:	6138      	str	r0, [r7, #16]
 8004226:	e008      	b.n	800423a <HAL_RCC_OscConfig+0x42a>
 8004228:	f7fd fb9c 	bl	8001964 <HAL_GetTick>
 800422c:	4602      	mov	r2, r0
 800422e:	693b      	ldr	r3, [r7, #16]
 8004230:	1ad3      	subs	r3, r2, r3
 8004232:	2b02      	cmp	r3, #2
 8004234:	d901      	bls.n	800423a <HAL_RCC_OscConfig+0x42a>
 8004236:	2303      	movs	r3, #3
 8004238:	e0fc      	b.n	8004434 <HAL_RCC_OscConfig+0x624>
 800423a:	4b53      	ldr	r3, [pc, #332]	; (8004388 <HAL_RCC_OscConfig+0x578>)
 800423c:	f8d3 3098 	ldr.w	r3, [r3, #152]	; 0x98
 8004240:	f003 0302 	and.w	r3, r3, #2
 8004244:	2b00      	cmp	r3, #0
 8004246:	d0ef      	beq.n	8004228 <HAL_RCC_OscConfig+0x418>
 8004248:	e01b      	b.n	8004282 <HAL_RCC_OscConfig+0x472>
 800424a:	4b4f      	ldr	r3, [pc, #316]	; (8004388 <HAL_RCC_OscConfig+0x578>)
 800424c:	f8d3 3098 	ldr.w	r3, [r3, #152]	; 0x98
 8004250:	4a4d      	ldr	r2, [pc, #308]	; (8004388 <HAL_RCC_OscConfig+0x578>)
 8004252:	f023 0301 	bic.w	r3, r3, #1
 8004256:	f8c2 3098 	str.w	r3, [r2, #152]	; 0x98
 800425a:	f7fd fb83 	bl	8001964 <HAL_GetTick>
 800425e:	6138      	str	r0, [r7, #16]
 8004260:	e008      	b.n	8004274 <HAL_RCC_OscConfig+0x464>
 8004262:	f7fd fb7f 	bl	8001964 <HAL_GetTick>
 8004266:	4602      	mov	r2, r0
 8004268:	693b      	ldr	r3, [r7, #16]
 800426a:	1ad3      	subs	r3, r2, r3
 800426c:	2b02      	cmp	r3, #2
 800426e:	d901      	bls.n	8004274 <HAL_RCC_OscConfig+0x464>
 8004270:	2303      	movs	r3, #3
 8004272:	e0df      	b.n	8004434 <HAL_RCC_OscConfig+0x624>
 8004274:	4b44      	ldr	r3, [pc, #272]	; (8004388 <HAL_RCC_OscConfig+0x578>)
 8004276:	f8d3 3098 	ldr.w	r3, [r3, #152]	; 0x98
 800427a:	f003 0302 	and.w	r3, r3, #2
 800427e:	2b00      	cmp	r3, #0
 8004280:	d1ef      	bne.n	8004262 <HAL_RCC_OscConfig+0x452>
 8004282:	687b      	ldr	r3, [r7, #4]
 8004284:	69db      	ldr	r3, [r3, #28]
 8004286:	2b00      	cmp	r3, #0
 8004288:	f000 80d3 	beq.w	8004432 <HAL_RCC_OscConfig+0x622>
 800428c:	4b3e      	ldr	r3, [pc, #248]	; (8004388 <HAL_RCC_OscConfig+0x578>)
 800428e:	689b      	ldr	r3, [r3, #8]
 8004290:	f003 030c 	and.w	r3, r3, #12
 8004294:	2b0c      	cmp	r3, #12
 8004296:	f000 808d 	beq.w	80043b4 <HAL_RCC_OscConfig+0x5a4>
 800429a:	687b      	ldr	r3, [r7, #4]
 800429c:	69db      	ldr	r3, [r3, #28]
 800429e:	2b02      	cmp	r3, #2
 80042a0:	d15a      	bne.n	8004358 <HAL_RCC_OscConfig+0x548>
 80042a2:	4b39      	ldr	r3, [pc, #228]	; (8004388 <HAL_RCC_OscConfig+0x578>)
 80042a4:	681b      	ldr	r3, [r3, #0]
 80042a6:	4a38      	ldr	r2, [pc, #224]	; (8004388 <HAL_RCC_OscConfig+0x578>)
 80042a8:	f023 7380 	bic.w	r3, r3, #16777216	; 0x1000000
 80042ac:	6013      	str	r3, [r2, #0]
 80042ae:	f7fd fb59 	bl	8001964 <HAL_GetTick>
 80042b2:	6138      	str	r0, [r7, #16]
 80042b4:	e008      	b.n	80042c8 <HAL_RCC_OscConfig+0x4b8>
 80042b6:	f7fd fb55 	bl	8001964 <HAL_GetTick>
 80042ba:	4602      	mov	r2, r0
 80042bc:	693b      	ldr	r3, [r7, #16]
 80042be:	1ad3      	subs	r3, r2, r3
 80042c0:	2b02      	cmp	r3, #2
 80042c2:	d901      	bls.n	80042c8 <HAL_RCC_OscConfig+0x4b8>
 80042c4:	2303      	movs	r3, #3
 80042c6:	e0b5      	b.n	8004434 <HAL_RCC_OscConfig+0x624>
 80042c8:	4b2f      	ldr	r3, [pc, #188]	; (8004388 <HAL_RCC_OscConfig+0x578>)
 80042ca:	681b      	ldr	r3, [r3, #0]
 80042cc:	f003 7300 	and.w	r3, r3, #33554432	; 0x2000000
 80042d0:	2b00      	cmp	r3, #0
 80042d2:	d1f0      	bne.n	80042b6 <HAL_RCC_OscConfig+0x4a6>
 80042d4:	4b2c      	ldr	r3, [pc, #176]	; (8004388 <HAL_RCC_OscConfig+0x578>)
 80042d6:	68da      	ldr	r2, [r3, #12]
 80042d8:	4b2d      	ldr	r3, [pc, #180]	; (8004390 <HAL_RCC_OscConfig+0x580>)
 80042da:	4013      	ands	r3, r2
 80042dc:	687a      	ldr	r2, [r7, #4]
 80042de:	6a11      	ldr	r1, [r2, #32]
 80042e0:	687a      	ldr	r2, [r7, #4]
 80042e2:	6a52      	ldr	r2, [r2, #36]	; 0x24
 80042e4:	3a01      	subs	r2, #1
 80042e6:	0112      	lsls	r2, r2, #4
 80042e8:	4311      	orrs	r1, r2
 80042ea:	687a      	ldr	r2, [r7, #4]
 80042ec:	6a92      	ldr	r2, [r2, #40]	; 0x28
 80042ee:	0212      	lsls	r2, r2, #8
 80042f0:	4311      	orrs	r1, r2
 80042f2:	687a      	ldr	r2, [r7, #4]
 80042f4:	6b12      	ldr	r2, [r2, #48]	; 0x30
 80042f6:	0852      	lsrs	r2, r2, #1
 80042f8:	3a01      	subs	r2, #1
 80042fa:	0552      	lsls	r2, r2, #21
 80042fc:	4311      	orrs	r1, r2
 80042fe:	687a      	ldr	r2, [r7, #4]
 8004300:	6b52      	ldr	r2, [r2, #52]	; 0x34
 8004302:	0852      	lsrs	r2, r2, #1
 8004304:	3a01      	subs	r2, #1
 8004306:	0652      	lsls	r2, r2, #25
 8004308:	4311      	orrs	r1, r2
 800430a:	687a      	ldr	r2, [r7, #4]
 800430c:	6ad2      	ldr	r2, [r2, #44]	; 0x2c
 800430e:	06d2      	lsls	r2, r2, #27
 8004310:	430a      	orrs	r2, r1
 8004312:	491d      	ldr	r1, [pc, #116]	; (8004388 <HAL_RCC_OscConfig+0x578>)
 8004314:	4313      	orrs	r3, r2
 8004316:	60cb      	str	r3, [r1, #12]
 8004318:	4b1b      	ldr	r3, [pc, #108]	; (8004388 <HAL_RCC_OscConfig+0x578>)
 800431a:	681b      	ldr	r3, [r3, #0]
 800431c:	4a1a      	ldr	r2, [pc, #104]	; (8004388 <HAL_RCC_OscConfig+0x578>)
 800431e:	f043 7380 	orr.w	r3, r3, #16777216	; 0x1000000
 8004322:	6013      	str	r3, [r2, #0]
 8004324:	4b18      	ldr	r3, [pc, #96]	; (8004388 <HAL_RCC_OscConfig+0x578>)
 8004326:	68db      	ldr	r3, [r3, #12]
 8004328:	4a17      	ldr	r2, [pc, #92]	; (8004388 <HAL_RCC_OscConfig+0x578>)
 800432a:	f043 7380 	orr.w	r3, r3, #16777216	; 0x1000000
 800432e:	60d3      	str	r3, [r2, #12]
 8004330:	f7fd fb18 	bl	8001964 <HAL_GetTick>
 8004334:	6138      	str	r0, [r7, #16]
 8004336:	e008      	b.n	800434a <HAL_RCC_OscConfig+0x53a>
 8004338:	f7fd fb14 	bl	8001964 <HAL_GetTick>
 800433c:	4602      	mov	r2, r0
 800433e:	693b      	ldr	r3, [r7, #16]
 8004340:	1ad3      	subs	r3, r2, r3
 8004342:	2b02      	cmp	r3, #2
 8004344:	d901      	bls.n	800434a <HAL_RCC_OscConfig+0x53a>
 8004346:	2303      	movs	r3, #3
 8004348:	e074      	b.n	8004434 <HAL_RCC_OscConfig+0x624>
 800434a:	4b0f      	ldr	r3, [pc, #60]	; (8004388 <HAL_RCC_OscConfig+0x578>)
 800434c:	681b      	ldr	r3, [r3, #0]
 800434e:	f003 7300 	and.w	r3, r3, #33554432	; 0x2000000
 8004352:	2b00      	cmp	r3, #0
 8004354:	d0f0      	beq.n	8004338 <HAL_RCC_OscConfig+0x528>
 8004356:	e06c      	b.n	8004432 <HAL_RCC_OscConfig+0x622>
 8004358:	4b0b      	ldr	r3, [pc, #44]	; (8004388 <HAL_RCC_OscConfig+0x578>)
 800435a:	681b      	ldr	r3, [r3, #0]
 800435c:	4a0a      	ldr	r2, [pc, #40]	; (8004388 <HAL_RCC_OscConfig+0x578>)
 800435e:	f023 7380 	bic.w	r3, r3, #16777216	; 0x1000000
 8004362:	6013      	str	r3, [r2, #0]
 8004364:	4b08      	ldr	r3, [pc, #32]	; (8004388 <HAL_RCC_OscConfig+0x578>)
 8004366:	68db      	ldr	r3, [r3, #12]
 8004368:	4a07      	ldr	r2, [pc, #28]	; (8004388 <HAL_RCC_OscConfig+0x578>)
 800436a:	f023 0303 	bic.w	r3, r3, #3
 800436e:	60d3      	str	r3, [r2, #12]
 8004370:	4b05      	ldr	r3, [pc, #20]	; (8004388 <HAL_RCC_OscConfig+0x578>)
 8004372:	68db      	ldr	r3, [r3, #12]
 8004374:	4a04      	ldr	r2, [pc, #16]	; (8004388 <HAL_RCC_OscConfig+0x578>)
 8004376:	f023 7388 	bic.w	r3, r3, #17825792	; 0x1100000
 800437a:	f423 3380 	bic.w	r3, r3, #65536	; 0x10000
 800437e:	60d3      	str	r3, [r2, #12]
 8004380:	f7fd faf0 	bl	8001964 <HAL_GetTick>
 8004384:	6138      	str	r0, [r7, #16]
 8004386:	e00e      	b.n	80043a6 <HAL_RCC_OscConfig+0x596>
 8004388:	40021000 	.word	0x40021000
 800438c:	40007000 	.word	0x40007000
 8004390:	019f800c 	.word	0x019f800c
 8004394:	f7fd fae6 	bl	8001964 <HAL_GetTick>
 8004398:	4602      	mov	r2, r0
 800439a:	693b      	ldr	r3, [r7, #16]
 800439c:	1ad3      	subs	r3, r2, r3
 800439e:	2b02      	cmp	r3, #2
 80043a0:	d901      	bls.n	80043a6 <HAL_RCC_OscConfig+0x596>
 80043a2:	2303      	movs	r3, #3
 80043a4:	e046      	b.n	8004434 <HAL_RCC_OscConfig+0x624>
 80043a6:	4b25      	ldr	r3, [pc, #148]	; (800443c <HAL_RCC_OscConfig+0x62c>)
 80043a8:	681b      	ldr	r3, [r3, #0]
 80043aa:	f003 7300 	and.w	r3, r3, #33554432	; 0x2000000
 80043ae:	2b00      	cmp	r3, #0
 80043b0:	d1f0      	bne.n	8004394 <HAL_RCC_OscConfig+0x584>
 80043b2:	e03e      	b.n	8004432 <HAL_RCC_OscConfig+0x622>
 80043b4:	687b      	ldr	r3, [r7, #4]
 80043b6:	69db      	ldr	r3, [r3, #28]
 80043b8:	2b01      	cmp	r3, #1
 80043ba:	d101      	bne.n	80043c0 <HAL_RCC_OscConfig+0x5b0>
 80043bc:	2301      	movs	r3, #1
 80043be:	e039      	b.n	8004434 <HAL_RCC_OscConfig+0x624>
 80043c0:	4b1e      	ldr	r3, [pc, #120]	; (800443c <HAL_RCC_OscConfig+0x62c>)
 80043c2:	68db      	ldr	r3, [r3, #12]
 80043c4:	617b      	str	r3, [r7, #20]
 80043c6:	697b      	ldr	r3, [r7, #20]
 80043c8:	f003 0203 	and.w	r2, r3, #3
 80043cc:	687b      	ldr	r3, [r7, #4]
 80043ce:	6a1b      	ldr	r3, [r3, #32]
 80043d0:	429a      	cmp	r2, r3
 80043d2:	d12c      	bne.n	800442e <HAL_RCC_OscConfig+0x61e>
 80043d4:	697b      	ldr	r3, [r7, #20]
 80043d6:	f003 02f0 	and.w	r2, r3, #240	; 0xf0
 80043da:	687b      	ldr	r3, [r7, #4]
 80043dc:	6a5b      	ldr	r3, [r3, #36]	; 0x24
 80043de:	3b01      	subs	r3, #1
 80043e0:	011b      	lsls	r3, r3, #4
 80043e2:	429a      	cmp	r2, r3
 80043e4:	d123      	bne.n	800442e <HAL_RCC_OscConfig+0x61e>
 80043e6:	697b      	ldr	r3, [r7, #20]
 80043e8:	f403 42fe 	and.w	r2, r3, #32512	; 0x7f00
 80043ec:	687b      	ldr	r3, [r7, #4]
 80043ee:	6a9b      	ldr	r3, [r3, #40]	; 0x28
 80043f0:	021b      	lsls	r3, r3, #8
 80043f2:	429a      	cmp	r2, r3
 80043f4:	d11b      	bne.n	800442e <HAL_RCC_OscConfig+0x61e>
 80043f6:	697b      	ldr	r3, [r7, #20]
 80043f8:	f003 4278 	and.w	r2, r3, #4160749568	; 0xf8000000
 80043fc:	687b      	ldr	r3, [r7, #4]
 80043fe:	6adb      	ldr	r3, [r3, #44]	; 0x2c
 8004400:	06db      	lsls	r3, r3, #27
 8004402:	429a      	cmp	r2, r3
 8004404:	d113      	bne.n	800442e <HAL_RCC_OscConfig+0x61e>
 8004406:	697b      	ldr	r3, [r7, #20]
 8004408:	f403 02c0 	and.w	r2, r3, #6291456	; 0x600000
 800440c:	687b      	ldr	r3, [r7, #4]
 800440e:	6b1b      	ldr	r3, [r3, #48]	; 0x30
 8004410:	085b      	lsrs	r3, r3, #1
 8004412:	3b01      	subs	r3, #1
 8004414:	055b      	lsls	r3, r3, #21
 8004416:	429a      	cmp	r2, r3
 8004418:	d109      	bne.n	800442e <HAL_RCC_OscConfig+0x61e>
 800441a:	697b      	ldr	r3, [r7, #20]
 800441c:	f003 62c0 	and.w	r2, r3, #100663296	; 0x6000000
 8004420:	687b      	ldr	r3, [r7, #4]
 8004422:	6b5b      	ldr	r3, [r3, #52]	; 0x34
 8004424:	085b      	lsrs	r3, r3, #1
 8004426:	3b01      	subs	r3, #1
 8004428:	065b      	lsls	r3, r3, #25
 800442a:	429a      	cmp	r2, r3
 800442c:	d001      	beq.n	8004432 <HAL_RCC_OscConfig+0x622>
 800442e:	2301      	movs	r3, #1
 8004430:	e000      	b.n	8004434 <HAL_RCC_OscConfig+0x624>
 8004432:	2300      	movs	r3, #0
 8004434:	4618      	mov	r0, r3
 8004436:	3720      	adds	r7, #32
 8004438:	46bd      	mov	sp, r7
 800443a:	bd80      	pop	{r7, pc}
 800443c:	40021000 	.word	0x40021000

08004440 <HAL_RCC_ClockConfig>:
 8004440:	b580      	push	{r7, lr}
 8004442:	b086      	sub	sp, #24
 8004444:	af00      	add	r7, sp, #0
 8004446:	6078      	str	r0, [r7, #4]
 8004448:	6039      	str	r1, [r7, #0]
 800444a:	2300      	movs	r3, #0
 800444c:	617b      	str	r3, [r7, #20]
 800444e:	687b      	ldr	r3, [r7, #4]
 8004450:	2b00      	cmp	r3, #0
 8004452:	d101      	bne.n	8004458 <HAL_RCC_ClockConfig+0x18>
 8004454:	2301      	movs	r3, #1
 8004456:	e11e      	b.n	8004696 <HAL_RCC_ClockConfig+0x256>
 8004458:	4b91      	ldr	r3, [pc, #580]	; (80046a0 <HAL_RCC_ClockConfig+0x260>)
 800445a:	681b      	ldr	r3, [r3, #0]
 800445c:	f003 030f 	and.w	r3, r3, #15
 8004460:	683a      	ldr	r2, [r7, #0]
 8004462:	429a      	cmp	r2, r3
 8004464:	d910      	bls.n	8004488 <HAL_RCC_ClockConfig+0x48>
 8004466:	4b8e      	ldr	r3, [pc, #568]	; (80046a0 <HAL_RCC_ClockConfig+0x260>)
 8004468:	681b      	ldr	r3, [r3, #0]
 800446a:	f023 020f 	bic.w	r2, r3, #15
 800446e:	498c      	ldr	r1, [pc, #560]	; (80046a0 <HAL_RCC_ClockConfig+0x260>)
 8004470:	683b      	ldr	r3, [r7, #0]
 8004472:	4313      	orrs	r3, r2
 8004474:	600b      	str	r3, [r1, #0]
 8004476:	4b8a      	ldr	r3, [pc, #552]	; (80046a0 <HAL_RCC_ClockConfig+0x260>)
 8004478:	681b      	ldr	r3, [r3, #0]
 800447a:	f003 030f 	and.w	r3, r3, #15
 800447e:	683a      	ldr	r2, [r7, #0]
 8004480:	429a      	cmp	r2, r3
 8004482:	d001      	beq.n	8004488 <HAL_RCC_ClockConfig+0x48>
 8004484:	2301      	movs	r3, #1
 8004486:	e106      	b.n	8004696 <HAL_RCC_ClockConfig+0x256>
 8004488:	687b      	ldr	r3, [r7, #4]
 800448a:	681b      	ldr	r3, [r3, #0]
 800448c:	f003 0301 	and.w	r3, r3, #1
 8004490:	2b00      	cmp	r3, #0
 8004492:	d073      	beq.n	800457c <HAL_RCC_ClockConfig+0x13c>
 8004494:	687b      	ldr	r3, [r7, #4]
 8004496:	685b      	ldr	r3, [r3, #4]
 8004498:	2b03      	cmp	r3, #3
 800449a:	d129      	bne.n	80044f0 <HAL_RCC_ClockConfig+0xb0>
 800449c:	4b81      	ldr	r3, [pc, #516]	; (80046a4 <HAL_RCC_ClockConfig+0x264>)
 800449e:	681b      	ldr	r3, [r3, #0]
 80044a0:	f003 7300 	and.w	r3, r3, #33554432	; 0x2000000
 80044a4:	2b00      	cmp	r3, #0
 80044a6:	d101      	bne.n	80044ac <HAL_RCC_ClockConfig+0x6c>
 80044a8:	2301      	movs	r3, #1
 80044aa:	e0f4      	b.n	8004696 <HAL_RCC_ClockConfig+0x256>
 80044ac:	f000 f99e 	bl	80047ec <RCC_GetSysClockFreqFromPLLSource>
 80044b0:	6138      	str	r0, [r7, #16]
 80044b2:	693b      	ldr	r3, [r7, #16]
 80044b4:	4a7c      	ldr	r2, [pc, #496]	; (80046a8 <HAL_RCC_ClockConfig+0x268>)
 80044b6:	4293      	cmp	r3, r2
 80044b8:	d93f      	bls.n	800453a <HAL_RCC_ClockConfig+0xfa>
 80044ba:	4b7a      	ldr	r3, [pc, #488]	; (80046a4 <HAL_RCC_ClockConfig+0x264>)
 80044bc:	689b      	ldr	r3, [r3, #8]
 80044be:	f003 03f0 	and.w	r3, r3, #240	; 0xf0
 80044c2:	2b00      	cmp	r3, #0
 80044c4:	d009      	beq.n	80044da <HAL_RCC_ClockConfig+0x9a>
 80044c6:	687b      	ldr	r3, [r7, #4]
 80044c8:	681b      	ldr	r3, [r3, #0]
 80044ca:	f003 0302 	and.w	r3, r3, #2
 80044ce:	2b00      	cmp	r3, #0
 80044d0:	d033      	beq.n	800453a <HAL_RCC_ClockConfig+0xfa>
 80044d2:	687b      	ldr	r3, [r7, #4]
 80044d4:	689b      	ldr	r3, [r3, #8]
 80044d6:	2b00      	cmp	r3, #0
 80044d8:	d12f      	bne.n	800453a <HAL_RCC_ClockConfig+0xfa>
 80044da:	4b72      	ldr	r3, [pc, #456]	; (80046a4 <HAL_RCC_ClockConfig+0x264>)
 80044dc:	689b      	ldr	r3, [r3, #8]
 80044de:	f023 03f0 	bic.w	r3, r3, #240	; 0xf0
 80044e2:	4a70      	ldr	r2, [pc, #448]	; (80046a4 <HAL_RCC_ClockConfig+0x264>)
 80044e4:	f043 0380 	orr.w	r3, r3, #128	; 0x80
 80044e8:	6093      	str	r3, [r2, #8]
 80044ea:	2380      	movs	r3, #128	; 0x80
 80044ec:	617b      	str	r3, [r7, #20]
 80044ee:	e024      	b.n	800453a <HAL_RCC_ClockConfig+0xfa>
 80044f0:	687b      	ldr	r3, [r7, #4]
 80044f2:	685b      	ldr	r3, [r3, #4]
 80044f4:	2b02      	cmp	r3, #2
 80044f6:	d107      	bne.n	8004508 <HAL_RCC_ClockConfig+0xc8>
 80044f8:	4b6a      	ldr	r3, [pc, #424]	; (80046a4 <HAL_RCC_ClockConfig+0x264>)
 80044fa:	681b      	ldr	r3, [r3, #0]
 80044fc:	f403 3300 	and.w	r3, r3, #131072	; 0x20000
 8004500:	2b00      	cmp	r3, #0
 8004502:	d109      	bne.n	8004518 <HAL_RCC_ClockConfig+0xd8>
 8004504:	2301      	movs	r3, #1
 8004506:	e0c6      	b.n	8004696 <HAL_RCC_ClockConfig+0x256>
 8004508:	4b66      	ldr	r3, [pc, #408]	; (80046a4 <HAL_RCC_ClockConfig+0x264>)
 800450a:	681b      	ldr	r3, [r3, #0]
 800450c:	f403 6380 	and.w	r3, r3, #1024	; 0x400
 8004510:	2b00      	cmp	r3, #0
 8004512:	d101      	bne.n	8004518 <HAL_RCC_ClockConfig+0xd8>
 8004514:	2301      	movs	r3, #1
 8004516:	e0be      	b.n	8004696 <HAL_RCC_ClockConfig+0x256>
 8004518:	f000 f8ce 	bl	80046b8 <HAL_RCC_GetSysClockFreq>
 800451c:	6138      	str	r0, [r7, #16]
 800451e:	693b      	ldr	r3, [r7, #16]
 8004520:	4a61      	ldr	r2, [pc, #388]	; (80046a8 <HAL_RCC_ClockConfig+0x268>)
 8004522:	4293      	cmp	r3, r2
 8004524:	d909      	bls.n	800453a <HAL_RCC_ClockConfig+0xfa>
 8004526:	4b5f      	ldr	r3, [pc, #380]	; (80046a4 <HAL_RCC_ClockConfig+0x264>)
 8004528:	689b      	ldr	r3, [r3, #8]
 800452a:	f023 03f0 	bic.w	r3, r3, #240	; 0xf0
 800452e:	4a5d      	ldr	r2, [pc, #372]	; (80046a4 <HAL_RCC_ClockConfig+0x264>)
 8004530:	f043 0380 	orr.w	r3, r3, #128	; 0x80
 8004534:	6093      	str	r3, [r2, #8]
 8004536:	2380      	movs	r3, #128	; 0x80
 8004538:	617b      	str	r3, [r7, #20]
 800453a:	4b5a      	ldr	r3, [pc, #360]	; (80046a4 <HAL_RCC_ClockConfig+0x264>)
 800453c:	689b      	ldr	r3, [r3, #8]
 800453e:	f023 0203 	bic.w	r2, r3, #3
 8004542:	687b      	ldr	r3, [r7, #4]
 8004544:	685b      	ldr	r3, [r3, #4]
 8004546:	4957      	ldr	r1, [pc, #348]	; (80046a4 <HAL_RCC_ClockConfig+0x264>)
 8004548:	4313      	orrs	r3, r2
 800454a:	608b      	str	r3, [r1, #8]
 800454c:	f7fd fa0a 	bl	8001964 <HAL_GetTick>
 8004550:	60f8      	str	r0, [r7, #12]
 8004552:	e00a      	b.n	800456a <HAL_RCC_ClockConfig+0x12a>
 8004554:	f7fd fa06 	bl	8001964 <HAL_GetTick>
 8004558:	4602      	mov	r2, r0
 800455a:	68fb      	ldr	r3, [r7, #12]
 800455c:	1ad3      	subs	r3, r2, r3
 800455e:	f241 3288 	movw	r2, #5000	; 0x1388
 8004562:	4293      	cmp	r3, r2
 8004564:	d901      	bls.n	800456a <HAL_RCC_ClockConfig+0x12a>
 8004566:	2303      	movs	r3, #3
 8004568:	e095      	b.n	8004696 <HAL_RCC_ClockConfig+0x256>
 800456a:	4b4e      	ldr	r3, [pc, #312]	; (80046a4 <HAL_RCC_ClockConfig+0x264>)
 800456c:	689b      	ldr	r3, [r3, #8]
 800456e:	f003 020c 	and.w	r2, r3, #12
 8004572:	687b      	ldr	r3, [r7, #4]
 8004574:	685b      	ldr	r3, [r3, #4]
 8004576:	009b      	lsls	r3, r3, #2
 8004578:	429a      	cmp	r2, r3
 800457a:	d1eb      	bne.n	8004554 <HAL_RCC_ClockConfig+0x114>
 800457c:	687b      	ldr	r3, [r7, #4]
 800457e:	681b      	ldr	r3, [r3, #0]
 8004580:	f003 0302 	and.w	r3, r3, #2
 8004584:	2b00      	cmp	r3, #0
 8004586:	d023      	beq.n	80045d0 <HAL_RCC_ClockConfig+0x190>
 8004588:	687b      	ldr	r3, [r7, #4]
 800458a:	681b      	ldr	r3, [r3, #0]
 800458c:	f003 0304 	and.w	r3, r3, #4
 8004590:	2b00      	cmp	r3, #0
 8004592:	d005      	beq.n	80045a0 <HAL_RCC_ClockConfig+0x160>
 8004594:	4b43      	ldr	r3, [pc, #268]	; (80046a4 <HAL_RCC_ClockConfig+0x264>)
 8004596:	689b      	ldr	r3, [r3, #8]
 8004598:	4a42      	ldr	r2, [pc, #264]	; (80046a4 <HAL_RCC_ClockConfig+0x264>)
 800459a:	f443 63e0 	orr.w	r3, r3, #1792	; 0x700
 800459e:	6093      	str	r3, [r2, #8]
 80045a0:	687b      	ldr	r3, [r7, #4]
 80045a2:	681b      	ldr	r3, [r3, #0]
 80045a4:	f003 0308 	and.w	r3, r3, #8
 80045a8:	2b00      	cmp	r3, #0
 80045aa:	d007      	beq.n	80045bc <HAL_RCC_ClockConfig+0x17c>
 80045ac:	4b3d      	ldr	r3, [pc, #244]	; (80046a4 <HAL_RCC_ClockConfig+0x264>)
 80045ae:	689b      	ldr	r3, [r3, #8]
 80045b0:	f423 537c 	bic.w	r3, r3, #16128	; 0x3f00
 80045b4:	4a3b      	ldr	r2, [pc, #236]	; (80046a4 <HAL_RCC_ClockConfig+0x264>)
 80045b6:	f443 63e0 	orr.w	r3, r3, #1792	; 0x700
 80045ba:	6093      	str	r3, [r2, #8]
 80045bc:	4b39      	ldr	r3, [pc, #228]	; (80046a4 <HAL_RCC_ClockConfig+0x264>)
 80045be:	689b      	ldr	r3, [r3, #8]
 80045c0:	f023 02f0 	bic.w	r2, r3, #240	; 0xf0
 80045c4:	687b      	ldr	r3, [r7, #4]
 80045c6:	689b      	ldr	r3, [r3, #8]
 80045c8:	4936      	ldr	r1, [pc, #216]	; (80046a4 <HAL_RCC_ClockConfig+0x264>)
 80045ca:	4313      	orrs	r3, r2
 80045cc:	608b      	str	r3, [r1, #8]
 80045ce:	e008      	b.n	80045e2 <HAL_RCC_ClockConfig+0x1a2>
 80045d0:	697b      	ldr	r3, [r7, #20]
 80045d2:	2b80      	cmp	r3, #128	; 0x80
 80045d4:	d105      	bne.n	80045e2 <HAL_RCC_ClockConfig+0x1a2>
 80045d6:	4b33      	ldr	r3, [pc, #204]	; (80046a4 <HAL_RCC_ClockConfig+0x264>)
 80045d8:	689b      	ldr	r3, [r3, #8]
 80045da:	4a32      	ldr	r2, [pc, #200]	; (80046a4 <HAL_RCC_ClockConfig+0x264>)
 80045dc:	f023 03f0 	bic.w	r3, r3, #240	; 0xf0
 80045e0:	6093      	str	r3, [r2, #8]
 80045e2:	4b2f      	ldr	r3, [pc, #188]	; (80046a0 <HAL_RCC_ClockConfig+0x260>)
 80045e4:	681b      	ldr	r3, [r3, #0]
 80045e6:	f003 030f 	and.w	r3, r3, #15
 80045ea:	683a      	ldr	r2, [r7, #0]
 80045ec:	429a      	cmp	r2, r3
 80045ee:	d21d      	bcs.n	800462c <HAL_RCC_ClockConfig+0x1ec>
 80045f0:	4b2b      	ldr	r3, [pc, #172]	; (80046a0 <HAL_RCC_ClockConfig+0x260>)
 80045f2:	681b      	ldr	r3, [r3, #0]
 80045f4:	f023 020f 	bic.w	r2, r3, #15
 80045f8:	4929      	ldr	r1, [pc, #164]	; (80046a0 <HAL_RCC_ClockConfig+0x260>)
 80045fa:	683b      	ldr	r3, [r7, #0]
 80045fc:	4313      	orrs	r3, r2
 80045fe:	600b      	str	r3, [r1, #0]
 8004600:	f7fd f9b0 	bl	8001964 <HAL_GetTick>
 8004604:	60f8      	str	r0, [r7, #12]
 8004606:	e00a      	b.n	800461e <HAL_RCC_ClockConfig+0x1de>
 8004608:	f7fd f9ac 	bl	8001964 <HAL_GetTick>
 800460c:	4602      	mov	r2, r0
 800460e:	68fb      	ldr	r3, [r7, #12]
 8004610:	1ad3      	subs	r3, r2, r3
 8004612:	f241 3288 	movw	r2, #5000	; 0x1388
 8004616:	4293      	cmp	r3, r2
 8004618:	d901      	bls.n	800461e <HAL_RCC_ClockConfig+0x1de>
 800461a:	2303      	movs	r3, #3
 800461c:	e03b      	b.n	8004696 <HAL_RCC_ClockConfig+0x256>
 800461e:	4b20      	ldr	r3, [pc, #128]	; (80046a0 <HAL_RCC_ClockConfig+0x260>)
 8004620:	681b      	ldr	r3, [r3, #0]
 8004622:	f003 030f 	and.w	r3, r3, #15
 8004626:	683a      	ldr	r2, [r7, #0]
 8004628:	429a      	cmp	r2, r3
 800462a:	d1ed      	bne.n	8004608 <HAL_RCC_ClockConfig+0x1c8>
 800462c:	687b      	ldr	r3, [r7, #4]
 800462e:	681b      	ldr	r3, [r3, #0]
 8004630:	f003 0304 	and.w	r3, r3, #4
 8004634:	2b00      	cmp	r3, #0
 8004636:	d008      	beq.n	800464a <HAL_RCC_ClockConfig+0x20a>
 8004638:	4b1a      	ldr	r3, [pc, #104]	; (80046a4 <HAL_RCC_ClockConfig+0x264>)
 800463a:	689b      	ldr	r3, [r3, #8]
 800463c:	f423 62e0 	bic.w	r2, r3, #1792	; 0x700
 8004640:	687b      	ldr	r3, [r7, #4]
 8004642:	68db      	ldr	r3, [r3, #12]
 8004644:	4917      	ldr	r1, [pc, #92]	; (80046a4 <HAL_RCC_ClockConfig+0x264>)
 8004646:	4313      	orrs	r3, r2
 8004648:	608b      	str	r3, [r1, #8]
 800464a:	687b      	ldr	r3, [r7, #4]
 800464c:	681b      	ldr	r3, [r3, #0]
 800464e:	f003 0308 	and.w	r3, r3, #8
 8004652:	2b00      	cmp	r3, #0
 8004654:	d009      	beq.n	800466a <HAL_RCC_ClockConfig+0x22a>
 8004656:	4b13      	ldr	r3, [pc, #76]	; (80046a4 <HAL_RCC_ClockConfig+0x264>)
 8004658:	689b      	ldr	r3, [r3, #8]
 800465a:	f423 5260 	bic.w	r2, r3, #14336	; 0x3800
 800465e:	687b      	ldr	r3, [r7, #4]
 8004660:	691b      	ldr	r3, [r3, #16]
 8004662:	00db      	lsls	r3, r3, #3
 8004664:	490f      	ldr	r1, [pc, #60]	; (80046a4 <HAL_RCC_ClockConfig+0x264>)
 8004666:	4313      	orrs	r3, r2
 8004668:	608b      	str	r3, [r1, #8]
 800466a:	f000 f825 	bl	80046b8 <HAL_RCC_GetSysClockFreq>
 800466e:	4602      	mov	r2, r0
 8004670:	4b0c      	ldr	r3, [pc, #48]	; (80046a4 <HAL_RCC_ClockConfig+0x264>)
 8004672:	689b      	ldr	r3, [r3, #8]
 8004674:	091b      	lsrs	r3, r3, #4
 8004676:	f003 030f 	and.w	r3, r3, #15
 800467a:	490c      	ldr	r1, [pc, #48]	; (80046ac <HAL_RCC_ClockConfig+0x26c>)
 800467c:	5ccb      	ldrb	r3, [r1, r3]
 800467e:	f003 031f 	and.w	r3, r3, #31
 8004682:	fa22 f303 	lsr.w	r3, r2, r3
 8004686:	4a0a      	ldr	r2, [pc, #40]	; (80046b0 <HAL_RCC_ClockConfig+0x270>)
 8004688:	6013      	str	r3, [r2, #0]
 800468a:	4b0a      	ldr	r3, [pc, #40]	; (80046b4 <HAL_RCC_ClockConfig+0x274>)
 800468c:	681b      	ldr	r3, [r3, #0]
 800468e:	4618      	mov	r0, r3
 8004690:	f7fd f91c 	bl	80018cc <HAL_InitTick>
 8004694:	4603      	mov	r3, r0
 8004696:	4618      	mov	r0, r3
 8004698:	3718      	adds	r7, #24
 800469a:	46bd      	mov	sp, r7
 800469c:	bd80      	pop	{r7, pc}
 800469e:	bf00      	nop
 80046a0:	40022000 	.word	0x40022000
 80046a4:	40021000 	.word	0x40021000
 80046a8:	04c4b400 	.word	0x04c4b400
 80046ac:	08006d80 	.word	0x08006d80
 80046b0:	2000200c 	.word	0x2000200c
 80046b4:	20002010 	.word	0x20002010

080046b8 <HAL_RCC_GetSysClockFreq>:
 80046b8:	b480      	push	{r7}
 80046ba:	b087      	sub	sp, #28
 80046bc:	af00      	add	r7, sp, #0
 80046be:	4b2c      	ldr	r3, [pc, #176]	; (8004770 <HAL_RCC_GetSysClockFreq+0xb8>)
 80046c0:	689b      	ldr	r3, [r3, #8]
 80046c2:	f003 030c 	and.w	r3, r3, #12
 80046c6:	2b04      	cmp	r3, #4
 80046c8:	d102      	bne.n	80046d0 <HAL_RCC_GetSysClockFreq+0x18>
 80046ca:	4b2a      	ldr	r3, [pc, #168]	; (8004774 <HAL_RCC_GetSysClockFreq+0xbc>)
 80046cc:	613b      	str	r3, [r7, #16]
 80046ce:	e047      	b.n	8004760 <HAL_RCC_GetSysClockFreq+0xa8>
 80046d0:	4b27      	ldr	r3, [pc, #156]	; (8004770 <HAL_RCC_GetSysClockFreq+0xb8>)
 80046d2:	689b      	ldr	r3, [r3, #8]
 80046d4:	f003 030c 	and.w	r3, r3, #12
 80046d8:	2b08      	cmp	r3, #8
 80046da:	d102      	bne.n	80046e2 <HAL_RCC_GetSysClockFreq+0x2a>
 80046dc:	4b26      	ldr	r3, [pc, #152]	; (8004778 <HAL_RCC_GetSysClockFreq+0xc0>)
 80046de:	613b      	str	r3, [r7, #16]
 80046e0:	e03e      	b.n	8004760 <HAL_RCC_GetSysClockFreq+0xa8>
 80046e2:	4b23      	ldr	r3, [pc, #140]	; (8004770 <HAL_RCC_GetSysClockFreq+0xb8>)
 80046e4:	689b      	ldr	r3, [r3, #8]
 80046e6:	f003 030c 	and.w	r3, r3, #12
 80046ea:	2b0c      	cmp	r3, #12
 80046ec:	d136      	bne.n	800475c <HAL_RCC_GetSysClockFreq+0xa4>
 80046ee:	4b20      	ldr	r3, [pc, #128]	; (8004770 <HAL_RCC_GetSysClockFreq+0xb8>)
 80046f0:	68db      	ldr	r3, [r3, #12]
 80046f2:	f003 0303 	and.w	r3, r3, #3
 80046f6:	60fb      	str	r3, [r7, #12]
 80046f8:	4b1d      	ldr	r3, [pc, #116]	; (8004770 <HAL_RCC_GetSysClockFreq+0xb8>)
 80046fa:	68db      	ldr	r3, [r3, #12]
 80046fc:	091b      	lsrs	r3, r3, #4
 80046fe:	f003 030f 	and.w	r3, r3, #15
 8004702:	3301      	adds	r3, #1
 8004704:	60bb      	str	r3, [r7, #8]
 8004706:	68fb      	ldr	r3, [r7, #12]
 8004708:	2b03      	cmp	r3, #3
 800470a:	d10c      	bne.n	8004726 <HAL_RCC_GetSysClockFreq+0x6e>
 800470c:	4a1a      	ldr	r2, [pc, #104]	; (8004778 <HAL_RCC_GetSysClockFreq+0xc0>)
 800470e:	68bb      	ldr	r3, [r7, #8]
 8004710:	fbb2 f3f3 	udiv	r3, r2, r3
 8004714:	4a16      	ldr	r2, [pc, #88]	; (8004770 <HAL_RCC_GetSysClockFreq+0xb8>)
 8004716:	68d2      	ldr	r2, [r2, #12]
 8004718:	0a12      	lsrs	r2, r2, #8
 800471a:	f002 027f 	and.w	r2, r2, #127	; 0x7f
 800471e:	fb02 f303 	mul.w	r3, r2, r3
 8004722:	617b      	str	r3, [r7, #20]
 8004724:	e00c      	b.n	8004740 <HAL_RCC_GetSysClockFreq+0x88>
 8004726:	4a13      	ldr	r2, [pc, #76]	; (8004774 <HAL_RCC_GetSysClockFreq+0xbc>)
 8004728:	68bb      	ldr	r3, [r7, #8]
 800472a:	fbb2 f3f3 	udiv	r3, r2, r3
 800472e:	4a10      	ldr	r2, [pc, #64]	; (8004770 <HAL_RCC_GetSysClockFreq+0xb8>)
 8004730:	68d2      	ldr	r2, [r2, #12]
 8004732:	0a12      	lsrs	r2, r2, #8
 8004734:	f002 027f 	and.w	r2, r2, #127	; 0x7f
 8004738:	fb02 f303 	mul.w	r3, r2, r3
 800473c:	617b      	str	r3, [r7, #20]
 800473e:	bf00      	nop
 8004740:	4b0b      	ldr	r3, [pc, #44]	; (8004770 <HAL_RCC_GetSysClockFreq+0xb8>)
 8004742:	68db      	ldr	r3, [r3, #12]
 8004744:	0e5b      	lsrs	r3, r3, #25
 8004746:	f003 0303 	and.w	r3, r3, #3
 800474a:	3301      	adds	r3, #1
 800474c:	005b      	lsls	r3, r3, #1
 800474e:	607b      	str	r3, [r7, #4]
 8004750:	697a      	ldr	r2, [r7, #20]
 8004752:	687b      	ldr	r3, [r7, #4]
 8004754:	fbb2 f3f3 	udiv	r3, r2, r3
 8004758:	613b      	str	r3, [r7, #16]
 800475a:	e001      	b.n	8004760 <HAL_RCC_GetSysClockFreq+0xa8>
 800475c:	2300      	movs	r3, #0
 800475e:	613b      	str	r3, [r7, #16]
 8004760:	693b      	ldr	r3, [r7, #16]
 8004762:	4618      	mov	r0, r3
 8004764:	371c      	adds	r7, #28
 8004766:	46bd      	mov	sp, r7
 8004768:	f85d 7b04 	ldr.w	r7, [sp], #4
 800476c:	4770      	bx	lr
 800476e:	bf00      	nop
 8004770:	40021000 	.word	0x40021000
 8004774:	00f42400 	.word	0x00f42400
 8004778:	007a1200 	.word	0x007a1200

0800477c <HAL_RCC_GetHCLKFreq>:
 800477c:	b480      	push	{r7}
 800477e:	af00      	add	r7, sp, #0
 8004780:	4b03      	ldr	r3, [pc, #12]	; (8004790 <HAL_RCC_GetHCLKFreq+0x14>)
 8004782:	681b      	ldr	r3, [r3, #0]
 8004784:	4618      	mov	r0, r3
 8004786:	46bd      	mov	sp, r7
 8004788:	f85d 7b04 	ldr.w	r7, [sp], #4
 800478c:	4770      	bx	lr
 800478e:	bf00      	nop
 8004790:	2000200c 	.word	0x2000200c

08004794 <HAL_RCC_GetPCLK1Freq>:
 8004794:	b580      	push	{r7, lr}
 8004796:	af00      	add	r7, sp, #0
 8004798:	f7ff fff0 	bl	800477c <HAL_RCC_GetHCLKFreq>
 800479c:	4602      	mov	r2, r0
 800479e:	4b06      	ldr	r3, [pc, #24]	; (80047b8 <HAL_RCC_GetPCLK1Freq+0x24>)
 80047a0:	689b      	ldr	r3, [r3, #8]
 80047a2:	0a1b      	lsrs	r3, r3, #8
 80047a4:	f003 0307 	and.w	r3, r3, #7
 80047a8:	4904      	ldr	r1, [pc, #16]	; (80047bc <HAL_RCC_GetPCLK1Freq+0x28>)
 80047aa:	5ccb      	ldrb	r3, [r1, r3]
 80047ac:	f003 031f 	and.w	r3, r3, #31
 80047b0:	fa22 f303 	lsr.w	r3, r2, r3
 80047b4:	4618      	mov	r0, r3
 80047b6:	bd80      	pop	{r7, pc}
 80047b8:	40021000 	.word	0x40021000
 80047bc:	08006d90 	.word	0x08006d90

080047c0 <HAL_RCC_GetPCLK2Freq>:
 80047c0:	b580      	push	{r7, lr}
 80047c2:	af00      	add	r7, sp, #0
 80047c4:	f7ff ffda 	bl	800477c <HAL_RCC_GetHCLKFreq>
 80047c8:	4602      	mov	r2, r0
 80047ca:	4b06      	ldr	r3, [pc, #24]	; (80047e4 <HAL_RCC_GetPCLK2Freq+0x24>)
 80047cc:	689b      	ldr	r3, [r3, #8]
 80047ce:	0adb      	lsrs	r3, r3, #11
 80047d0:	f003 0307 	and.w	r3, r3, #7
 80047d4:	4904      	ldr	r1, [pc, #16]	; (80047e8 <HAL_RCC_GetPCLK2Freq+0x28>)
 80047d6:	5ccb      	ldrb	r3, [r1, r3]
 80047d8:	f003 031f 	and.w	r3, r3, #31
 80047dc:	fa22 f303 	lsr.w	r3, r2, r3
 80047e0:	4618      	mov	r0, r3
 80047e2:	bd80      	pop	{r7, pc}
 80047e4:	40021000 	.word	0x40021000
 80047e8:	08006d90 	.word	0x08006d90

080047ec <RCC_GetSysClockFreqFromPLLSource>:
 80047ec:	b480      	push	{r7}
 80047ee:	b087      	sub	sp, #28
 80047f0:	af00      	add	r7, sp, #0
 80047f2:	4b1e      	ldr	r3, [pc, #120]	; (800486c <RCC_GetSysClockFreqFromPLLSource+0x80>)
 80047f4:	68db      	ldr	r3, [r3, #12]
 80047f6:	f003 0303 	and.w	r3, r3, #3
 80047fa:	613b      	str	r3, [r7, #16]
 80047fc:	4b1b      	ldr	r3, [pc, #108]	; (800486c <RCC_GetSysClockFreqFromPLLSource+0x80>)
 80047fe:	68db      	ldr	r3, [r3, #12]
 8004800:	091b      	lsrs	r3, r3, #4
 8004802:	f003 030f 	and.w	r3, r3, #15
 8004806:	3301      	adds	r3, #1
 8004808:	60fb      	str	r3, [r7, #12]
 800480a:	693b      	ldr	r3, [r7, #16]
 800480c:	2b03      	cmp	r3, #3
 800480e:	d10c      	bne.n	800482a <RCC_GetSysClockFreqFromPLLSource+0x3e>
 8004810:	4a17      	ldr	r2, [pc, #92]	; (8004870 <RCC_GetSysClockFreqFromPLLSource+0x84>)
 8004812:	68fb      	ldr	r3, [r7, #12]
 8004814:	fbb2 f3f3 	udiv	r3, r2, r3
 8004818:	4a14      	ldr	r2, [pc, #80]	; (800486c <RCC_GetSysClockFreqFromPLLSource+0x80>)
 800481a:	68d2      	ldr	r2, [r2, #12]
 800481c:	0a12      	lsrs	r2, r2, #8
 800481e:	f002 027f 	and.w	r2, r2, #127	; 0x7f
 8004822:	fb02 f303 	mul.w	r3, r2, r3
 8004826:	617b      	str	r3, [r7, #20]
 8004828:	e00c      	b.n	8004844 <RCC_GetSysClockFreqFromPLLSource+0x58>
 800482a:	4a12      	ldr	r2, [pc, #72]	; (8004874 <RCC_GetSysClockFreqFromPLLSource+0x88>)
 800482c:	68fb      	ldr	r3, [r7, #12]
 800482e:	fbb2 f3f3 	udiv	r3, r2, r3
 8004832:	4a0e      	ldr	r2, [pc, #56]	; (800486c <RCC_GetSysClockFreqFromPLLSource+0x80>)
 8004834:	68d2      	ldr	r2, [r2, #12]
 8004836:	0a12      	lsrs	r2, r2, #8
 8004838:	f002 027f 	and.w	r2, r2, #127	; 0x7f
 800483c:	fb02 f303 	mul.w	r3, r2, r3
 8004840:	617b      	str	r3, [r7, #20]
 8004842:	bf00      	nop
 8004844:	4b09      	ldr	r3, [pc, #36]	; (800486c <RCC_GetSysClockFreqFromPLLSource+0x80>)
 8004846:	68db      	ldr	r3, [r3, #12]
 8004848:	0e5b      	lsrs	r3, r3, #25
 800484a:	f003 0303 	and.w	r3, r3, #3
 800484e:	3301      	adds	r3, #1
 8004850:	005b      	lsls	r3, r3, #1
 8004852:	60bb      	str	r3, [r7, #8]
 8004854:	697a      	ldr	r2, [r7, #20]
 8004856:	68bb      	ldr	r3, [r7, #8]
 8004858:	fbb2 f3f3 	udiv	r3, r2, r3
 800485c:	607b      	str	r3, [r7, #4]
 800485e:	687b      	ldr	r3, [r7, #4]
 8004860:	4618      	mov	r0, r3
 8004862:	371c      	adds	r7, #28
 8004864:	46bd      	mov	sp, r7
 8004866:	f85d 7b04 	ldr.w	r7, [sp], #4
 800486a:	4770      	bx	lr
 800486c:	40021000 	.word	0x40021000
 8004870:	007a1200 	.word	0x007a1200
 8004874:	00f42400 	.word	0x00f42400

08004878 <HAL_RCCEx_PeriphCLKConfig>:
 8004878:	b580      	push	{r7, lr}
 800487a:	b086      	sub	sp, #24
 800487c:	af00      	add	r7, sp, #0
 800487e:	6078      	str	r0, [r7, #4]
 8004880:	2300      	movs	r3, #0
 8004882:	74fb      	strb	r3, [r7, #19]
 8004884:	2300      	movs	r3, #0
 8004886:	74bb      	strb	r3, [r7, #18]
 8004888:	687b      	ldr	r3, [r7, #4]
 800488a:	681b      	ldr	r3, [r3, #0]
 800488c:	f403 2300 	and.w	r3, r3, #524288	; 0x80000
 8004890:	2b00      	cmp	r3, #0
 8004892:	f000 8098 	beq.w	80049c6 <HAL_RCCEx_PeriphCLKConfig+0x14e>
 8004896:	2300      	movs	r3, #0
 8004898:	747b      	strb	r3, [r7, #17]
 800489a:	4b43      	ldr	r3, [pc, #268]	; (80049a8 <HAL_RCCEx_PeriphCLKConfig+0x130>)
 800489c:	6d9b      	ldr	r3, [r3, #88]	; 0x58
 800489e:	f003 5380 	and.w	r3, r3, #268435456	; 0x10000000
 80048a2:	2b00      	cmp	r3, #0
 80048a4:	d10d      	bne.n	80048c2 <HAL_RCCEx_PeriphCLKConfig+0x4a>
 80048a6:	4b40      	ldr	r3, [pc, #256]	; (80049a8 <HAL_RCCEx_PeriphCLKConfig+0x130>)
 80048a8:	6d9b      	ldr	r3, [r3, #88]	; 0x58
 80048aa:	4a3f      	ldr	r2, [pc, #252]	; (80049a8 <HAL_RCCEx_PeriphCLKConfig+0x130>)
 80048ac:	f043 5380 	orr.w	r3, r3, #268435456	; 0x10000000
 80048b0:	6593      	str	r3, [r2, #88]	; 0x58
 80048b2:	4b3d      	ldr	r3, [pc, #244]	; (80049a8 <HAL_RCCEx_PeriphCLKConfig+0x130>)
 80048b4:	6d9b      	ldr	r3, [r3, #88]	; 0x58
 80048b6:	f003 5380 	and.w	r3, r3, #268435456	; 0x10000000
 80048ba:	60bb      	str	r3, [r7, #8]
 80048bc:	68bb      	ldr	r3, [r7, #8]
 80048be:	2301      	movs	r3, #1
 80048c0:	747b      	strb	r3, [r7, #17]
 80048c2:	4b3a      	ldr	r3, [pc, #232]	; (80049ac <HAL_RCCEx_PeriphCLKConfig+0x134>)
 80048c4:	681b      	ldr	r3, [r3, #0]
 80048c6:	4a39      	ldr	r2, [pc, #228]	; (80049ac <HAL_RCCEx_PeriphCLKConfig+0x134>)
 80048c8:	f443 7380 	orr.w	r3, r3, #256	; 0x100
 80048cc:	6013      	str	r3, [r2, #0]
 80048ce:	f7fd f849 	bl	8001964 <HAL_GetTick>
 80048d2:	60f8      	str	r0, [r7, #12]
 80048d4:	e009      	b.n	80048ea <HAL_RCCEx_PeriphCLKConfig+0x72>
 80048d6:	f7fd f845 	bl	8001964 <HAL_GetTick>
 80048da:	4602      	mov	r2, r0
 80048dc:	68fb      	ldr	r3, [r7, #12]
 80048de:	1ad3      	subs	r3, r2, r3
 80048e0:	2b02      	cmp	r3, #2
 80048e2:	d902      	bls.n	80048ea <HAL_RCCEx_PeriphCLKConfig+0x72>
 80048e4:	2303      	movs	r3, #3
 80048e6:	74fb      	strb	r3, [r7, #19]
 80048e8:	e005      	b.n	80048f6 <HAL_RCCEx_PeriphCLKConfig+0x7e>
 80048ea:	4b30      	ldr	r3, [pc, #192]	; (80049ac <HAL_RCCEx_PeriphCLKConfig+0x134>)
 80048ec:	681b      	ldr	r3, [r3, #0]
 80048ee:	f403 7380 	and.w	r3, r3, #256	; 0x100
 80048f2:	2b00      	cmp	r3, #0
 80048f4:	d0ef      	beq.n	80048d6 <HAL_RCCEx_PeriphCLKConfig+0x5e>
 80048f6:	7cfb      	ldrb	r3, [r7, #19]
 80048f8:	2b00      	cmp	r3, #0
 80048fa:	d159      	bne.n	80049b0 <HAL_RCCEx_PeriphCLKConfig+0x138>
 80048fc:	4b2a      	ldr	r3, [pc, #168]	; (80049a8 <HAL_RCCEx_PeriphCLKConfig+0x130>)
 80048fe:	f8d3 3090 	ldr.w	r3, [r3, #144]	; 0x90
 8004902:	f403 7340 	and.w	r3, r3, #768	; 0x300
 8004906:	617b      	str	r3, [r7, #20]
 8004908:	697b      	ldr	r3, [r7, #20]
 800490a:	2b00      	cmp	r3, #0
 800490c:	d01e      	beq.n	800494c <HAL_RCCEx_PeriphCLKConfig+0xd4>
 800490e:	687b      	ldr	r3, [r7, #4]
 8004910:	6c1b      	ldr	r3, [r3, #64]	; 0x40
 8004912:	697a      	ldr	r2, [r7, #20]
 8004914:	429a      	cmp	r2, r3
 8004916:	d019      	beq.n	800494c <HAL_RCCEx_PeriphCLKConfig+0xd4>
 8004918:	4b23      	ldr	r3, [pc, #140]	; (80049a8 <HAL_RCCEx_PeriphCLKConfig+0x130>)
 800491a:	f8d3 3090 	ldr.w	r3, [r3, #144]	; 0x90
 800491e:	f423 7340 	bic.w	r3, r3, #768	; 0x300
 8004922:	617b      	str	r3, [r7, #20]
 8004924:	4b20      	ldr	r3, [pc, #128]	; (80049a8 <HAL_RCCEx_PeriphCLKConfig+0x130>)
 8004926:	f8d3 3090 	ldr.w	r3, [r3, #144]	; 0x90
 800492a:	4a1f      	ldr	r2, [pc, #124]	; (80049a8 <HAL_RCCEx_PeriphCLKConfig+0x130>)
 800492c:	f443 3380 	orr.w	r3, r3, #65536	; 0x10000
 8004930:	f8c2 3090 	str.w	r3, [r2, #144]	; 0x90
 8004934:	4b1c      	ldr	r3, [pc, #112]	; (80049a8 <HAL_RCCEx_PeriphCLKConfig+0x130>)
 8004936:	f8d3 3090 	ldr.w	r3, [r3, #144]	; 0x90
 800493a:	4a1b      	ldr	r2, [pc, #108]	; (80049a8 <HAL_RCCEx_PeriphCLKConfig+0x130>)
 800493c:	f423 3380 	bic.w	r3, r3, #65536	; 0x10000
 8004940:	f8c2 3090 	str.w	r3, [r2, #144]	; 0x90
 8004944:	4a18      	ldr	r2, [pc, #96]	; (80049a8 <HAL_RCCEx_PeriphCLKConfig+0x130>)
 8004946:	697b      	ldr	r3, [r7, #20]
 8004948:	f8c2 3090 	str.w	r3, [r2, #144]	; 0x90
 800494c:	697b      	ldr	r3, [r7, #20]
 800494e:	f003 0301 	and.w	r3, r3, #1
 8004952:	2b00      	cmp	r3, #0
 8004954:	d016      	beq.n	8004984 <HAL_RCCEx_PeriphCLKConfig+0x10c>
 8004956:	f7fd f805 	bl	8001964 <HAL_GetTick>
 800495a:	60f8      	str	r0, [r7, #12]
 800495c:	e00b      	b.n	8004976 <HAL_RCCEx_PeriphCLKConfig+0xfe>
 800495e:	f7fd f801 	bl	8001964 <HAL_GetTick>
 8004962:	4602      	mov	r2, r0
 8004964:	68fb      	ldr	r3, [r7, #12]
 8004966:	1ad3      	subs	r3, r2, r3
 8004968:	f241 3288 	movw	r2, #5000	; 0x1388
 800496c:	4293      	cmp	r3, r2
 800496e:	d902      	bls.n	8004976 <HAL_RCCEx_PeriphCLKConfig+0xfe>
 8004970:	2303      	movs	r3, #3
 8004972:	74fb      	strb	r3, [r7, #19]
 8004974:	e006      	b.n	8004984 <HAL_RCCEx_PeriphCLKConfig+0x10c>
 8004976:	4b0c      	ldr	r3, [pc, #48]	; (80049a8 <HAL_RCCEx_PeriphCLKConfig+0x130>)
 8004978:	f8d3 3090 	ldr.w	r3, [r3, #144]	; 0x90
 800497c:	f003 0302 	and.w	r3, r3, #2
 8004980:	2b00      	cmp	r3, #0
 8004982:	d0ec      	beq.n	800495e <HAL_RCCEx_PeriphCLKConfig+0xe6>
 8004984:	7cfb      	ldrb	r3, [r7, #19]
 8004986:	2b00      	cmp	r3, #0
 8004988:	d10b      	bne.n	80049a2 <HAL_RCCEx_PeriphCLKConfig+0x12a>
 800498a:	4b07      	ldr	r3, [pc, #28]	; (80049a8 <HAL_RCCEx_PeriphCLKConfig+0x130>)
 800498c:	f8d3 3090 	ldr.w	r3, [r3, #144]	; 0x90
 8004990:	f423 7240 	bic.w	r2, r3, #768	; 0x300
 8004994:	687b      	ldr	r3, [r7, #4]
 8004996:	6c1b      	ldr	r3, [r3, #64]	; 0x40
 8004998:	4903      	ldr	r1, [pc, #12]	; (80049a8 <HAL_RCCEx_PeriphCLKConfig+0x130>)
 800499a:	4313      	orrs	r3, r2
 800499c:	f8c1 3090 	str.w	r3, [r1, #144]	; 0x90
 80049a0:	e008      	b.n	80049b4 <HAL_RCCEx_PeriphCLKConfig+0x13c>
 80049a2:	7cfb      	ldrb	r3, [r7, #19]
 80049a4:	74bb      	strb	r3, [r7, #18]
 80049a6:	e005      	b.n	80049b4 <HAL_RCCEx_PeriphCLKConfig+0x13c>
 80049a8:	40021000 	.word	0x40021000
 80049ac:	40007000 	.word	0x40007000
 80049b0:	7cfb      	ldrb	r3, [r7, #19]
 80049b2:	74bb      	strb	r3, [r7, #18]
 80049b4:	7c7b      	ldrb	r3, [r7, #17]
 80049b6:	2b01      	cmp	r3, #1
 80049b8:	d105      	bne.n	80049c6 <HAL_RCCEx_PeriphCLKConfig+0x14e>
 80049ba:	4ba6      	ldr	r3, [pc, #664]	; (8004c54 <HAL_RCCEx_PeriphCLKConfig+0x3dc>)
 80049bc:	6d9b      	ldr	r3, [r3, #88]	; 0x58
 80049be:	4aa5      	ldr	r2, [pc, #660]	; (8004c54 <HAL_RCCEx_PeriphCLKConfig+0x3dc>)
 80049c0:	f023 5380 	bic.w	r3, r3, #268435456	; 0x10000000
 80049c4:	6593      	str	r3, [r2, #88]	; 0x58
 80049c6:	687b      	ldr	r3, [r7, #4]
 80049c8:	681b      	ldr	r3, [r3, #0]
 80049ca:	f003 0301 	and.w	r3, r3, #1
 80049ce:	2b00      	cmp	r3, #0
 80049d0:	d00a      	beq.n	80049e8 <HAL_RCCEx_PeriphCLKConfig+0x170>
 80049d2:	4ba0      	ldr	r3, [pc, #640]	; (8004c54 <HAL_RCCEx_PeriphCLKConfig+0x3dc>)
 80049d4:	f8d3 3088 	ldr.w	r3, [r3, #136]	; 0x88
 80049d8:	f023 0203 	bic.w	r2, r3, #3
 80049dc:	687b      	ldr	r3, [r7, #4]
 80049de:	685b      	ldr	r3, [r3, #4]
 80049e0:	499c      	ldr	r1, [pc, #624]	; (8004c54 <HAL_RCCEx_PeriphCLKConfig+0x3dc>)
 80049e2:	4313      	orrs	r3, r2
 80049e4:	f8c1 3088 	str.w	r3, [r1, #136]	; 0x88
 80049e8:	687b      	ldr	r3, [r7, #4]
 80049ea:	681b      	ldr	r3, [r3, #0]
 80049ec:	f003 0302 	and.w	r3, r3, #2
 80049f0:	2b00      	cmp	r3, #0
 80049f2:	d00a      	beq.n	8004a0a <HAL_RCCEx_PeriphCLKConfig+0x192>
 80049f4:	4b97      	ldr	r3, [pc, #604]	; (8004c54 <HAL_RCCEx_PeriphCLKConfig+0x3dc>)
 80049f6:	f8d3 3088 	ldr.w	r3, [r3, #136]	; 0x88
 80049fa:	f023 020c 	bic.w	r2, r3, #12
 80049fe:	687b      	ldr	r3, [r7, #4]
 8004a00:	689b      	ldr	r3, [r3, #8]
 8004a02:	4994      	ldr	r1, [pc, #592]	; (8004c54 <HAL_RCCEx_PeriphCLKConfig+0x3dc>)
 8004a04:	4313      	orrs	r3, r2
 8004a06:	f8c1 3088 	str.w	r3, [r1, #136]	; 0x88
 8004a0a:	687b      	ldr	r3, [r7, #4]
 8004a0c:	681b      	ldr	r3, [r3, #0]
 8004a0e:	f003 0304 	and.w	r3, r3, #4
 8004a12:	2b00      	cmp	r3, #0
 8004a14:	d00a      	beq.n	8004a2c <HAL_RCCEx_PeriphCLKConfig+0x1b4>
 8004a16:	4b8f      	ldr	r3, [pc, #572]	; (8004c54 <HAL_RCCEx_PeriphCLKConfig+0x3dc>)
 8004a18:	f8d3 3088 	ldr.w	r3, [r3, #136]	; 0x88
 8004a1c:	f023 0230 	bic.w	r2, r3, #48	; 0x30
 8004a20:	687b      	ldr	r3, [r7, #4]
 8004a22:	68db      	ldr	r3, [r3, #12]
 8004a24:	498b      	ldr	r1, [pc, #556]	; (8004c54 <HAL_RCCEx_PeriphCLKConfig+0x3dc>)
 8004a26:	4313      	orrs	r3, r2
 8004a28:	f8c1 3088 	str.w	r3, [r1, #136]	; 0x88
 8004a2c:	687b      	ldr	r3, [r7, #4]
 8004a2e:	681b      	ldr	r3, [r3, #0]
 8004a30:	f003 0308 	and.w	r3, r3, #8
 8004a34:	2b00      	cmp	r3, #0
 8004a36:	d00a      	beq.n	8004a4e <HAL_RCCEx_PeriphCLKConfig+0x1d6>
 8004a38:	4b86      	ldr	r3, [pc, #536]	; (8004c54 <HAL_RCCEx_PeriphCLKConfig+0x3dc>)
 8004a3a:	f8d3 3088 	ldr.w	r3, [r3, #136]	; 0x88
 8004a3e:	f023 02c0 	bic.w	r2, r3, #192	; 0xc0
 8004a42:	687b      	ldr	r3, [r7, #4]
 8004a44:	691b      	ldr	r3, [r3, #16]
 8004a46:	4983      	ldr	r1, [pc, #524]	; (8004c54 <HAL_RCCEx_PeriphCLKConfig+0x3dc>)
 8004a48:	4313      	orrs	r3, r2
 8004a4a:	f8c1 3088 	str.w	r3, [r1, #136]	; 0x88
 8004a4e:	687b      	ldr	r3, [r7, #4]
 8004a50:	681b      	ldr	r3, [r3, #0]
 8004a52:	f003 0320 	and.w	r3, r3, #32
 8004a56:	2b00      	cmp	r3, #0
 8004a58:	d00a      	beq.n	8004a70 <HAL_RCCEx_PeriphCLKConfig+0x1f8>
 8004a5a:	4b7e      	ldr	r3, [pc, #504]	; (8004c54 <HAL_RCCEx_PeriphCLKConfig+0x3dc>)
 8004a5c:	f8d3 3088 	ldr.w	r3, [r3, #136]	; 0x88
 8004a60:	f423 6240 	bic.w	r2, r3, #3072	; 0xc00
 8004a64:	687b      	ldr	r3, [r7, #4]
 8004a66:	695b      	ldr	r3, [r3, #20]
 8004a68:	497a      	ldr	r1, [pc, #488]	; (8004c54 <HAL_RCCEx_PeriphCLKConfig+0x3dc>)
 8004a6a:	4313      	orrs	r3, r2
 8004a6c:	f8c1 3088 	str.w	r3, [r1, #136]	; 0x88
 8004a70:	687b      	ldr	r3, [r7, #4]
 8004a72:	681b      	ldr	r3, [r3, #0]
 8004a74:	f003 0340 	and.w	r3, r3, #64	; 0x40
 8004a78:	2b00      	cmp	r3, #0
 8004a7a:	d00a      	beq.n	8004a92 <HAL_RCCEx_PeriphCLKConfig+0x21a>
 8004a7c:	4b75      	ldr	r3, [pc, #468]	; (8004c54 <HAL_RCCEx_PeriphCLKConfig+0x3dc>)
 8004a7e:	f8d3 3088 	ldr.w	r3, [r3, #136]	; 0x88
 8004a82:	f423 5240 	bic.w	r2, r3, #12288	; 0x3000
 8004a86:	687b      	ldr	r3, [r7, #4]
 8004a88:	699b      	ldr	r3, [r3, #24]
 8004a8a:	4972      	ldr	r1, [pc, #456]	; (8004c54 <HAL_RCCEx_PeriphCLKConfig+0x3dc>)
 8004a8c:	4313      	orrs	r3, r2
 8004a8e:	f8c1 3088 	str.w	r3, [r1, #136]	; 0x88
 8004a92:	687b      	ldr	r3, [r7, #4]
 8004a94:	681b      	ldr	r3, [r3, #0]
 8004a96:	f003 0380 	and.w	r3, r3, #128	; 0x80
 8004a9a:	2b00      	cmp	r3, #0
 8004a9c:	d00a      	beq.n	8004ab4 <HAL_RCCEx_PeriphCLKConfig+0x23c>
 8004a9e:	4b6d      	ldr	r3, [pc, #436]	; (8004c54 <HAL_RCCEx_PeriphCLKConfig+0x3dc>)
 8004aa0:	f8d3 3088 	ldr.w	r3, [r3, #136]	; 0x88
 8004aa4:	f423 4240 	bic.w	r2, r3, #49152	; 0xc000
 8004aa8:	687b      	ldr	r3, [r7, #4]
 8004aaa:	69db      	ldr	r3, [r3, #28]
 8004aac:	4969      	ldr	r1, [pc, #420]	; (8004c54 <HAL_RCCEx_PeriphCLKConfig+0x3dc>)
 8004aae:	4313      	orrs	r3, r2
 8004ab0:	f8c1 3088 	str.w	r3, [r1, #136]	; 0x88
 8004ab4:	687b      	ldr	r3, [r7, #4]
 8004ab6:	681b      	ldr	r3, [r3, #0]
 8004ab8:	f403 7380 	and.w	r3, r3, #256	; 0x100
 8004abc:	2b00      	cmp	r3, #0
 8004abe:	d00a      	beq.n	8004ad6 <HAL_RCCEx_PeriphCLKConfig+0x25e>
 8004ac0:	4b64      	ldr	r3, [pc, #400]	; (8004c54 <HAL_RCCEx_PeriphCLKConfig+0x3dc>)
 8004ac2:	f8d3 3088 	ldr.w	r3, [r3, #136]	; 0x88
 8004ac6:	f423 3240 	bic.w	r2, r3, #196608	; 0x30000
 8004aca:	687b      	ldr	r3, [r7, #4]
 8004acc:	6a1b      	ldr	r3, [r3, #32]
 8004ace:	4961      	ldr	r1, [pc, #388]	; (8004c54 <HAL_RCCEx_PeriphCLKConfig+0x3dc>)
 8004ad0:	4313      	orrs	r3, r2
 8004ad2:	f8c1 3088 	str.w	r3, [r1, #136]	; 0x88
 8004ad6:	687b      	ldr	r3, [r7, #4]
 8004ad8:	681b      	ldr	r3, [r3, #0]
 8004ada:	f403 7300 	and.w	r3, r3, #512	; 0x200
 8004ade:	2b00      	cmp	r3, #0
 8004ae0:	d00a      	beq.n	8004af8 <HAL_RCCEx_PeriphCLKConfig+0x280>
 8004ae2:	4b5c      	ldr	r3, [pc, #368]	; (8004c54 <HAL_RCCEx_PeriphCLKConfig+0x3dc>)
 8004ae4:	f8d3 3088 	ldr.w	r3, [r3, #136]	; 0x88
 8004ae8:	f423 2240 	bic.w	r2, r3, #786432	; 0xc0000
 8004aec:	687b      	ldr	r3, [r7, #4]
 8004aee:	6a5b      	ldr	r3, [r3, #36]	; 0x24
 8004af0:	4958      	ldr	r1, [pc, #352]	; (8004c54 <HAL_RCCEx_PeriphCLKConfig+0x3dc>)
 8004af2:	4313      	orrs	r3, r2
 8004af4:	f8c1 3088 	str.w	r3, [r1, #136]	; 0x88
 8004af8:	687b      	ldr	r3, [r7, #4]
 8004afa:	681b      	ldr	r3, [r3, #0]
 8004afc:	f403 6380 	and.w	r3, r3, #1024	; 0x400
 8004b00:	2b00      	cmp	r3, #0
 8004b02:	d015      	beq.n	8004b30 <HAL_RCCEx_PeriphCLKConfig+0x2b8>
 8004b04:	4b53      	ldr	r3, [pc, #332]	; (8004c54 <HAL_RCCEx_PeriphCLKConfig+0x3dc>)
 8004b06:	f8d3 3088 	ldr.w	r3, [r3, #136]	; 0x88
 8004b0a:	f423 1240 	bic.w	r2, r3, #3145728	; 0x300000
 8004b0e:	687b      	ldr	r3, [r7, #4]
 8004b10:	6a9b      	ldr	r3, [r3, #40]	; 0x28
 8004b12:	4950      	ldr	r1, [pc, #320]	; (8004c54 <HAL_RCCEx_PeriphCLKConfig+0x3dc>)
 8004b14:	4313      	orrs	r3, r2
 8004b16:	f8c1 3088 	str.w	r3, [r1, #136]	; 0x88
 8004b1a:	687b      	ldr	r3, [r7, #4]
 8004b1c:	6a9b      	ldr	r3, [r3, #40]	; 0x28
 8004b1e:	f5b3 1f80 	cmp.w	r3, #1048576	; 0x100000
 8004b22:	d105      	bne.n	8004b30 <HAL_RCCEx_PeriphCLKConfig+0x2b8>
 8004b24:	4b4b      	ldr	r3, [pc, #300]	; (8004c54 <HAL_RCCEx_PeriphCLKConfig+0x3dc>)
 8004b26:	68db      	ldr	r3, [r3, #12]
 8004b28:	4a4a      	ldr	r2, [pc, #296]	; (8004c54 <HAL_RCCEx_PeriphCLKConfig+0x3dc>)
 8004b2a:	f443 1380 	orr.w	r3, r3, #1048576	; 0x100000
 8004b2e:	60d3      	str	r3, [r2, #12]
 8004b30:	687b      	ldr	r3, [r7, #4]
 8004b32:	681b      	ldr	r3, [r3, #0]
 8004b34:	f403 6300 	and.w	r3, r3, #2048	; 0x800
 8004b38:	2b00      	cmp	r3, #0
 8004b3a:	d015      	beq.n	8004b68 <HAL_RCCEx_PeriphCLKConfig+0x2f0>
 8004b3c:	4b45      	ldr	r3, [pc, #276]	; (8004c54 <HAL_RCCEx_PeriphCLKConfig+0x3dc>)
 8004b3e:	f8d3 3088 	ldr.w	r3, [r3, #136]	; 0x88
 8004b42:	f423 0240 	bic.w	r2, r3, #12582912	; 0xc00000
 8004b46:	687b      	ldr	r3, [r7, #4]
 8004b48:	6adb      	ldr	r3, [r3, #44]	; 0x2c
 8004b4a:	4942      	ldr	r1, [pc, #264]	; (8004c54 <HAL_RCCEx_PeriphCLKConfig+0x3dc>)
 8004b4c:	4313      	orrs	r3, r2
 8004b4e:	f8c1 3088 	str.w	r3, [r1, #136]	; 0x88
 8004b52:	687b      	ldr	r3, [r7, #4]
 8004b54:	6adb      	ldr	r3, [r3, #44]	; 0x2c
 8004b56:	f5b3 0f80 	cmp.w	r3, #4194304	; 0x400000
 8004b5a:	d105      	bne.n	8004b68 <HAL_RCCEx_PeriphCLKConfig+0x2f0>
 8004b5c:	4b3d      	ldr	r3, [pc, #244]	; (8004c54 <HAL_RCCEx_PeriphCLKConfig+0x3dc>)
 8004b5e:	68db      	ldr	r3, [r3, #12]
 8004b60:	4a3c      	ldr	r2, [pc, #240]	; (8004c54 <HAL_RCCEx_PeriphCLKConfig+0x3dc>)
 8004b62:	f443 1380 	orr.w	r3, r3, #1048576	; 0x100000
 8004b66:	60d3      	str	r3, [r2, #12]
 8004b68:	687b      	ldr	r3, [r7, #4]
 8004b6a:	681b      	ldr	r3, [r3, #0]
 8004b6c:	f403 5380 	and.w	r3, r3, #4096	; 0x1000
 8004b70:	2b00      	cmp	r3, #0
 8004b72:	d015      	beq.n	8004ba0 <HAL_RCCEx_PeriphCLKConfig+0x328>
 8004b74:	4b37      	ldr	r3, [pc, #220]	; (8004c54 <HAL_RCCEx_PeriphCLKConfig+0x3dc>)
 8004b76:	f8d3 3088 	ldr.w	r3, [r3, #136]	; 0x88
 8004b7a:	f023 7240 	bic.w	r2, r3, #50331648	; 0x3000000
 8004b7e:	687b      	ldr	r3, [r7, #4]
 8004b80:	6b1b      	ldr	r3, [r3, #48]	; 0x30
 8004b82:	4934      	ldr	r1, [pc, #208]	; (8004c54 <HAL_RCCEx_PeriphCLKConfig+0x3dc>)
 8004b84:	4313      	orrs	r3, r2
 8004b86:	f8c1 3088 	str.w	r3, [r1, #136]	; 0x88
 8004b8a:	687b      	ldr	r3, [r7, #4]
 8004b8c:	6b1b      	ldr	r3, [r3, #48]	; 0x30
 8004b8e:	f1b3 7f80 	cmp.w	r3, #16777216	; 0x1000000
 8004b92:	d105      	bne.n	8004ba0 <HAL_RCCEx_PeriphCLKConfig+0x328>
 8004b94:	4b2f      	ldr	r3, [pc, #188]	; (8004c54 <HAL_RCCEx_PeriphCLKConfig+0x3dc>)
 8004b96:	68db      	ldr	r3, [r3, #12]
 8004b98:	4a2e      	ldr	r2, [pc, #184]	; (8004c54 <HAL_RCCEx_PeriphCLKConfig+0x3dc>)
 8004b9a:	f443 1380 	orr.w	r3, r3, #1048576	; 0x100000
 8004b9e:	60d3      	str	r3, [r2, #12]
 8004ba0:	687b      	ldr	r3, [r7, #4]
 8004ba2:	681b      	ldr	r3, [r3, #0]
 8004ba4:	f403 5300 	and.w	r3, r3, #8192	; 0x2000
 8004ba8:	2b00      	cmp	r3, #0
 8004baa:	d015      	beq.n	8004bd8 <HAL_RCCEx_PeriphCLKConfig+0x360>
 8004bac:	4b29      	ldr	r3, [pc, #164]	; (8004c54 <HAL_RCCEx_PeriphCLKConfig+0x3dc>)
 8004bae:	f8d3 3088 	ldr.w	r3, [r3, #136]	; 0x88
 8004bb2:	f023 6240 	bic.w	r2, r3, #201326592	; 0xc000000
 8004bb6:	687b      	ldr	r3, [r7, #4]
 8004bb8:	6b5b      	ldr	r3, [r3, #52]	; 0x34
 8004bba:	4926      	ldr	r1, [pc, #152]	; (8004c54 <HAL_RCCEx_PeriphCLKConfig+0x3dc>)
 8004bbc:	4313      	orrs	r3, r2
 8004bbe:	f8c1 3088 	str.w	r3, [r1, #136]	; 0x88
 8004bc2:	687b      	ldr	r3, [r7, #4]
 8004bc4:	6b5b      	ldr	r3, [r3, #52]	; 0x34
 8004bc6:	f1b3 6f00 	cmp.w	r3, #134217728	; 0x8000000
 8004bca:	d105      	bne.n	8004bd8 <HAL_RCCEx_PeriphCLKConfig+0x360>
 8004bcc:	4b21      	ldr	r3, [pc, #132]	; (8004c54 <HAL_RCCEx_PeriphCLKConfig+0x3dc>)
 8004bce:	68db      	ldr	r3, [r3, #12]
 8004bd0:	4a20      	ldr	r2, [pc, #128]	; (8004c54 <HAL_RCCEx_PeriphCLKConfig+0x3dc>)
 8004bd2:	f443 1380 	orr.w	r3, r3, #1048576	; 0x100000
 8004bd6:	60d3      	str	r3, [r2, #12]
 8004bd8:	687b      	ldr	r3, [r7, #4]
 8004bda:	681b      	ldr	r3, [r3, #0]
 8004bdc:	f403 4380 	and.w	r3, r3, #16384	; 0x4000
 8004be0:	2b00      	cmp	r3, #0
 8004be2:	d015      	beq.n	8004c10 <HAL_RCCEx_PeriphCLKConfig+0x398>
 8004be4:	4b1b      	ldr	r3, [pc, #108]	; (8004c54 <HAL_RCCEx_PeriphCLKConfig+0x3dc>)
 8004be6:	f8d3 3088 	ldr.w	r3, [r3, #136]	; 0x88
 8004bea:	f023 6240 	bic.w	r2, r3, #201326592	; 0xc000000
 8004bee:	687b      	ldr	r3, [r7, #4]
 8004bf0:	6b9b      	ldr	r3, [r3, #56]	; 0x38
 8004bf2:	4918      	ldr	r1, [pc, #96]	; (8004c54 <HAL_RCCEx_PeriphCLKConfig+0x3dc>)
 8004bf4:	4313      	orrs	r3, r2
 8004bf6:	f8c1 3088 	str.w	r3, [r1, #136]	; 0x88
 8004bfa:	687b      	ldr	r3, [r7, #4]
 8004bfc:	6b9b      	ldr	r3, [r3, #56]	; 0x38
 8004bfe:	f1b3 6f00 	cmp.w	r3, #134217728	; 0x8000000
 8004c02:	d105      	bne.n	8004c10 <HAL_RCCEx_PeriphCLKConfig+0x398>
 8004c04:	4b13      	ldr	r3, [pc, #76]	; (8004c54 <HAL_RCCEx_PeriphCLKConfig+0x3dc>)
 8004c06:	68db      	ldr	r3, [r3, #12]
 8004c08:	4a12      	ldr	r2, [pc, #72]	; (8004c54 <HAL_RCCEx_PeriphCLKConfig+0x3dc>)
 8004c0a:	f443 1380 	orr.w	r3, r3, #1048576	; 0x100000
 8004c0e:	60d3      	str	r3, [r2, #12]
 8004c10:	687b      	ldr	r3, [r7, #4]
 8004c12:	681b      	ldr	r3, [r3, #0]
 8004c14:	f403 4300 	and.w	r3, r3, #32768	; 0x8000
 8004c18:	2b00      	cmp	r3, #0
 8004c1a:	d015      	beq.n	8004c48 <HAL_RCCEx_PeriphCLKConfig+0x3d0>
 8004c1c:	4b0d      	ldr	r3, [pc, #52]	; (8004c54 <HAL_RCCEx_PeriphCLKConfig+0x3dc>)
 8004c1e:	f8d3 3088 	ldr.w	r3, [r3, #136]	; 0x88
 8004c22:	f023 5240 	bic.w	r2, r3, #805306368	; 0x30000000
 8004c26:	687b      	ldr	r3, [r7, #4]
 8004c28:	6bdb      	ldr	r3, [r3, #60]	; 0x3c
 8004c2a:	490a      	ldr	r1, [pc, #40]	; (8004c54 <HAL_RCCEx_PeriphCLKConfig+0x3dc>)
 8004c2c:	4313      	orrs	r3, r2
 8004c2e:	f8c1 3088 	str.w	r3, [r1, #136]	; 0x88
 8004c32:	687b      	ldr	r3, [r7, #4]
 8004c34:	6bdb      	ldr	r3, [r3, #60]	; 0x3c
 8004c36:	f1b3 5f80 	cmp.w	r3, #268435456	; 0x10000000
 8004c3a:	d105      	bne.n	8004c48 <HAL_RCCEx_PeriphCLKConfig+0x3d0>
 8004c3c:	4b05      	ldr	r3, [pc, #20]	; (8004c54 <HAL_RCCEx_PeriphCLKConfig+0x3dc>)
 8004c3e:	68db      	ldr	r3, [r3, #12]
 8004c40:	4a04      	ldr	r2, [pc, #16]	; (8004c54 <HAL_RCCEx_PeriphCLKConfig+0x3dc>)
 8004c42:	f443 3380 	orr.w	r3, r3, #65536	; 0x10000
 8004c46:	60d3      	str	r3, [r2, #12]
 8004c48:	7cbb      	ldrb	r3, [r7, #18]
 8004c4a:	4618      	mov	r0, r3
 8004c4c:	3718      	adds	r7, #24
 8004c4e:	46bd      	mov	sp, r7
 8004c50:	bd80      	pop	{r7, pc}
 8004c52:	bf00      	nop
 8004c54:	40021000 	.word	0x40021000

08004c58 <HAL_TIM_Base_Init>:
 8004c58:	b580      	push	{r7, lr}
 8004c5a:	b082      	sub	sp, #8
 8004c5c:	af00      	add	r7, sp, #0
 8004c5e:	6078      	str	r0, [r7, #4]
 8004c60:	687b      	ldr	r3, [r7, #4]
 8004c62:	2b00      	cmp	r3, #0
 8004c64:	d101      	bne.n	8004c6a <HAL_TIM_Base_Init+0x12>
 8004c66:	2301      	movs	r3, #1
 8004c68:	e049      	b.n	8004cfe <HAL_TIM_Base_Init+0xa6>
 8004c6a:	687b      	ldr	r3, [r7, #4]
 8004c6c:	f893 303d 	ldrb.w	r3, [r3, #61]	; 0x3d
 8004c70:	b2db      	uxtb	r3, r3
 8004c72:	2b00      	cmp	r3, #0
 8004c74:	d106      	bne.n	8004c84 <HAL_TIM_Base_Init+0x2c>
 8004c76:	687b      	ldr	r3, [r7, #4]
 8004c78:	2200      	movs	r2, #0
 8004c7a:	f883 203c 	strb.w	r2, [r3, #60]	; 0x3c
 8004c7e:	6878      	ldr	r0, [r7, #4]
 8004c80:	f7fc fcf8 	bl	8001674 <HAL_TIM_Base_MspInit>
 8004c84:	687b      	ldr	r3, [r7, #4]
 8004c86:	2202      	movs	r2, #2
 8004c88:	f883 203d 	strb.w	r2, [r3, #61]	; 0x3d
 8004c8c:	687b      	ldr	r3, [r7, #4]
 8004c8e:	681a      	ldr	r2, [r3, #0]
 8004c90:	687b      	ldr	r3, [r7, #4]
 8004c92:	3304      	adds	r3, #4
 8004c94:	4619      	mov	r1, r3
 8004c96:	4610      	mov	r0, r2
 8004c98:	f000 fa48 	bl	800512c <TIM_Base_SetConfig>
 8004c9c:	687b      	ldr	r3, [r7, #4]
 8004c9e:	2201      	movs	r2, #1
 8004ca0:	f883 2048 	strb.w	r2, [r3, #72]	; 0x48
 8004ca4:	687b      	ldr	r3, [r7, #4]
 8004ca6:	2201      	movs	r2, #1
 8004ca8:	f883 203e 	strb.w	r2, [r3, #62]	; 0x3e
 8004cac:	687b      	ldr	r3, [r7, #4]
 8004cae:	2201      	movs	r2, #1
 8004cb0:	f883 203f 	strb.w	r2, [r3, #63]	; 0x3f
 8004cb4:	687b      	ldr	r3, [r7, #4]
 8004cb6:	2201      	movs	r2, #1
 8004cb8:	f883 2040 	strb.w	r2, [r3, #64]	; 0x40
 8004cbc:	687b      	ldr	r3, [r7, #4]
 8004cbe:	2201      	movs	r2, #1
 8004cc0:	f883 2041 	strb.w	r2, [r3, #65]	; 0x41
 8004cc4:	687b      	ldr	r3, [r7, #4]
 8004cc6:	2201      	movs	r2, #1
 8004cc8:	f883 2042 	strb.w	r2, [r3, #66]	; 0x42
 8004ccc:	687b      	ldr	r3, [r7, #4]
 8004cce:	2201      	movs	r2, #1
 8004cd0:	f883 2043 	strb.w	r2, [r3, #67]	; 0x43
 8004cd4:	687b      	ldr	r3, [r7, #4]
 8004cd6:	2201      	movs	r2, #1
 8004cd8:	f883 2044 	strb.w	r2, [r3, #68]	; 0x44
 8004cdc:	687b      	ldr	r3, [r7, #4]
 8004cde:	2201      	movs	r2, #1
 8004ce0:	f883 2045 	strb.w	r2, [r3, #69]	; 0x45
 8004ce4:	687b      	ldr	r3, [r7, #4]
 8004ce6:	2201      	movs	r2, #1
 8004ce8:	f883 2046 	strb.w	r2, [r3, #70]	; 0x46
 8004cec:	687b      	ldr	r3, [r7, #4]
 8004cee:	2201      	movs	r2, #1
 8004cf0:	f883 2047 	strb.w	r2, [r3, #71]	; 0x47
 8004cf4:	687b      	ldr	r3, [r7, #4]
 8004cf6:	2201      	movs	r2, #1
 8004cf8:	f883 203d 	strb.w	r2, [r3, #61]	; 0x3d
 8004cfc:	2300      	movs	r3, #0
 8004cfe:	4618      	mov	r0, r3
 8004d00:	3708      	adds	r7, #8
 8004d02:	46bd      	mov	sp, r7
 8004d04:	bd80      	pop	{r7, pc}
	...

08004d08 <HAL_TIM_Base_Start_IT>:
 8004d08:	b480      	push	{r7}
 8004d0a:	b085      	sub	sp, #20
 8004d0c:	af00      	add	r7, sp, #0
 8004d0e:	6078      	str	r0, [r7, #4]
 8004d10:	687b      	ldr	r3, [r7, #4]
 8004d12:	f893 303d 	ldrb.w	r3, [r3, #61]	; 0x3d
 8004d16:	b2db      	uxtb	r3, r3
 8004d18:	2b01      	cmp	r3, #1
 8004d1a:	d001      	beq.n	8004d20 <HAL_TIM_Base_Start_IT+0x18>
 8004d1c:	2301      	movs	r3, #1
 8004d1e:	e04a      	b.n	8004db6 <HAL_TIM_Base_Start_IT+0xae>
 8004d20:	687b      	ldr	r3, [r7, #4]
 8004d22:	2202      	movs	r2, #2
 8004d24:	f883 203d 	strb.w	r2, [r3, #61]	; 0x3d
 8004d28:	687b      	ldr	r3, [r7, #4]
 8004d2a:	681b      	ldr	r3, [r3, #0]
 8004d2c:	68da      	ldr	r2, [r3, #12]
 8004d2e:	687b      	ldr	r3, [r7, #4]
 8004d30:	681b      	ldr	r3, [r3, #0]
 8004d32:	f042 0201 	orr.w	r2, r2, #1
 8004d36:	60da      	str	r2, [r3, #12]
 8004d38:	687b      	ldr	r3, [r7, #4]
 8004d3a:	681b      	ldr	r3, [r3, #0]
 8004d3c:	4a21      	ldr	r2, [pc, #132]	; (8004dc4 <HAL_TIM_Base_Start_IT+0xbc>)
 8004d3e:	4293      	cmp	r3, r2
 8004d40:	d018      	beq.n	8004d74 <HAL_TIM_Base_Start_IT+0x6c>
 8004d42:	687b      	ldr	r3, [r7, #4]
 8004d44:	681b      	ldr	r3, [r3, #0]
 8004d46:	f1b3 4f80 	cmp.w	r3, #1073741824	; 0x40000000
 8004d4a:	d013      	beq.n	8004d74 <HAL_TIM_Base_Start_IT+0x6c>
 8004d4c:	687b      	ldr	r3, [r7, #4]
 8004d4e:	681b      	ldr	r3, [r3, #0]
 8004d50:	4a1d      	ldr	r2, [pc, #116]	; (8004dc8 <HAL_TIM_Base_Start_IT+0xc0>)
 8004d52:	4293      	cmp	r3, r2
 8004d54:	d00e      	beq.n	8004d74 <HAL_TIM_Base_Start_IT+0x6c>
 8004d56:	687b      	ldr	r3, [r7, #4]
 8004d58:	681b      	ldr	r3, [r3, #0]
 8004d5a:	4a1c      	ldr	r2, [pc, #112]	; (8004dcc <HAL_TIM_Base_Start_IT+0xc4>)
 8004d5c:	4293      	cmp	r3, r2
 8004d5e:	d009      	beq.n	8004d74 <HAL_TIM_Base_Start_IT+0x6c>
 8004d60:	687b      	ldr	r3, [r7, #4]
 8004d62:	681b      	ldr	r3, [r3, #0]
 8004d64:	4a1a      	ldr	r2, [pc, #104]	; (8004dd0 <HAL_TIM_Base_Start_IT+0xc8>)
 8004d66:	4293      	cmp	r3, r2
 8004d68:	d004      	beq.n	8004d74 <HAL_TIM_Base_Start_IT+0x6c>
 8004d6a:	687b      	ldr	r3, [r7, #4]
 8004d6c:	681b      	ldr	r3, [r3, #0]
 8004d6e:	4a19      	ldr	r2, [pc, #100]	; (8004dd4 <HAL_TIM_Base_Start_IT+0xcc>)
 8004d70:	4293      	cmp	r3, r2
 8004d72:	d115      	bne.n	8004da0 <HAL_TIM_Base_Start_IT+0x98>
 8004d74:	687b      	ldr	r3, [r7, #4]
 8004d76:	681b      	ldr	r3, [r3, #0]
 8004d78:	689a      	ldr	r2, [r3, #8]
 8004d7a:	4b17      	ldr	r3, [pc, #92]	; (8004dd8 <HAL_TIM_Base_Start_IT+0xd0>)
 8004d7c:	4013      	ands	r3, r2
 8004d7e:	60fb      	str	r3, [r7, #12]
 8004d80:	68fb      	ldr	r3, [r7, #12]
 8004d82:	2b06      	cmp	r3, #6
 8004d84:	d015      	beq.n	8004db2 <HAL_TIM_Base_Start_IT+0xaa>
 8004d86:	68fb      	ldr	r3, [r7, #12]
 8004d88:	f5b3 3f80 	cmp.w	r3, #65536	; 0x10000
 8004d8c:	d011      	beq.n	8004db2 <HAL_TIM_Base_Start_IT+0xaa>
 8004d8e:	687b      	ldr	r3, [r7, #4]
 8004d90:	681b      	ldr	r3, [r3, #0]
 8004d92:	681a      	ldr	r2, [r3, #0]
 8004d94:	687b      	ldr	r3, [r7, #4]
 8004d96:	681b      	ldr	r3, [r3, #0]
 8004d98:	f042 0201 	orr.w	r2, r2, #1
 8004d9c:	601a      	str	r2, [r3, #0]
 8004d9e:	e008      	b.n	8004db2 <HAL_TIM_Base_Start_IT+0xaa>
 8004da0:	687b      	ldr	r3, [r7, #4]
 8004da2:	681b      	ldr	r3, [r3, #0]
 8004da4:	681a      	ldr	r2, [r3, #0]
 8004da6:	687b      	ldr	r3, [r7, #4]
 8004da8:	681b      	ldr	r3, [r3, #0]
 8004daa:	f042 0201 	orr.w	r2, r2, #1
 8004dae:	601a      	str	r2, [r3, #0]
 8004db0:	e000      	b.n	8004db4 <HAL_TIM_Base_Start_IT+0xac>
 8004db2:	bf00      	nop
 8004db4:	2300      	movs	r3, #0
 8004db6:	4618      	mov	r0, r3
 8004db8:	3714      	adds	r7, #20
 8004dba:	46bd      	mov	sp, r7
 8004dbc:	f85d 7b04 	ldr.w	r7, [sp], #4
 8004dc0:	4770      	bx	lr
 8004dc2:	bf00      	nop
 8004dc4:	40012c00 	.word	0x40012c00
 8004dc8:	40000400 	.word	0x40000400
 8004dcc:	40000800 	.word	0x40000800
 8004dd0:	40013400 	.word	0x40013400
 8004dd4:	40014000 	.word	0x40014000
 8004dd8:	00010007 	.word	0x00010007

08004ddc <HAL_TIM_IRQHandler>:
 8004ddc:	b580      	push	{r7, lr}
 8004dde:	b082      	sub	sp, #8
 8004de0:	af00      	add	r7, sp, #0
 8004de2:	6078      	str	r0, [r7, #4]
 8004de4:	687b      	ldr	r3, [r7, #4]
 8004de6:	681b      	ldr	r3, [r3, #0]
 8004de8:	691b      	ldr	r3, [r3, #16]
 8004dea:	f003 0302 	and.w	r3, r3, #2
 8004dee:	2b02      	cmp	r3, #2
 8004df0:	d122      	bne.n	8004e38 <HAL_TIM_IRQHandler+0x5c>
 8004df2:	687b      	ldr	r3, [r7, #4]
 8004df4:	681b      	ldr	r3, [r3, #0]
 8004df6:	68db      	ldr	r3, [r3, #12]
 8004df8:	f003 0302 	and.w	r3, r3, #2
 8004dfc:	2b02      	cmp	r3, #2
 8004dfe:	d11b      	bne.n	8004e38 <HAL_TIM_IRQHandler+0x5c>
 8004e00:	687b      	ldr	r3, [r7, #4]
 8004e02:	681b      	ldr	r3, [r3, #0]
 8004e04:	f06f 0202 	mvn.w	r2, #2
 8004e08:	611a      	str	r2, [r3, #16]
 8004e0a:	687b      	ldr	r3, [r7, #4]
 8004e0c:	2201      	movs	r2, #1
 8004e0e:	771a      	strb	r2, [r3, #28]
 8004e10:	687b      	ldr	r3, [r7, #4]
 8004e12:	681b      	ldr	r3, [r3, #0]
 8004e14:	699b      	ldr	r3, [r3, #24]
 8004e16:	f003 0303 	and.w	r3, r3, #3
 8004e1a:	2b00      	cmp	r3, #0
 8004e1c:	d003      	beq.n	8004e26 <HAL_TIM_IRQHandler+0x4a>
 8004e1e:	6878      	ldr	r0, [r7, #4]
 8004e20:	f000 f965 	bl	80050ee <HAL_TIM_IC_CaptureCallback>
 8004e24:	e005      	b.n	8004e32 <HAL_TIM_IRQHandler+0x56>
 8004e26:	6878      	ldr	r0, [r7, #4]
 8004e28:	f000 f957 	bl	80050da <HAL_TIM_OC_DelayElapsedCallback>
 8004e2c:	6878      	ldr	r0, [r7, #4]
 8004e2e:	f000 f968 	bl	8005102 <HAL_TIM_PWM_PulseFinishedCallback>
 8004e32:	687b      	ldr	r3, [r7, #4]
 8004e34:	2200      	movs	r2, #0
 8004e36:	771a      	strb	r2, [r3, #28]
 8004e38:	687b      	ldr	r3, [r7, #4]
 8004e3a:	681b      	ldr	r3, [r3, #0]
 8004e3c:	691b      	ldr	r3, [r3, #16]
 8004e3e:	f003 0304 	and.w	r3, r3, #4
 8004e42:	2b04      	cmp	r3, #4
 8004e44:	d122      	bne.n	8004e8c <HAL_TIM_IRQHandler+0xb0>
 8004e46:	687b      	ldr	r3, [r7, #4]
 8004e48:	681b      	ldr	r3, [r3, #0]
 8004e4a:	68db      	ldr	r3, [r3, #12]
 8004e4c:	f003 0304 	and.w	r3, r3, #4
 8004e50:	2b04      	cmp	r3, #4
 8004e52:	d11b      	bne.n	8004e8c <HAL_TIM_IRQHandler+0xb0>
 8004e54:	687b      	ldr	r3, [r7, #4]
 8004e56:	681b      	ldr	r3, [r3, #0]
 8004e58:	f06f 0204 	mvn.w	r2, #4
 8004e5c:	611a      	str	r2, [r3, #16]
 8004e5e:	687b      	ldr	r3, [r7, #4]
 8004e60:	2202      	movs	r2, #2
 8004e62:	771a      	strb	r2, [r3, #28]
 8004e64:	687b      	ldr	r3, [r7, #4]
 8004e66:	681b      	ldr	r3, [r3, #0]
 8004e68:	699b      	ldr	r3, [r3, #24]
 8004e6a:	f403 7340 	and.w	r3, r3, #768	; 0x300
 8004e6e:	2b00      	cmp	r3, #0
 8004e70:	d003      	beq.n	8004e7a <HAL_TIM_IRQHandler+0x9e>
 8004e72:	6878      	ldr	r0, [r7, #4]
 8004e74:	f000 f93b 	bl	80050ee <HAL_TIM_IC_CaptureCallback>
 8004e78:	e005      	b.n	8004e86 <HAL_TIM_IRQHandler+0xaa>
 8004e7a:	6878      	ldr	r0, [r7, #4]
 8004e7c:	f000 f92d 	bl	80050da <HAL_TIM_OC_DelayElapsedCallback>
 8004e80:	6878      	ldr	r0, [r7, #4]
 8004e82:	f000 f93e 	bl	8005102 <HAL_TIM_PWM_PulseFinishedCallback>
 8004e86:	687b      	ldr	r3, [r7, #4]
 8004e88:	2200      	movs	r2, #0
 8004e8a:	771a      	strb	r2, [r3, #28]
 8004e8c:	687b      	ldr	r3, [r7, #4]
 8004e8e:	681b      	ldr	r3, [r3, #0]
 8004e90:	691b      	ldr	r3, [r3, #16]
 8004e92:	f003 0308 	and.w	r3, r3, #8
 8004e96:	2b08      	cmp	r3, #8
 8004e98:	d122      	bne.n	8004ee0 <HAL_TIM_IRQHandler+0x104>
 8004e9a:	687b      	ldr	r3, [r7, #4]
 8004e9c:	681b      	ldr	r3, [r3, #0]
 8004e9e:	68db      	ldr	r3, [r3, #12]
 8004ea0:	f003 0308 	and.w	r3, r3, #8
 8004ea4:	2b08      	cmp	r3, #8
 8004ea6:	d11b      	bne.n	8004ee0 <HAL_TIM_IRQHandler+0x104>
 8004ea8:	687b      	ldr	r3, [r7, #4]
 8004eaa:	681b      	ldr	r3, [r3, #0]
 8004eac:	f06f 0208 	mvn.w	r2, #8
 8004eb0:	611a      	str	r2, [r3, #16]
 8004eb2:	687b      	ldr	r3, [r7, #4]
 8004eb4:	2204      	movs	r2, #4
 8004eb6:	771a      	strb	r2, [r3, #28]
 8004eb8:	687b      	ldr	r3, [r7, #4]
 8004eba:	681b      	ldr	r3, [r3, #0]
 8004ebc:	69db      	ldr	r3, [r3, #28]
 8004ebe:	f003 0303 	and.w	r3, r3, #3
 8004ec2:	2b00      	cmp	r3, #0
 8004ec4:	d003      	beq.n	8004ece <HAL_TIM_IRQHandler+0xf2>
 8004ec6:	6878      	ldr	r0, [r7, #4]
 8004ec8:	f000 f911 	bl	80050ee <HAL_TIM_IC_CaptureCallback>
 8004ecc:	e005      	b.n	8004eda <HAL_TIM_IRQHandler+0xfe>
 8004ece:	6878      	ldr	r0, [r7, #4]
 8004ed0:	f000 f903 	bl	80050da <HAL_TIM_OC_DelayElapsedCallback>
 8004ed4:	6878      	ldr	r0, [r7, #4]
 8004ed6:	f000 f914 	bl	8005102 <HAL_TIM_PWM_PulseFinishedCallback>
 8004eda:	687b      	ldr	r3, [r7, #4]
 8004edc:	2200      	movs	r2, #0
 8004ede:	771a      	strb	r2, [r3, #28]
 8004ee0:	687b      	ldr	r3, [r7, #4]
 8004ee2:	681b      	ldr	r3, [r3, #0]
 8004ee4:	691b      	ldr	r3, [r3, #16]
 8004ee6:	f003 0310 	and.w	r3, r3, #16
 8004eea:	2b10      	cmp	r3, #16
 8004eec:	d122      	bne.n	8004f34 <HAL_TIM_IRQHandler+0x158>
 8004eee:	687b      	ldr	r3, [r7, #4]
 8004ef0:	681b      	ldr	r3, [r3, #0]
 8004ef2:	68db      	ldr	r3, [r3, #12]
 8004ef4:	f003 0310 	and.w	r3, r3, #16
 8004ef8:	2b10      	cmp	r3, #16
 8004efa:	d11b      	bne.n	8004f34 <HAL_TIM_IRQHandler+0x158>
 8004efc:	687b      	ldr	r3, [r7, #4]
 8004efe:	681b      	ldr	r3, [r3, #0]
 8004f00:	f06f 0210 	mvn.w	r2, #16
 8004f04:	611a      	str	r2, [r3, #16]
 8004f06:	687b      	ldr	r3, [r7, #4]
 8004f08:	2208      	movs	r2, #8
 8004f0a:	771a      	strb	r2, [r3, #28]
 8004f0c:	687b      	ldr	r3, [r7, #4]
 8004f0e:	681b      	ldr	r3, [r3, #0]
 8004f10:	69db      	ldr	r3, [r3, #28]
 8004f12:	f403 7340 	and.w	r3, r3, #768	; 0x300
 8004f16:	2b00      	cmp	r3, #0
 8004f18:	d003      	beq.n	8004f22 <HAL_TIM_IRQHandler+0x146>
 8004f1a:	6878      	ldr	r0, [r7, #4]
 8004f1c:	f000 f8e7 	bl	80050ee <HAL_TIM_IC_CaptureCallback>
 8004f20:	e005      	b.n	8004f2e <HAL_TIM_IRQHandler+0x152>
 8004f22:	6878      	ldr	r0, [r7, #4]
 8004f24:	f000 f8d9 	bl	80050da <HAL_TIM_OC_DelayElapsedCallback>
 8004f28:	6878      	ldr	r0, [r7, #4]
 8004f2a:	f000 f8ea 	bl	8005102 <HAL_TIM_PWM_PulseFinishedCallback>
 8004f2e:	687b      	ldr	r3, [r7, #4]
 8004f30:	2200      	movs	r2, #0
 8004f32:	771a      	strb	r2, [r3, #28]
 8004f34:	687b      	ldr	r3, [r7, #4]
 8004f36:	681b      	ldr	r3, [r3, #0]
 8004f38:	691b      	ldr	r3, [r3, #16]
 8004f3a:	f003 0301 	and.w	r3, r3, #1
 8004f3e:	2b01      	cmp	r3, #1
 8004f40:	d10e      	bne.n	8004f60 <HAL_TIM_IRQHandler+0x184>
 8004f42:	687b      	ldr	r3, [r7, #4]
 8004f44:	681b      	ldr	r3, [r3, #0]
 8004f46:	68db      	ldr	r3, [r3, #12]
 8004f48:	f003 0301 	and.w	r3, r3, #1
 8004f4c:	2b01      	cmp	r3, #1
 8004f4e:	d107      	bne.n	8004f60 <HAL_TIM_IRQHandler+0x184>
 8004f50:	687b      	ldr	r3, [r7, #4]
 8004f52:	681b      	ldr	r3, [r3, #0]
 8004f54:	f06f 0201 	mvn.w	r2, #1
 8004f58:	611a      	str	r2, [r3, #16]
 8004f5a:	6878      	ldr	r0, [r7, #4]
 8004f5c:	f7fc fc42 	bl	80017e4 <HAL_TIM_PeriodElapsedCallback>
 8004f60:	687b      	ldr	r3, [r7, #4]
 8004f62:	681b      	ldr	r3, [r3, #0]
 8004f64:	691b      	ldr	r3, [r3, #16]
 8004f66:	f003 0380 	and.w	r3, r3, #128	; 0x80
 8004f6a:	2b80      	cmp	r3, #128	; 0x80
 8004f6c:	d10e      	bne.n	8004f8c <HAL_TIM_IRQHandler+0x1b0>
 8004f6e:	687b      	ldr	r3, [r7, #4]
 8004f70:	681b      	ldr	r3, [r3, #0]
 8004f72:	68db      	ldr	r3, [r3, #12]
 8004f74:	f003 0380 	and.w	r3, r3, #128	; 0x80
 8004f78:	2b80      	cmp	r3, #128	; 0x80
 8004f7a:	d107      	bne.n	8004f8c <HAL_TIM_IRQHandler+0x1b0>
 8004f7c:	687b      	ldr	r3, [r7, #4]
 8004f7e:	681b      	ldr	r3, [r3, #0]
 8004f80:	f06f 0280 	mvn.w	r2, #128	; 0x80
 8004f84:	611a      	str	r2, [r3, #16]
 8004f86:	6878      	ldr	r0, [r7, #4]
 8004f88:	f000 f96a 	bl	8005260 <HAL_TIMEx_BreakCallback>
 8004f8c:	687b      	ldr	r3, [r7, #4]
 8004f8e:	681b      	ldr	r3, [r3, #0]
 8004f90:	691b      	ldr	r3, [r3, #16]
 8004f92:	f403 7380 	and.w	r3, r3, #256	; 0x100
 8004f96:	f5b3 7f80 	cmp.w	r3, #256	; 0x100
 8004f9a:	d10e      	bne.n	8004fba <HAL_TIM_IRQHandler+0x1de>
 8004f9c:	687b      	ldr	r3, [r7, #4]
 8004f9e:	681b      	ldr	r3, [r3, #0]
 8004fa0:	68db      	ldr	r3, [r3, #12]
 8004fa2:	f003 0380 	and.w	r3, r3, #128	; 0x80
 8004fa6:	2b80      	cmp	r3, #128	; 0x80
 8004fa8:	d107      	bne.n	8004fba <HAL_TIM_IRQHandler+0x1de>
 8004faa:	687b      	ldr	r3, [r7, #4]
 8004fac:	681b      	ldr	r3, [r3, #0]
 8004fae:	f46f 7280 	mvn.w	r2, #256	; 0x100
 8004fb2:	611a      	str	r2, [r3, #16]
 8004fb4:	6878      	ldr	r0, [r7, #4]
 8004fb6:	f000 f95d 	bl	8005274 <HAL_TIMEx_Break2Callback>
 8004fba:	687b      	ldr	r3, [r7, #4]
 8004fbc:	681b      	ldr	r3, [r3, #0]
 8004fbe:	691b      	ldr	r3, [r3, #16]
 8004fc0:	f003 0340 	and.w	r3, r3, #64	; 0x40
 8004fc4:	2b40      	cmp	r3, #64	; 0x40
 8004fc6:	d10e      	bne.n	8004fe6 <HAL_TIM_IRQHandler+0x20a>
 8004fc8:	687b      	ldr	r3, [r7, #4]
 8004fca:	681b      	ldr	r3, [r3, #0]
 8004fcc:	68db      	ldr	r3, [r3, #12]
 8004fce:	f003 0340 	and.w	r3, r3, #64	; 0x40
 8004fd2:	2b40      	cmp	r3, #64	; 0x40
 8004fd4:	d107      	bne.n	8004fe6 <HAL_TIM_IRQHandler+0x20a>
 8004fd6:	687b      	ldr	r3, [r7, #4]
 8004fd8:	681b      	ldr	r3, [r3, #0]
 8004fda:	f06f 0240 	mvn.w	r2, #64	; 0x40
 8004fde:	611a      	str	r2, [r3, #16]
 8004fe0:	6878      	ldr	r0, [r7, #4]
 8004fe2:	f000 f898 	bl	8005116 <HAL_TIM_TriggerCallback>
 8004fe6:	687b      	ldr	r3, [r7, #4]
 8004fe8:	681b      	ldr	r3, [r3, #0]
 8004fea:	691b      	ldr	r3, [r3, #16]
 8004fec:	f003 0320 	and.w	r3, r3, #32
 8004ff0:	2b20      	cmp	r3, #32
 8004ff2:	d10e      	bne.n	8005012 <HAL_TIM_IRQHandler+0x236>
 8004ff4:	687b      	ldr	r3, [r7, #4]
 8004ff6:	681b      	ldr	r3, [r3, #0]
 8004ff8:	68db      	ldr	r3, [r3, #12]
 8004ffa:	f003 0320 	and.w	r3, r3, #32
 8004ffe:	2b20      	cmp	r3, #32
 8005000:	d107      	bne.n	8005012 <HAL_TIM_IRQHandler+0x236>
 8005002:	687b      	ldr	r3, [r7, #4]
 8005004:	681b      	ldr	r3, [r3, #0]
 8005006:	f06f 0220 	mvn.w	r2, #32
 800500a:	611a      	str	r2, [r3, #16]
 800500c:	6878      	ldr	r0, [r7, #4]
 800500e:	f000 f91d 	bl	800524c <HAL_TIMEx_CommutCallback>
 8005012:	687b      	ldr	r3, [r7, #4]
 8005014:	681b      	ldr	r3, [r3, #0]
 8005016:	691b      	ldr	r3, [r3, #16]
 8005018:	f403 1380 	and.w	r3, r3, #1048576	; 0x100000
 800501c:	f5b3 1f80 	cmp.w	r3, #1048576	; 0x100000
 8005020:	d10f      	bne.n	8005042 <HAL_TIM_IRQHandler+0x266>
 8005022:	687b      	ldr	r3, [r7, #4]
 8005024:	681b      	ldr	r3, [r3, #0]
 8005026:	68db      	ldr	r3, [r3, #12]
 8005028:	f403 1380 	and.w	r3, r3, #1048576	; 0x100000
 800502c:	f5b3 1f80 	cmp.w	r3, #1048576	; 0x100000
 8005030:	d107      	bne.n	8005042 <HAL_TIM_IRQHandler+0x266>
 8005032:	687b      	ldr	r3, [r7, #4]
 8005034:	681b      	ldr	r3, [r3, #0]
 8005036:	f46f 1280 	mvn.w	r2, #1048576	; 0x100000
 800503a:	611a      	str	r2, [r3, #16]
 800503c:	6878      	ldr	r0, [r7, #4]
 800503e:	f000 f923 	bl	8005288 <HAL_TIMEx_EncoderIndexCallback>
 8005042:	687b      	ldr	r3, [r7, #4]
 8005044:	681b      	ldr	r3, [r3, #0]
 8005046:	691b      	ldr	r3, [r3, #16]
 8005048:	f403 1300 	and.w	r3, r3, #2097152	; 0x200000
 800504c:	f5b3 1f00 	cmp.w	r3, #2097152	; 0x200000
 8005050:	d10f      	bne.n	8005072 <HAL_TIM_IRQHandler+0x296>
 8005052:	687b      	ldr	r3, [r7, #4]
 8005054:	681b      	ldr	r3, [r3, #0]
 8005056:	68db      	ldr	r3, [r3, #12]
 8005058:	f403 1300 	and.w	r3, r3, #2097152	; 0x200000
 800505c:	f5b3 1f00 	cmp.w	r3, #2097152	; 0x200000
 8005060:	d107      	bne.n	8005072 <HAL_TIM_IRQHandler+0x296>
 8005062:	687b      	ldr	r3, [r7, #4]
 8005064:	681b      	ldr	r3, [r3, #0]
 8005066:	f46f 1200 	mvn.w	r2, #2097152	; 0x200000
 800506a:	611a      	str	r2, [r3, #16]
 800506c:	6878      	ldr	r0, [r7, #4]
 800506e:	f000 f915 	bl	800529c <HAL_TIMEx_DirectionChangeCallback>
 8005072:	687b      	ldr	r3, [r7, #4]
 8005074:	681b      	ldr	r3, [r3, #0]
 8005076:	691b      	ldr	r3, [r3, #16]
 8005078:	f403 0380 	and.w	r3, r3, #4194304	; 0x400000
 800507c:	f5b3 0f80 	cmp.w	r3, #4194304	; 0x400000
 8005080:	d10f      	bne.n	80050a2 <HAL_TIM_IRQHandler+0x2c6>
 8005082:	687b      	ldr	r3, [r7, #4]
 8005084:	681b      	ldr	r3, [r3, #0]
 8005086:	68db      	ldr	r3, [r3, #12]
 8005088:	f403 0380 	and.w	r3, r3, #4194304	; 0x400000
 800508c:	f5b3 0f80 	cmp.w	r3, #4194304	; 0x400000
 8005090:	d107      	bne.n	80050a2 <HAL_TIM_IRQHandler+0x2c6>
 8005092:	687b      	ldr	r3, [r7, #4]
 8005094:	681b      	ldr	r3, [r3, #0]
 8005096:	f46f 0280 	mvn.w	r2, #4194304	; 0x400000
 800509a:	611a      	str	r2, [r3, #16]
 800509c:	6878      	ldr	r0, [r7, #4]
 800509e:	f000 f907 	bl	80052b0 <HAL_TIMEx_IndexErrorCallback>
 80050a2:	687b      	ldr	r3, [r7, #4]
 80050a4:	681b      	ldr	r3, [r3, #0]
 80050a6:	691b      	ldr	r3, [r3, #16]
 80050a8:	f403 0300 	and.w	r3, r3, #8388608	; 0x800000
 80050ac:	f5b3 0f00 	cmp.w	r3, #8388608	; 0x800000
 80050b0:	d10f      	bne.n	80050d2 <HAL_TIM_IRQHandler+0x2f6>
 80050b2:	687b      	ldr	r3, [r7, #4]
 80050b4:	681b      	ldr	r3, [r3, #0]
 80050b6:	68db      	ldr	r3, [r3, #12]
 80050b8:	f403 0300 	and.w	r3, r3, #8388608	; 0x800000
 80050bc:	f5b3 0f00 	cmp.w	r3, #8388608	; 0x800000
 80050c0:	d107      	bne.n	80050d2 <HAL_TIM_IRQHandler+0x2f6>
 80050c2:	687b      	ldr	r3, [r7, #4]
 80050c4:	681b      	ldr	r3, [r3, #0]
 80050c6:	f46f 0200 	mvn.w	r2, #8388608	; 0x800000
 80050ca:	611a      	str	r2, [r3, #16]
 80050cc:	6878      	ldr	r0, [r7, #4]
 80050ce:	f000 f8f9 	bl	80052c4 <HAL_TIMEx_TransitionErrorCallback>
 80050d2:	bf00      	nop
 80050d4:	3708      	adds	r7, #8
 80050d6:	46bd      	mov	sp, r7
 80050d8:	bd80      	pop	{r7, pc}

080050da <HAL_TIM_OC_DelayElapsedCallback>:
 80050da:	b480      	push	{r7}
 80050dc:	b083      	sub	sp, #12
 80050de:	af00      	add	r7, sp, #0
 80050e0:	6078      	str	r0, [r7, #4]
 80050e2:	bf00      	nop
 80050e4:	370c      	adds	r7, #12
 80050e6:	46bd      	mov	sp, r7
 80050e8:	f85d 7b04 	ldr.w	r7, [sp], #4
 80050ec:	4770      	bx	lr

080050ee <HAL_TIM_IC_CaptureCallback>:
 80050ee:	b480      	push	{r7}
 80050f0:	b083      	sub	sp, #12
 80050f2:	af00      	add	r7, sp, #0
 80050f4:	6078      	str	r0, [r7, #4]
 80050f6:	bf00      	nop
 80050f8:	370c      	adds	r7, #12
 80050fa:	46bd      	mov	sp, r7
 80050fc:	f85d 7b04 	ldr.w	r7, [sp], #4
 8005100:	4770      	bx	lr

08005102 <HAL_TIM_PWM_PulseFinishedCallback>:
 8005102:	b480      	push	{r7}
 8005104:	b083      	sub	sp, #12
 8005106:	af00      	add	r7, sp, #0
 8005108:	6078      	str	r0, [r7, #4]
 800510a:	bf00      	nop
 800510c:	370c      	adds	r7, #12
 800510e:	46bd      	mov	sp, r7
 8005110:	f85d 7b04 	ldr.w	r7, [sp], #4
 8005114:	4770      	bx	lr

08005116 <HAL_TIM_TriggerCallback>:
 8005116:	b480      	push	{r7}
 8005118:	b083      	sub	sp, #12
 800511a:	af00      	add	r7, sp, #0
 800511c:	6078      	str	r0, [r7, #4]
 800511e:	bf00      	nop
 8005120:	370c      	adds	r7, #12
 8005122:	46bd      	mov	sp, r7
 8005124:	f85d 7b04 	ldr.w	r7, [sp], #4
 8005128:	4770      	bx	lr
	...

0800512c <TIM_Base_SetConfig>:
 800512c:	b480      	push	{r7}
 800512e:	b085      	sub	sp, #20
 8005130:	af00      	add	r7, sp, #0
 8005132:	6078      	str	r0, [r7, #4]
 8005134:	6039      	str	r1, [r7, #0]
 8005136:	687b      	ldr	r3, [r7, #4]
 8005138:	681b      	ldr	r3, [r3, #0]
 800513a:	60fb      	str	r3, [r7, #12]
 800513c:	687b      	ldr	r3, [r7, #4]
 800513e:	4a3c      	ldr	r2, [pc, #240]	; (8005230 <TIM_Base_SetConfig+0x104>)
 8005140:	4293      	cmp	r3, r2
 8005142:	d00f      	beq.n	8005164 <TIM_Base_SetConfig+0x38>
 8005144:	687b      	ldr	r3, [r7, #4]
 8005146:	f1b3 4f80 	cmp.w	r3, #1073741824	; 0x40000000
 800514a:	d00b      	beq.n	8005164 <TIM_Base_SetConfig+0x38>
 800514c:	687b      	ldr	r3, [r7, #4]
 800514e:	4a39      	ldr	r2, [pc, #228]	; (8005234 <TIM_Base_SetConfig+0x108>)
 8005150:	4293      	cmp	r3, r2
 8005152:	d007      	beq.n	8005164 <TIM_Base_SetConfig+0x38>
 8005154:	687b      	ldr	r3, [r7, #4]
 8005156:	4a38      	ldr	r2, [pc, #224]	; (8005238 <TIM_Base_SetConfig+0x10c>)
 8005158:	4293      	cmp	r3, r2
 800515a:	d003      	beq.n	8005164 <TIM_Base_SetConfig+0x38>
 800515c:	687b      	ldr	r3, [r7, #4]
 800515e:	4a37      	ldr	r2, [pc, #220]	; (800523c <TIM_Base_SetConfig+0x110>)
 8005160:	4293      	cmp	r3, r2
 8005162:	d108      	bne.n	8005176 <TIM_Base_SetConfig+0x4a>
 8005164:	68fb      	ldr	r3, [r7, #12]
 8005166:	f023 0370 	bic.w	r3, r3, #112	; 0x70
 800516a:	60fb      	str	r3, [r7, #12]
 800516c:	683b      	ldr	r3, [r7, #0]
 800516e:	685b      	ldr	r3, [r3, #4]
 8005170:	68fa      	ldr	r2, [r7, #12]
 8005172:	4313      	orrs	r3, r2
 8005174:	60fb      	str	r3, [r7, #12]
 8005176:	687b      	ldr	r3, [r7, #4]
 8005178:	4a2d      	ldr	r2, [pc, #180]	; (8005230 <TIM_Base_SetConfig+0x104>)
 800517a:	4293      	cmp	r3, r2
 800517c:	d01b      	beq.n	80051b6 <TIM_Base_SetConfig+0x8a>
 800517e:	687b      	ldr	r3, [r7, #4]
 8005180:	f1b3 4f80 	cmp.w	r3, #1073741824	; 0x40000000
 8005184:	d017      	beq.n	80051b6 <TIM_Base_SetConfig+0x8a>
 8005186:	687b      	ldr	r3, [r7, #4]
 8005188:	4a2a      	ldr	r2, [pc, #168]	; (8005234 <TIM_Base_SetConfig+0x108>)
 800518a:	4293      	cmp	r3, r2
 800518c:	d013      	beq.n	80051b6 <TIM_Base_SetConfig+0x8a>
 800518e:	687b      	ldr	r3, [r7, #4]
 8005190:	4a29      	ldr	r2, [pc, #164]	; (8005238 <TIM_Base_SetConfig+0x10c>)
 8005192:	4293      	cmp	r3, r2
 8005194:	d00f      	beq.n	80051b6 <TIM_Base_SetConfig+0x8a>
 8005196:	687b      	ldr	r3, [r7, #4]
 8005198:	4a28      	ldr	r2, [pc, #160]	; (800523c <TIM_Base_SetConfig+0x110>)
 800519a:	4293      	cmp	r3, r2
 800519c:	d00b      	beq.n	80051b6 <TIM_Base_SetConfig+0x8a>
 800519e:	687b      	ldr	r3, [r7, #4]
 80051a0:	4a27      	ldr	r2, [pc, #156]	; (8005240 <TIM_Base_SetConfig+0x114>)
 80051a2:	4293      	cmp	r3, r2
 80051a4:	d007      	beq.n	80051b6 <TIM_Base_SetConfig+0x8a>
 80051a6:	687b      	ldr	r3, [r7, #4]
 80051a8:	4a26      	ldr	r2, [pc, #152]	; (8005244 <TIM_Base_SetConfig+0x118>)
 80051aa:	4293      	cmp	r3, r2
 80051ac:	d003      	beq.n	80051b6 <TIM_Base_SetConfig+0x8a>
 80051ae:	687b      	ldr	r3, [r7, #4]
 80051b0:	4a25      	ldr	r2, [pc, #148]	; (8005248 <TIM_Base_SetConfig+0x11c>)
 80051b2:	4293      	cmp	r3, r2
 80051b4:	d108      	bne.n	80051c8 <TIM_Base_SetConfig+0x9c>
 80051b6:	68fb      	ldr	r3, [r7, #12]
 80051b8:	f423 7340 	bic.w	r3, r3, #768	; 0x300
 80051bc:	60fb      	str	r3, [r7, #12]
 80051be:	683b      	ldr	r3, [r7, #0]
 80051c0:	68db      	ldr	r3, [r3, #12]
 80051c2:	68fa      	ldr	r2, [r7, #12]
 80051c4:	4313      	orrs	r3, r2
 80051c6:	60fb      	str	r3, [r7, #12]
 80051c8:	68fb      	ldr	r3, [r7, #12]
 80051ca:	f023 0280 	bic.w	r2, r3, #128	; 0x80
 80051ce:	683b      	ldr	r3, [r7, #0]
 80051d0:	695b      	ldr	r3, [r3, #20]
 80051d2:	4313      	orrs	r3, r2
 80051d4:	60fb      	str	r3, [r7, #12]
 80051d6:	687b      	ldr	r3, [r7, #4]
 80051d8:	68fa      	ldr	r2, [r7, #12]
 80051da:	601a      	str	r2, [r3, #0]
 80051dc:	683b      	ldr	r3, [r7, #0]
 80051de:	689a      	ldr	r2, [r3, #8]
 80051e0:	687b      	ldr	r3, [r7, #4]
 80051e2:	62da      	str	r2, [r3, #44]	; 0x2c
 80051e4:	683b      	ldr	r3, [r7, #0]
 80051e6:	681a      	ldr	r2, [r3, #0]
 80051e8:	687b      	ldr	r3, [r7, #4]
 80051ea:	629a      	str	r2, [r3, #40]	; 0x28
 80051ec:	687b      	ldr	r3, [r7, #4]
 80051ee:	4a10      	ldr	r2, [pc, #64]	; (8005230 <TIM_Base_SetConfig+0x104>)
 80051f0:	4293      	cmp	r3, r2
 80051f2:	d00f      	beq.n	8005214 <TIM_Base_SetConfig+0xe8>
 80051f4:	687b      	ldr	r3, [r7, #4]
 80051f6:	4a11      	ldr	r2, [pc, #68]	; (800523c <TIM_Base_SetConfig+0x110>)
 80051f8:	4293      	cmp	r3, r2
 80051fa:	d00b      	beq.n	8005214 <TIM_Base_SetConfig+0xe8>
 80051fc:	687b      	ldr	r3, [r7, #4]
 80051fe:	4a10      	ldr	r2, [pc, #64]	; (8005240 <TIM_Base_SetConfig+0x114>)
 8005200:	4293      	cmp	r3, r2
 8005202:	d007      	beq.n	8005214 <TIM_Base_SetConfig+0xe8>
 8005204:	687b      	ldr	r3, [r7, #4]
 8005206:	4a0f      	ldr	r2, [pc, #60]	; (8005244 <TIM_Base_SetConfig+0x118>)
 8005208:	4293      	cmp	r3, r2
 800520a:	d003      	beq.n	8005214 <TIM_Base_SetConfig+0xe8>
 800520c:	687b      	ldr	r3, [r7, #4]
 800520e:	4a0e      	ldr	r2, [pc, #56]	; (8005248 <TIM_Base_SetConfig+0x11c>)
 8005210:	4293      	cmp	r3, r2
 8005212:	d103      	bne.n	800521c <TIM_Base_SetConfig+0xf0>
 8005214:	683b      	ldr	r3, [r7, #0]
 8005216:	691a      	ldr	r2, [r3, #16]
 8005218:	687b      	ldr	r3, [r7, #4]
 800521a:	631a      	str	r2, [r3, #48]	; 0x30
 800521c:	687b      	ldr	r3, [r7, #4]
 800521e:	2201      	movs	r2, #1
 8005220:	615a      	str	r2, [r3, #20]
 8005222:	bf00      	nop
 8005224:	3714      	adds	r7, #20
 8005226:	46bd      	mov	sp, r7
 8005228:	f85d 7b04 	ldr.w	r7, [sp], #4
 800522c:	4770      	bx	lr
 800522e:	bf00      	nop
 8005230:	40012c00 	.word	0x40012c00
 8005234:	40000400 	.word	0x40000400
 8005238:	40000800 	.word	0x40000800
 800523c:	40013400 	.word	0x40013400
 8005240:	40014000 	.word	0x40014000
 8005244:	40014400 	.word	0x40014400
 8005248:	40014800 	.word	0x40014800

0800524c <HAL_TIMEx_CommutCallback>:
 800524c:	b480      	push	{r7}
 800524e:	b083      	sub	sp, #12
 8005250:	af00      	add	r7, sp, #0
 8005252:	6078      	str	r0, [r7, #4]
 8005254:	bf00      	nop
 8005256:	370c      	adds	r7, #12
 8005258:	46bd      	mov	sp, r7
 800525a:	f85d 7b04 	ldr.w	r7, [sp], #4
 800525e:	4770      	bx	lr

08005260 <HAL_TIMEx_BreakCallback>:
 8005260:	b480      	push	{r7}
 8005262:	b083      	sub	sp, #12
 8005264:	af00      	add	r7, sp, #0
 8005266:	6078      	str	r0, [r7, #4]
 8005268:	bf00      	nop
 800526a:	370c      	adds	r7, #12
 800526c:	46bd      	mov	sp, r7
 800526e:	f85d 7b04 	ldr.w	r7, [sp], #4
 8005272:	4770      	bx	lr

08005274 <HAL_TIMEx_Break2Callback>:
 8005274:	b480      	push	{r7}
 8005276:	b083      	sub	sp, #12
 8005278:	af00      	add	r7, sp, #0
 800527a:	6078      	str	r0, [r7, #4]
 800527c:	bf00      	nop
 800527e:	370c      	adds	r7, #12
 8005280:	46bd      	mov	sp, r7
 8005282:	f85d 7b04 	ldr.w	r7, [sp], #4
 8005286:	4770      	bx	lr

08005288 <HAL_TIMEx_EncoderIndexCallback>:
 8005288:	b480      	push	{r7}
 800528a:	b083      	sub	sp, #12
 800528c:	af00      	add	r7, sp, #0
 800528e:	6078      	str	r0, [r7, #4]
 8005290:	bf00      	nop
 8005292:	370c      	adds	r7, #12
 8005294:	46bd      	mov	sp, r7
 8005296:	f85d 7b04 	ldr.w	r7, [sp], #4
 800529a:	4770      	bx	lr

0800529c <HAL_TIMEx_DirectionChangeCallback>:
 800529c:	b480      	push	{r7}
 800529e:	b083      	sub	sp, #12
 80052a0:	af00      	add	r7, sp, #0
 80052a2:	6078      	str	r0, [r7, #4]
 80052a4:	bf00      	nop
 80052a6:	370c      	adds	r7, #12
 80052a8:	46bd      	mov	sp, r7
 80052aa:	f85d 7b04 	ldr.w	r7, [sp], #4
 80052ae:	4770      	bx	lr

080052b0 <HAL_TIMEx_IndexErrorCallback>:
 80052b0:	b480      	push	{r7}
 80052b2:	b083      	sub	sp, #12
 80052b4:	af00      	add	r7, sp, #0
 80052b6:	6078      	str	r0, [r7, #4]
 80052b8:	bf00      	nop
 80052ba:	370c      	adds	r7, #12
 80052bc:	46bd      	mov	sp, r7
 80052be:	f85d 7b04 	ldr.w	r7, [sp], #4
 80052c2:	4770      	bx	lr

080052c4 <HAL_TIMEx_TransitionErrorCallback>:
 80052c4:	b480      	push	{r7}
 80052c6:	b083      	sub	sp, #12
 80052c8:	af00      	add	r7, sp, #0
 80052ca:	6078      	str	r0, [r7, #4]
 80052cc:	bf00      	nop
 80052ce:	370c      	adds	r7, #12
 80052d0:	46bd      	mov	sp, r7
 80052d2:	f85d 7b04 	ldr.w	r7, [sp], #4
 80052d6:	4770      	bx	lr

080052d8 <HAL_UART_Init>:
 80052d8:	b580      	push	{r7, lr}
 80052da:	b082      	sub	sp, #8
 80052dc:	af00      	add	r7, sp, #0
 80052de:	6078      	str	r0, [r7, #4]
 80052e0:	687b      	ldr	r3, [r7, #4]
 80052e2:	2b00      	cmp	r3, #0
 80052e4:	d101      	bne.n	80052ea <HAL_UART_Init+0x12>
 80052e6:	2301      	movs	r3, #1
 80052e8:	e042      	b.n	8005370 <HAL_UART_Init+0x98>
 80052ea:	687b      	ldr	r3, [r7, #4]
 80052ec:	f8d3 3084 	ldr.w	r3, [r3, #132]	; 0x84
 80052f0:	2b00      	cmp	r3, #0
 80052f2:	d106      	bne.n	8005302 <HAL_UART_Init+0x2a>
 80052f4:	687b      	ldr	r3, [r7, #4]
 80052f6:	2200      	movs	r2, #0
 80052f8:	f883 2080 	strb.w	r2, [r3, #128]	; 0x80
 80052fc:	6878      	ldr	r0, [r7, #4]
 80052fe:	f7fc f9df 	bl	80016c0 <HAL_UART_MspInit>
 8005302:	687b      	ldr	r3, [r7, #4]
 8005304:	2224      	movs	r2, #36	; 0x24
 8005306:	f8c3 2084 	str.w	r2, [r3, #132]	; 0x84
 800530a:	687b      	ldr	r3, [r7, #4]
 800530c:	681b      	ldr	r3, [r3, #0]
 800530e:	681a      	ldr	r2, [r3, #0]
 8005310:	687b      	ldr	r3, [r7, #4]
 8005312:	681b      	ldr	r3, [r3, #0]
 8005314:	f022 0201 	bic.w	r2, r2, #1
 8005318:	601a      	str	r2, [r3, #0]
 800531a:	6878      	ldr	r0, [r7, #4]
 800531c:	f000 f82c 	bl	8005378 <UART_SetConfig>
 8005320:	4603      	mov	r3, r0
 8005322:	2b01      	cmp	r3, #1
 8005324:	d101      	bne.n	800532a <HAL_UART_Init+0x52>
 8005326:	2301      	movs	r3, #1
 8005328:	e022      	b.n	8005370 <HAL_UART_Init+0x98>
 800532a:	687b      	ldr	r3, [r7, #4]
 800532c:	6a9b      	ldr	r3, [r3, #40]	; 0x28
 800532e:	2b00      	cmp	r3, #0
 8005330:	d002      	beq.n	8005338 <HAL_UART_Init+0x60>
 8005332:	6878      	ldr	r0, [r7, #4]
 8005334:	f000 fabe 	bl	80058b4 <UART_AdvFeatureConfig>
 8005338:	687b      	ldr	r3, [r7, #4]
 800533a:	681b      	ldr	r3, [r3, #0]
 800533c:	685a      	ldr	r2, [r3, #4]
 800533e:	687b      	ldr	r3, [r7, #4]
 8005340:	681b      	ldr	r3, [r3, #0]
 8005342:	f422 4290 	bic.w	r2, r2, #18432	; 0x4800
 8005346:	605a      	str	r2, [r3, #4]
 8005348:	687b      	ldr	r3, [r7, #4]
 800534a:	681b      	ldr	r3, [r3, #0]
 800534c:	689a      	ldr	r2, [r3, #8]
 800534e:	687b      	ldr	r3, [r7, #4]
 8005350:	681b      	ldr	r3, [r3, #0]
 8005352:	f022 022a 	bic.w	r2, r2, #42	; 0x2a
 8005356:	609a      	str	r2, [r3, #8]
 8005358:	687b      	ldr	r3, [r7, #4]
 800535a:	681b      	ldr	r3, [r3, #0]
 800535c:	681a      	ldr	r2, [r3, #0]
 800535e:	687b      	ldr	r3, [r7, #4]
 8005360:	681b      	ldr	r3, [r3, #0]
 8005362:	f042 0201 	orr.w	r2, r2, #1
 8005366:	601a      	str	r2, [r3, #0]
 8005368:	6878      	ldr	r0, [r7, #4]
 800536a:	f000 fb45 	bl	80059f8 <UART_CheckIdleState>
 800536e:	4603      	mov	r3, r0
 8005370:	4618      	mov	r0, r3
 8005372:	3708      	adds	r7, #8
 8005374:	46bd      	mov	sp, r7
 8005376:	bd80      	pop	{r7, pc}

08005378 <UART_SetConfig>:
 8005378:	b5b0      	push	{r4, r5, r7, lr}
 800537a:	b088      	sub	sp, #32
 800537c:	af00      	add	r7, sp, #0
 800537e:	6078      	str	r0, [r7, #4]
 8005380:	2300      	movs	r3, #0
 8005382:	76bb      	strb	r3, [r7, #26]
 8005384:	687b      	ldr	r3, [r7, #4]
 8005386:	689a      	ldr	r2, [r3, #8]
 8005388:	687b      	ldr	r3, [r7, #4]
 800538a:	691b      	ldr	r3, [r3, #16]
 800538c:	431a      	orrs	r2, r3
 800538e:	687b      	ldr	r3, [r7, #4]
 8005390:	695b      	ldr	r3, [r3, #20]
 8005392:	431a      	orrs	r2, r3
 8005394:	687b      	ldr	r3, [r7, #4]
 8005396:	69db      	ldr	r3, [r3, #28]
 8005398:	4313      	orrs	r3, r2
 800539a:	61fb      	str	r3, [r7, #28]
 800539c:	687b      	ldr	r3, [r7, #4]
 800539e:	681b      	ldr	r3, [r3, #0]
 80053a0:	681a      	ldr	r2, [r3, #0]
 80053a2:	4baf      	ldr	r3, [pc, #700]	; (8005660 <UART_SetConfig+0x2e8>)
 80053a4:	4013      	ands	r3, r2
 80053a6:	687a      	ldr	r2, [r7, #4]
 80053a8:	6812      	ldr	r2, [r2, #0]
 80053aa:	69f9      	ldr	r1, [r7, #28]
 80053ac:	430b      	orrs	r3, r1
 80053ae:	6013      	str	r3, [r2, #0]
 80053b0:	687b      	ldr	r3, [r7, #4]
 80053b2:	681b      	ldr	r3, [r3, #0]
 80053b4:	685b      	ldr	r3, [r3, #4]
 80053b6:	f423 5140 	bic.w	r1, r3, #12288	; 0x3000
 80053ba:	687b      	ldr	r3, [r7, #4]
 80053bc:	68da      	ldr	r2, [r3, #12]
 80053be:	687b      	ldr	r3, [r7, #4]
 80053c0:	681b      	ldr	r3, [r3, #0]
 80053c2:	430a      	orrs	r2, r1
 80053c4:	605a      	str	r2, [r3, #4]
 80053c6:	687b      	ldr	r3, [r7, #4]
 80053c8:	699b      	ldr	r3, [r3, #24]
 80053ca:	61fb      	str	r3, [r7, #28]
 80053cc:	687b      	ldr	r3, [r7, #4]
 80053ce:	681b      	ldr	r3, [r3, #0]
 80053d0:	4aa4      	ldr	r2, [pc, #656]	; (8005664 <UART_SetConfig+0x2ec>)
 80053d2:	4293      	cmp	r3, r2
 80053d4:	d004      	beq.n	80053e0 <UART_SetConfig+0x68>
 80053d6:	687b      	ldr	r3, [r7, #4]
 80053d8:	6a1b      	ldr	r3, [r3, #32]
 80053da:	69fa      	ldr	r2, [r7, #28]
 80053dc:	4313      	orrs	r3, r2
 80053de:	61fb      	str	r3, [r7, #28]
 80053e0:	687b      	ldr	r3, [r7, #4]
 80053e2:	681b      	ldr	r3, [r3, #0]
 80053e4:	689b      	ldr	r3, [r3, #8]
 80053e6:	f023 436e 	bic.w	r3, r3, #3992977408	; 0xee000000
 80053ea:	f423 6330 	bic.w	r3, r3, #2816	; 0xb00
 80053ee:	687a      	ldr	r2, [r7, #4]
 80053f0:	6812      	ldr	r2, [r2, #0]
 80053f2:	69f9      	ldr	r1, [r7, #28]
 80053f4:	430b      	orrs	r3, r1
 80053f6:	6093      	str	r3, [r2, #8]
 80053f8:	687b      	ldr	r3, [r7, #4]
 80053fa:	681b      	ldr	r3, [r3, #0]
 80053fc:	6adb      	ldr	r3, [r3, #44]	; 0x2c
 80053fe:	f023 010f 	bic.w	r1, r3, #15
 8005402:	687b      	ldr	r3, [r7, #4]
 8005404:	6a5a      	ldr	r2, [r3, #36]	; 0x24
 8005406:	687b      	ldr	r3, [r7, #4]
 8005408:	681b      	ldr	r3, [r3, #0]
 800540a:	430a      	orrs	r2, r1
 800540c:	62da      	str	r2, [r3, #44]	; 0x2c
 800540e:	687b      	ldr	r3, [r7, #4]
 8005410:	681b      	ldr	r3, [r3, #0]
 8005412:	4a95      	ldr	r2, [pc, #596]	; (8005668 <UART_SetConfig+0x2f0>)
 8005414:	4293      	cmp	r3, r2
 8005416:	d120      	bne.n	800545a <UART_SetConfig+0xe2>
 8005418:	4b94      	ldr	r3, [pc, #592]	; (800566c <UART_SetConfig+0x2f4>)
 800541a:	f8d3 3088 	ldr.w	r3, [r3, #136]	; 0x88
 800541e:	f003 0303 	and.w	r3, r3, #3
 8005422:	2b03      	cmp	r3, #3
 8005424:	d816      	bhi.n	8005454 <UART_SetConfig+0xdc>
 8005426:	a201      	add	r2, pc, #4	; (adr r2, 800542c <UART_SetConfig+0xb4>)
 8005428:	f852 f023 	ldr.w	pc, [r2, r3, lsl #2]
 800542c:	0800543d 	.word	0x0800543d
 8005430:	08005449 	.word	0x08005449
 8005434:	08005443 	.word	0x08005443
 8005438:	0800544f 	.word	0x0800544f
 800543c:	2301      	movs	r3, #1
 800543e:	76fb      	strb	r3, [r7, #27]
 8005440:	e0bc      	b.n	80055bc <UART_SetConfig+0x244>
 8005442:	2302      	movs	r3, #2
 8005444:	76fb      	strb	r3, [r7, #27]
 8005446:	e0b9      	b.n	80055bc <UART_SetConfig+0x244>
 8005448:	2304      	movs	r3, #4
 800544a:	76fb      	strb	r3, [r7, #27]
 800544c:	e0b6      	b.n	80055bc <UART_SetConfig+0x244>
 800544e:	2308      	movs	r3, #8
 8005450:	76fb      	strb	r3, [r7, #27]
 8005452:	e0b3      	b.n	80055bc <UART_SetConfig+0x244>
 8005454:	2310      	movs	r3, #16
 8005456:	76fb      	strb	r3, [r7, #27]
 8005458:	e0b0      	b.n	80055bc <UART_SetConfig+0x244>
 800545a:	687b      	ldr	r3, [r7, #4]
 800545c:	681b      	ldr	r3, [r3, #0]
 800545e:	4a84      	ldr	r2, [pc, #528]	; (8005670 <UART_SetConfig+0x2f8>)
 8005460:	4293      	cmp	r3, r2
 8005462:	d132      	bne.n	80054ca <UART_SetConfig+0x152>
 8005464:	4b81      	ldr	r3, [pc, #516]	; (800566c <UART_SetConfig+0x2f4>)
 8005466:	f8d3 3088 	ldr.w	r3, [r3, #136]	; 0x88
 800546a:	f003 030c 	and.w	r3, r3, #12
 800546e:	2b0c      	cmp	r3, #12
 8005470:	d828      	bhi.n	80054c4 <UART_SetConfig+0x14c>
 8005472:	a201      	add	r2, pc, #4	; (adr r2, 8005478 <UART_SetConfig+0x100>)
 8005474:	f852 f023 	ldr.w	pc, [r2, r3, lsl #2]
 8005478:	080054ad 	.word	0x080054ad
 800547c:	080054c5 	.word	0x080054c5
 8005480:	080054c5 	.word	0x080054c5
 8005484:	080054c5 	.word	0x080054c5
 8005488:	080054b9 	.word	0x080054b9
 800548c:	080054c5 	.word	0x080054c5
 8005490:	080054c5 	.word	0x080054c5
 8005494:	080054c5 	.word	0x080054c5
 8005498:	080054b3 	.word	0x080054b3
 800549c:	080054c5 	.word	0x080054c5
 80054a0:	080054c5 	.word	0x080054c5
 80054a4:	080054c5 	.word	0x080054c5
 80054a8:	080054bf 	.word	0x080054bf
 80054ac:	2300      	movs	r3, #0
 80054ae:	76fb      	strb	r3, [r7, #27]
 80054b0:	e084      	b.n	80055bc <UART_SetConfig+0x244>
 80054b2:	2302      	movs	r3, #2
 80054b4:	76fb      	strb	r3, [r7, #27]
 80054b6:	e081      	b.n	80055bc <UART_SetConfig+0x244>
 80054b8:	2304      	movs	r3, #4
 80054ba:	76fb      	strb	r3, [r7, #27]
 80054bc:	e07e      	b.n	80055bc <UART_SetConfig+0x244>
 80054be:	2308      	movs	r3, #8
 80054c0:	76fb      	strb	r3, [r7, #27]
 80054c2:	e07b      	b.n	80055bc <UART_SetConfig+0x244>
 80054c4:	2310      	movs	r3, #16
 80054c6:	76fb      	strb	r3, [r7, #27]
 80054c8:	e078      	b.n	80055bc <UART_SetConfig+0x244>
 80054ca:	687b      	ldr	r3, [r7, #4]
 80054cc:	681b      	ldr	r3, [r3, #0]
 80054ce:	4a69      	ldr	r2, [pc, #420]	; (8005674 <UART_SetConfig+0x2fc>)
 80054d0:	4293      	cmp	r3, r2
 80054d2:	d120      	bne.n	8005516 <UART_SetConfig+0x19e>
 80054d4:	4b65      	ldr	r3, [pc, #404]	; (800566c <UART_SetConfig+0x2f4>)
 80054d6:	f8d3 3088 	ldr.w	r3, [r3, #136]	; 0x88
 80054da:	f003 0330 	and.w	r3, r3, #48	; 0x30
 80054de:	2b30      	cmp	r3, #48	; 0x30
 80054e0:	d013      	beq.n	800550a <UART_SetConfig+0x192>
 80054e2:	2b30      	cmp	r3, #48	; 0x30
 80054e4:	d814      	bhi.n	8005510 <UART_SetConfig+0x198>
 80054e6:	2b20      	cmp	r3, #32
 80054e8:	d009      	beq.n	80054fe <UART_SetConfig+0x186>
 80054ea:	2b20      	cmp	r3, #32
 80054ec:	d810      	bhi.n	8005510 <UART_SetConfig+0x198>
 80054ee:	2b00      	cmp	r3, #0
 80054f0:	d002      	beq.n	80054f8 <UART_SetConfig+0x180>
 80054f2:	2b10      	cmp	r3, #16
 80054f4:	d006      	beq.n	8005504 <UART_SetConfig+0x18c>
 80054f6:	e00b      	b.n	8005510 <UART_SetConfig+0x198>
 80054f8:	2300      	movs	r3, #0
 80054fa:	76fb      	strb	r3, [r7, #27]
 80054fc:	e05e      	b.n	80055bc <UART_SetConfig+0x244>
 80054fe:	2302      	movs	r3, #2
 8005500:	76fb      	strb	r3, [r7, #27]
 8005502:	e05b      	b.n	80055bc <UART_SetConfig+0x244>
 8005504:	2304      	movs	r3, #4
 8005506:	76fb      	strb	r3, [r7, #27]
 8005508:	e058      	b.n	80055bc <UART_SetConfig+0x244>
 800550a:	2308      	movs	r3, #8
 800550c:	76fb      	strb	r3, [r7, #27]
 800550e:	e055      	b.n	80055bc <UART_SetConfig+0x244>
 8005510:	2310      	movs	r3, #16
 8005512:	76fb      	strb	r3, [r7, #27]
 8005514:	e052      	b.n	80055bc <UART_SetConfig+0x244>
 8005516:	687b      	ldr	r3, [r7, #4]
 8005518:	681b      	ldr	r3, [r3, #0]
 800551a:	4a57      	ldr	r2, [pc, #348]	; (8005678 <UART_SetConfig+0x300>)
 800551c:	4293      	cmp	r3, r2
 800551e:	d120      	bne.n	8005562 <UART_SetConfig+0x1ea>
 8005520:	4b52      	ldr	r3, [pc, #328]	; (800566c <UART_SetConfig+0x2f4>)
 8005522:	f8d3 3088 	ldr.w	r3, [r3, #136]	; 0x88
 8005526:	f003 03c0 	and.w	r3, r3, #192	; 0xc0
 800552a:	2bc0      	cmp	r3, #192	; 0xc0
 800552c:	d013      	beq.n	8005556 <UART_SetConfig+0x1de>
 800552e:	2bc0      	cmp	r3, #192	; 0xc0
 8005530:	d814      	bhi.n	800555c <UART_SetConfig+0x1e4>
 8005532:	2b80      	cmp	r3, #128	; 0x80
 8005534:	d009      	beq.n	800554a <UART_SetConfig+0x1d2>
 8005536:	2b80      	cmp	r3, #128	; 0x80
 8005538:	d810      	bhi.n	800555c <UART_SetConfig+0x1e4>
 800553a:	2b00      	cmp	r3, #0
 800553c:	d002      	beq.n	8005544 <UART_SetConfig+0x1cc>
 800553e:	2b40      	cmp	r3, #64	; 0x40
 8005540:	d006      	beq.n	8005550 <UART_SetConfig+0x1d8>
 8005542:	e00b      	b.n	800555c <UART_SetConfig+0x1e4>
 8005544:	2300      	movs	r3, #0
 8005546:	76fb      	strb	r3, [r7, #27]
 8005548:	e038      	b.n	80055bc <UART_SetConfig+0x244>
 800554a:	2302      	movs	r3, #2
 800554c:	76fb      	strb	r3, [r7, #27]
 800554e:	e035      	b.n	80055bc <UART_SetConfig+0x244>
 8005550:	2304      	movs	r3, #4
 8005552:	76fb      	strb	r3, [r7, #27]
 8005554:	e032      	b.n	80055bc <UART_SetConfig+0x244>
 8005556:	2308      	movs	r3, #8
 8005558:	76fb      	strb	r3, [r7, #27]
 800555a:	e02f      	b.n	80055bc <UART_SetConfig+0x244>
 800555c:	2310      	movs	r3, #16
 800555e:	76fb      	strb	r3, [r7, #27]
 8005560:	e02c      	b.n	80055bc <UART_SetConfig+0x244>
 8005562:	687b      	ldr	r3, [r7, #4]
 8005564:	681b      	ldr	r3, [r3, #0]
 8005566:	4a3f      	ldr	r2, [pc, #252]	; (8005664 <UART_SetConfig+0x2ec>)
 8005568:	4293      	cmp	r3, r2
 800556a:	d125      	bne.n	80055b8 <UART_SetConfig+0x240>
 800556c:	4b3f      	ldr	r3, [pc, #252]	; (800566c <UART_SetConfig+0x2f4>)
 800556e:	f8d3 3088 	ldr.w	r3, [r3, #136]	; 0x88
 8005572:	f403 6340 	and.w	r3, r3, #3072	; 0xc00
 8005576:	f5b3 6f40 	cmp.w	r3, #3072	; 0xc00
 800557a:	d017      	beq.n	80055ac <UART_SetConfig+0x234>
 800557c:	f5b3 6f40 	cmp.w	r3, #3072	; 0xc00
 8005580:	d817      	bhi.n	80055b2 <UART_SetConfig+0x23a>
 8005582:	f5b3 6f00 	cmp.w	r3, #2048	; 0x800
 8005586:	d00b      	beq.n	80055a0 <UART_SetConfig+0x228>
 8005588:	f5b3 6f00 	cmp.w	r3, #2048	; 0x800
 800558c:	d811      	bhi.n	80055b2 <UART_SetConfig+0x23a>
 800558e:	2b00      	cmp	r3, #0
 8005590:	d003      	beq.n	800559a <UART_SetConfig+0x222>
 8005592:	f5b3 6f80 	cmp.w	r3, #1024	; 0x400
 8005596:	d006      	beq.n	80055a6 <UART_SetConfig+0x22e>
 8005598:	e00b      	b.n	80055b2 <UART_SetConfig+0x23a>
 800559a:	2300      	movs	r3, #0
 800559c:	76fb      	strb	r3, [r7, #27]
 800559e:	e00d      	b.n	80055bc <UART_SetConfig+0x244>
 80055a0:	2302      	movs	r3, #2
 80055a2:	76fb      	strb	r3, [r7, #27]
 80055a4:	e00a      	b.n	80055bc <UART_SetConfig+0x244>
 80055a6:	2304      	movs	r3, #4
 80055a8:	76fb      	strb	r3, [r7, #27]
 80055aa:	e007      	b.n	80055bc <UART_SetConfig+0x244>
 80055ac:	2308      	movs	r3, #8
 80055ae:	76fb      	strb	r3, [r7, #27]
 80055b0:	e004      	b.n	80055bc <UART_SetConfig+0x244>
 80055b2:	2310      	movs	r3, #16
 80055b4:	76fb      	strb	r3, [r7, #27]
 80055b6:	e001      	b.n	80055bc <UART_SetConfig+0x244>
 80055b8:	2310      	movs	r3, #16
 80055ba:	76fb      	strb	r3, [r7, #27]
 80055bc:	687b      	ldr	r3, [r7, #4]
 80055be:	681b      	ldr	r3, [r3, #0]
 80055c0:	4a28      	ldr	r2, [pc, #160]	; (8005664 <UART_SetConfig+0x2ec>)
 80055c2:	4293      	cmp	r3, r2
 80055c4:	f040 809e 	bne.w	8005704 <UART_SetConfig+0x38c>
 80055c8:	7efb      	ldrb	r3, [r7, #27]
 80055ca:	2b08      	cmp	r3, #8
 80055cc:	d823      	bhi.n	8005616 <UART_SetConfig+0x29e>
 80055ce:	a201      	add	r2, pc, #4	; (adr r2, 80055d4 <UART_SetConfig+0x25c>)
 80055d0:	f852 f023 	ldr.w	pc, [r2, r3, lsl #2]
 80055d4:	080055f9 	.word	0x080055f9
 80055d8:	08005617 	.word	0x08005617
 80055dc:	08005601 	.word	0x08005601
 80055e0:	08005617 	.word	0x08005617
 80055e4:	08005607 	.word	0x08005607
 80055e8:	08005617 	.word	0x08005617
 80055ec:	08005617 	.word	0x08005617
 80055f0:	08005617 	.word	0x08005617
 80055f4:	0800560f 	.word	0x0800560f
 80055f8:	f7ff f8cc 	bl	8004794 <HAL_RCC_GetPCLK1Freq>
 80055fc:	6178      	str	r0, [r7, #20]
 80055fe:	e00f      	b.n	8005620 <UART_SetConfig+0x2a8>
 8005600:	4b1e      	ldr	r3, [pc, #120]	; (800567c <UART_SetConfig+0x304>)
 8005602:	617b      	str	r3, [r7, #20]
 8005604:	e00c      	b.n	8005620 <UART_SetConfig+0x2a8>
 8005606:	f7ff f857 	bl	80046b8 <HAL_RCC_GetSysClockFreq>
 800560a:	6178      	str	r0, [r7, #20]
 800560c:	e008      	b.n	8005620 <UART_SetConfig+0x2a8>
 800560e:	f44f 4300 	mov.w	r3, #32768	; 0x8000
 8005612:	617b      	str	r3, [r7, #20]
 8005614:	e004      	b.n	8005620 <UART_SetConfig+0x2a8>
 8005616:	2300      	movs	r3, #0
 8005618:	617b      	str	r3, [r7, #20]
 800561a:	2301      	movs	r3, #1
 800561c:	76bb      	strb	r3, [r7, #26]
 800561e:	bf00      	nop
 8005620:	697b      	ldr	r3, [r7, #20]
 8005622:	2b00      	cmp	r3, #0
 8005624:	f000 812e 	beq.w	8005884 <UART_SetConfig+0x50c>
 8005628:	687b      	ldr	r3, [r7, #4]
 800562a:	6a5b      	ldr	r3, [r3, #36]	; 0x24
 800562c:	4a14      	ldr	r2, [pc, #80]	; (8005680 <UART_SetConfig+0x308>)
 800562e:	f832 3013 	ldrh.w	r3, [r2, r3, lsl #1]
 8005632:	461a      	mov	r2, r3
 8005634:	697b      	ldr	r3, [r7, #20]
 8005636:	fbb3 f3f2 	udiv	r3, r3, r2
 800563a:	60bb      	str	r3, [r7, #8]
 800563c:	687b      	ldr	r3, [r7, #4]
 800563e:	685a      	ldr	r2, [r3, #4]
 8005640:	4613      	mov	r3, r2
 8005642:	005b      	lsls	r3, r3, #1
 8005644:	4413      	add	r3, r2
 8005646:	68ba      	ldr	r2, [r7, #8]
 8005648:	429a      	cmp	r2, r3
 800564a:	d305      	bcc.n	8005658 <UART_SetConfig+0x2e0>
 800564c:	687b      	ldr	r3, [r7, #4]
 800564e:	685b      	ldr	r3, [r3, #4]
 8005650:	031b      	lsls	r3, r3, #12
 8005652:	68ba      	ldr	r2, [r7, #8]
 8005654:	429a      	cmp	r2, r3
 8005656:	d915      	bls.n	8005684 <UART_SetConfig+0x30c>
 8005658:	2301      	movs	r3, #1
 800565a:	76bb      	strb	r3, [r7, #26]
 800565c:	e112      	b.n	8005884 <UART_SetConfig+0x50c>
 800565e:	bf00      	nop
 8005660:	cfff69f3 	.word	0xcfff69f3
 8005664:	40008000 	.word	0x40008000
 8005668:	40013800 	.word	0x40013800
 800566c:	40021000 	.word	0x40021000
 8005670:	40004400 	.word	0x40004400
 8005674:	40004800 	.word	0x40004800
 8005678:	40004c00 	.word	0x40004c00
 800567c:	00f42400 	.word	0x00f42400
 8005680:	08006d98 	.word	0x08006d98
 8005684:	697b      	ldr	r3, [r7, #20]
 8005686:	4618      	mov	r0, r3
 8005688:	f04f 0100 	mov.w	r1, #0
 800568c:	687b      	ldr	r3, [r7, #4]
 800568e:	6a5b      	ldr	r3, [r3, #36]	; 0x24
 8005690:	4a86      	ldr	r2, [pc, #536]	; (80058ac <UART_SetConfig+0x534>)
 8005692:	f832 3013 	ldrh.w	r3, [r2, r3, lsl #1]
 8005696:	b29a      	uxth	r2, r3
 8005698:	f04f 0300 	mov.w	r3, #0
 800569c:	f7fb fa78 	bl	8000b90 <__aeabi_uldivmod>
 80056a0:	4602      	mov	r2, r0
 80056a2:	460b      	mov	r3, r1
 80056a4:	4610      	mov	r0, r2
 80056a6:	4619      	mov	r1, r3
 80056a8:	f04f 0200 	mov.w	r2, #0
 80056ac:	f04f 0300 	mov.w	r3, #0
 80056b0:	020b      	lsls	r3, r1, #8
 80056b2:	ea43 6310 	orr.w	r3, r3, r0, lsr #24
 80056b6:	0202      	lsls	r2, r0, #8
 80056b8:	6879      	ldr	r1, [r7, #4]
 80056ba:	6849      	ldr	r1, [r1, #4]
 80056bc:	0849      	lsrs	r1, r1, #1
 80056be:	4608      	mov	r0, r1
 80056c0:	f04f 0100 	mov.w	r1, #0
 80056c4:	1814      	adds	r4, r2, r0
 80056c6:	eb43 0501 	adc.w	r5, r3, r1
 80056ca:	687b      	ldr	r3, [r7, #4]
 80056cc:	685b      	ldr	r3, [r3, #4]
 80056ce:	461a      	mov	r2, r3
 80056d0:	f04f 0300 	mov.w	r3, #0
 80056d4:	4620      	mov	r0, r4
 80056d6:	4629      	mov	r1, r5
 80056d8:	f7fb fa5a 	bl	8000b90 <__aeabi_uldivmod>
 80056dc:	4602      	mov	r2, r0
 80056de:	460b      	mov	r3, r1
 80056e0:	4613      	mov	r3, r2
 80056e2:	613b      	str	r3, [r7, #16]
 80056e4:	693b      	ldr	r3, [r7, #16]
 80056e6:	f5b3 7f40 	cmp.w	r3, #768	; 0x300
 80056ea:	d308      	bcc.n	80056fe <UART_SetConfig+0x386>
 80056ec:	693b      	ldr	r3, [r7, #16]
 80056ee:	f5b3 1f80 	cmp.w	r3, #1048576	; 0x100000
 80056f2:	d204      	bcs.n	80056fe <UART_SetConfig+0x386>
 80056f4:	687b      	ldr	r3, [r7, #4]
 80056f6:	681b      	ldr	r3, [r3, #0]
 80056f8:	693a      	ldr	r2, [r7, #16]
 80056fa:	60da      	str	r2, [r3, #12]
 80056fc:	e0c2      	b.n	8005884 <UART_SetConfig+0x50c>
 80056fe:	2301      	movs	r3, #1
 8005700:	76bb      	strb	r3, [r7, #26]
 8005702:	e0bf      	b.n	8005884 <UART_SetConfig+0x50c>
 8005704:	687b      	ldr	r3, [r7, #4]
 8005706:	69db      	ldr	r3, [r3, #28]
 8005708:	f5b3 4f00 	cmp.w	r3, #32768	; 0x8000
 800570c:	d165      	bne.n	80057da <UART_SetConfig+0x462>
 800570e:	7efb      	ldrb	r3, [r7, #27]
 8005710:	2b08      	cmp	r3, #8
 8005712:	d828      	bhi.n	8005766 <UART_SetConfig+0x3ee>
 8005714:	a201      	add	r2, pc, #4	; (adr r2, 800571c <UART_SetConfig+0x3a4>)
 8005716:	f852 f023 	ldr.w	pc, [r2, r3, lsl #2]
 800571a:	bf00      	nop
 800571c:	08005741 	.word	0x08005741
 8005720:	08005749 	.word	0x08005749
 8005724:	08005751 	.word	0x08005751
 8005728:	08005767 	.word	0x08005767
 800572c:	08005757 	.word	0x08005757
 8005730:	08005767 	.word	0x08005767
 8005734:	08005767 	.word	0x08005767
 8005738:	08005767 	.word	0x08005767
 800573c:	0800575f 	.word	0x0800575f
 8005740:	f7ff f828 	bl	8004794 <HAL_RCC_GetPCLK1Freq>
 8005744:	6178      	str	r0, [r7, #20]
 8005746:	e013      	b.n	8005770 <UART_SetConfig+0x3f8>
 8005748:	f7ff f83a 	bl	80047c0 <HAL_RCC_GetPCLK2Freq>
 800574c:	6178      	str	r0, [r7, #20]
 800574e:	e00f      	b.n	8005770 <UART_SetConfig+0x3f8>
 8005750:	4b57      	ldr	r3, [pc, #348]	; (80058b0 <UART_SetConfig+0x538>)
 8005752:	617b      	str	r3, [r7, #20]
 8005754:	e00c      	b.n	8005770 <UART_SetConfig+0x3f8>
 8005756:	f7fe ffaf 	bl	80046b8 <HAL_RCC_GetSysClockFreq>
 800575a:	6178      	str	r0, [r7, #20]
 800575c:	e008      	b.n	8005770 <UART_SetConfig+0x3f8>
 800575e:	f44f 4300 	mov.w	r3, #32768	; 0x8000
 8005762:	617b      	str	r3, [r7, #20]
 8005764:	e004      	b.n	8005770 <UART_SetConfig+0x3f8>
 8005766:	2300      	movs	r3, #0
 8005768:	617b      	str	r3, [r7, #20]
 800576a:	2301      	movs	r3, #1
 800576c:	76bb      	strb	r3, [r7, #26]
 800576e:	bf00      	nop
 8005770:	697b      	ldr	r3, [r7, #20]
 8005772:	2b00      	cmp	r3, #0
 8005774:	f000 8086 	beq.w	8005884 <UART_SetConfig+0x50c>
 8005778:	687b      	ldr	r3, [r7, #4]
 800577a:	6a5b      	ldr	r3, [r3, #36]	; 0x24
 800577c:	4a4b      	ldr	r2, [pc, #300]	; (80058ac <UART_SetConfig+0x534>)
 800577e:	f832 3013 	ldrh.w	r3, [r2, r3, lsl #1]
 8005782:	461a      	mov	r2, r3
 8005784:	697b      	ldr	r3, [r7, #20]
 8005786:	fbb3 f3f2 	udiv	r3, r3, r2
 800578a:	005a      	lsls	r2, r3, #1
 800578c:	687b      	ldr	r3, [r7, #4]
 800578e:	685b      	ldr	r3, [r3, #4]
 8005790:	085b      	lsrs	r3, r3, #1
 8005792:	441a      	add	r2, r3
 8005794:	687b      	ldr	r3, [r7, #4]
 8005796:	685b      	ldr	r3, [r3, #4]
 8005798:	fbb2 f3f3 	udiv	r3, r2, r3
 800579c:	b29b      	uxth	r3, r3
 800579e:	613b      	str	r3, [r7, #16]
 80057a0:	693b      	ldr	r3, [r7, #16]
 80057a2:	2b0f      	cmp	r3, #15
 80057a4:	d916      	bls.n	80057d4 <UART_SetConfig+0x45c>
 80057a6:	693b      	ldr	r3, [r7, #16]
 80057a8:	f5b3 3f80 	cmp.w	r3, #65536	; 0x10000
 80057ac:	d212      	bcs.n	80057d4 <UART_SetConfig+0x45c>
 80057ae:	693b      	ldr	r3, [r7, #16]
 80057b0:	b29b      	uxth	r3, r3
 80057b2:	f023 030f 	bic.w	r3, r3, #15
 80057b6:	81fb      	strh	r3, [r7, #14]
 80057b8:	693b      	ldr	r3, [r7, #16]
 80057ba:	085b      	lsrs	r3, r3, #1
 80057bc:	b29b      	uxth	r3, r3
 80057be:	f003 0307 	and.w	r3, r3, #7
 80057c2:	b29a      	uxth	r2, r3
 80057c4:	89fb      	ldrh	r3, [r7, #14]
 80057c6:	4313      	orrs	r3, r2
 80057c8:	81fb      	strh	r3, [r7, #14]
 80057ca:	687b      	ldr	r3, [r7, #4]
 80057cc:	681b      	ldr	r3, [r3, #0]
 80057ce:	89fa      	ldrh	r2, [r7, #14]
 80057d0:	60da      	str	r2, [r3, #12]
 80057d2:	e057      	b.n	8005884 <UART_SetConfig+0x50c>
 80057d4:	2301      	movs	r3, #1
 80057d6:	76bb      	strb	r3, [r7, #26]
 80057d8:	e054      	b.n	8005884 <UART_SetConfig+0x50c>
 80057da:	7efb      	ldrb	r3, [r7, #27]
 80057dc:	2b08      	cmp	r3, #8
 80057de:	d828      	bhi.n	8005832 <UART_SetConfig+0x4ba>
 80057e0:	a201      	add	r2, pc, #4	; (adr r2, 80057e8 <UART_SetConfig+0x470>)
 80057e2:	f852 f023 	ldr.w	pc, [r2, r3, lsl #2]
 80057e6:	bf00      	nop
 80057e8:	0800580d 	.word	0x0800580d
 80057ec:	08005815 	.word	0x08005815
 80057f0:	0800581d 	.word	0x0800581d
 80057f4:	08005833 	.word	0x08005833
 80057f8:	08005823 	.word	0x08005823
 80057fc:	08005833 	.word	0x08005833
 8005800:	08005833 	.word	0x08005833
 8005804:	08005833 	.word	0x08005833
 8005808:	0800582b 	.word	0x0800582b
 800580c:	f7fe ffc2 	bl	8004794 <HAL_RCC_GetPCLK1Freq>
 8005810:	6178      	str	r0, [r7, #20]
 8005812:	e013      	b.n	800583c <UART_SetConfig+0x4c4>
 8005814:	f7fe ffd4 	bl	80047c0 <HAL_RCC_GetPCLK2Freq>
 8005818:	6178      	str	r0, [r7, #20]
 800581a:	e00f      	b.n	800583c <UART_SetConfig+0x4c4>
 800581c:	4b24      	ldr	r3, [pc, #144]	; (80058b0 <UART_SetConfig+0x538>)
 800581e:	617b      	str	r3, [r7, #20]
 8005820:	e00c      	b.n	800583c <UART_SetConfig+0x4c4>
 8005822:	f7fe ff49 	bl	80046b8 <HAL_RCC_GetSysClockFreq>
 8005826:	6178      	str	r0, [r7, #20]
 8005828:	e008      	b.n	800583c <UART_SetConfig+0x4c4>
 800582a:	f44f 4300 	mov.w	r3, #32768	; 0x8000
 800582e:	617b      	str	r3, [r7, #20]
 8005830:	e004      	b.n	800583c <UART_SetConfig+0x4c4>
 8005832:	2300      	movs	r3, #0
 8005834:	617b      	str	r3, [r7, #20]
 8005836:	2301      	movs	r3, #1
 8005838:	76bb      	strb	r3, [r7, #26]
 800583a:	bf00      	nop
 800583c:	697b      	ldr	r3, [r7, #20]
 800583e:	2b00      	cmp	r3, #0
 8005840:	d020      	beq.n	8005884 <UART_SetConfig+0x50c>
 8005842:	687b      	ldr	r3, [r7, #4]
 8005844:	6a5b      	ldr	r3, [r3, #36]	; 0x24
 8005846:	4a19      	ldr	r2, [pc, #100]	; (80058ac <UART_SetConfig+0x534>)
 8005848:	f832 3013 	ldrh.w	r3, [r2, r3, lsl #1]
 800584c:	461a      	mov	r2, r3
 800584e:	697b      	ldr	r3, [r7, #20]
 8005850:	fbb3 f2f2 	udiv	r2, r3, r2
 8005854:	687b      	ldr	r3, [r7, #4]
 8005856:	685b      	ldr	r3, [r3, #4]
 8005858:	085b      	lsrs	r3, r3, #1
 800585a:	441a      	add	r2, r3
 800585c:	687b      	ldr	r3, [r7, #4]
 800585e:	685b      	ldr	r3, [r3, #4]
 8005860:	fbb2 f3f3 	udiv	r3, r2, r3
 8005864:	b29b      	uxth	r3, r3
 8005866:	613b      	str	r3, [r7, #16]
 8005868:	693b      	ldr	r3, [r7, #16]
 800586a:	2b0f      	cmp	r3, #15
 800586c:	d908      	bls.n	8005880 <UART_SetConfig+0x508>
 800586e:	693b      	ldr	r3, [r7, #16]
 8005870:	f5b3 3f80 	cmp.w	r3, #65536	; 0x10000
 8005874:	d204      	bcs.n	8005880 <UART_SetConfig+0x508>
 8005876:	687b      	ldr	r3, [r7, #4]
 8005878:	681b      	ldr	r3, [r3, #0]
 800587a:	693a      	ldr	r2, [r7, #16]
 800587c:	60da      	str	r2, [r3, #12]
 800587e:	e001      	b.n	8005884 <UART_SetConfig+0x50c>
 8005880:	2301      	movs	r3, #1
 8005882:	76bb      	strb	r3, [r7, #26]
 8005884:	687b      	ldr	r3, [r7, #4]
 8005886:	2201      	movs	r2, #1
 8005888:	f8a3 206a 	strh.w	r2, [r3, #106]	; 0x6a
 800588c:	687b      	ldr	r3, [r7, #4]
 800588e:	2201      	movs	r2, #1
 8005890:	f8a3 2068 	strh.w	r2, [r3, #104]	; 0x68
 8005894:	687b      	ldr	r3, [r7, #4]
 8005896:	2200      	movs	r2, #0
 8005898:	671a      	str	r2, [r3, #112]	; 0x70
 800589a:	687b      	ldr	r3, [r7, #4]
 800589c:	2200      	movs	r2, #0
 800589e:	675a      	str	r2, [r3, #116]	; 0x74
 80058a0:	7ebb      	ldrb	r3, [r7, #26]
 80058a2:	4618      	mov	r0, r3
 80058a4:	3720      	adds	r7, #32
 80058a6:	46bd      	mov	sp, r7
 80058a8:	bdb0      	pop	{r4, r5, r7, pc}
 80058aa:	bf00      	nop
 80058ac:	08006d98 	.word	0x08006d98
 80058b0:	00f42400 	.word	0x00f42400

080058b4 <UART_AdvFeatureConfig>:
 80058b4:	b480      	push	{r7}
 80058b6:	b083      	sub	sp, #12
 80058b8:	af00      	add	r7, sp, #0
 80058ba:	6078      	str	r0, [r7, #4]
 80058bc:	687b      	ldr	r3, [r7, #4]
 80058be:	6a9b      	ldr	r3, [r3, #40]	; 0x28
 80058c0:	f003 0301 	and.w	r3, r3, #1
 80058c4:	2b00      	cmp	r3, #0
 80058c6:	d00a      	beq.n	80058de <UART_AdvFeatureConfig+0x2a>
 80058c8:	687b      	ldr	r3, [r7, #4]
 80058ca:	681b      	ldr	r3, [r3, #0]
 80058cc:	685b      	ldr	r3, [r3, #4]
 80058ce:	f423 3100 	bic.w	r1, r3, #131072	; 0x20000
 80058d2:	687b      	ldr	r3, [r7, #4]
 80058d4:	6ada      	ldr	r2, [r3, #44]	; 0x2c
 80058d6:	687b      	ldr	r3, [r7, #4]
 80058d8:	681b      	ldr	r3, [r3, #0]
 80058da:	430a      	orrs	r2, r1
 80058dc:	605a      	str	r2, [r3, #4]
 80058de:	687b      	ldr	r3, [r7, #4]
 80058e0:	6a9b      	ldr	r3, [r3, #40]	; 0x28
 80058e2:	f003 0302 	and.w	r3, r3, #2
 80058e6:	2b00      	cmp	r3, #0
 80058e8:	d00a      	beq.n	8005900 <UART_AdvFeatureConfig+0x4c>
 80058ea:	687b      	ldr	r3, [r7, #4]
 80058ec:	681b      	ldr	r3, [r3, #0]
 80058ee:	685b      	ldr	r3, [r3, #4]
 80058f0:	f423 3180 	bic.w	r1, r3, #65536	; 0x10000
 80058f4:	687b      	ldr	r3, [r7, #4]
 80058f6:	6b1a      	ldr	r2, [r3, #48]	; 0x30
 80058f8:	687b      	ldr	r3, [r7, #4]
 80058fa:	681b      	ldr	r3, [r3, #0]
 80058fc:	430a      	orrs	r2, r1
 80058fe:	605a      	str	r2, [r3, #4]
 8005900:	687b      	ldr	r3, [r7, #4]
 8005902:	6a9b      	ldr	r3, [r3, #40]	; 0x28
 8005904:	f003 0304 	and.w	r3, r3, #4
 8005908:	2b00      	cmp	r3, #0
 800590a:	d00a      	beq.n	8005922 <UART_AdvFeatureConfig+0x6e>
 800590c:	687b      	ldr	r3, [r7, #4]
 800590e:	681b      	ldr	r3, [r3, #0]
 8005910:	685b      	ldr	r3, [r3, #4]
 8005912:	f423 2180 	bic.w	r1, r3, #262144	; 0x40000
 8005916:	687b      	ldr	r3, [r7, #4]
 8005918:	6b5a      	ldr	r2, [r3, #52]	; 0x34
 800591a:	687b      	ldr	r3, [r7, #4]
 800591c:	681b      	ldr	r3, [r3, #0]
 800591e:	430a      	orrs	r2, r1
 8005920:	605a      	str	r2, [r3, #4]
 8005922:	687b      	ldr	r3, [r7, #4]
 8005924:	6a9b      	ldr	r3, [r3, #40]	; 0x28
 8005926:	f003 0308 	and.w	r3, r3, #8
 800592a:	2b00      	cmp	r3, #0
 800592c:	d00a      	beq.n	8005944 <UART_AdvFeatureConfig+0x90>
 800592e:	687b      	ldr	r3, [r7, #4]
 8005930:	681b      	ldr	r3, [r3, #0]
 8005932:	685b      	ldr	r3, [r3, #4]
 8005934:	f423 4100 	bic.w	r1, r3, #32768	; 0x8000
 8005938:	687b      	ldr	r3, [r7, #4]
 800593a:	6b9a      	ldr	r2, [r3, #56]	; 0x38
 800593c:	687b      	ldr	r3, [r7, #4]
 800593e:	681b      	ldr	r3, [r3, #0]
 8005940:	430a      	orrs	r2, r1
 8005942:	605a      	str	r2, [r3, #4]
 8005944:	687b      	ldr	r3, [r7, #4]
 8005946:	6a9b      	ldr	r3, [r3, #40]	; 0x28
 8005948:	f003 0310 	and.w	r3, r3, #16
 800594c:	2b00      	cmp	r3, #0
 800594e:	d00a      	beq.n	8005966 <UART_AdvFeatureConfig+0xb2>
 8005950:	687b      	ldr	r3, [r7, #4]
 8005952:	681b      	ldr	r3, [r3, #0]
 8005954:	689b      	ldr	r3, [r3, #8]
 8005956:	f423 5180 	bic.w	r1, r3, #4096	; 0x1000
 800595a:	687b      	ldr	r3, [r7, #4]
 800595c:	6bda      	ldr	r2, [r3, #60]	; 0x3c
 800595e:	687b      	ldr	r3, [r7, #4]
 8005960:	681b      	ldr	r3, [r3, #0]
 8005962:	430a      	orrs	r2, r1
 8005964:	609a      	str	r2, [r3, #8]
 8005966:	687b      	ldr	r3, [r7, #4]
 8005968:	6a9b      	ldr	r3, [r3, #40]	; 0x28
 800596a:	f003 0320 	and.w	r3, r3, #32
 800596e:	2b00      	cmp	r3, #0
 8005970:	d00a      	beq.n	8005988 <UART_AdvFeatureConfig+0xd4>
 8005972:	687b      	ldr	r3, [r7, #4]
 8005974:	681b      	ldr	r3, [r3, #0]
 8005976:	689b      	ldr	r3, [r3, #8]
 8005978:	f423 5100 	bic.w	r1, r3, #8192	; 0x2000
 800597c:	687b      	ldr	r3, [r7, #4]
 800597e:	6c1a      	ldr	r2, [r3, #64]	; 0x40
 8005980:	687b      	ldr	r3, [r7, #4]
 8005982:	681b      	ldr	r3, [r3, #0]
 8005984:	430a      	orrs	r2, r1
 8005986:	609a      	str	r2, [r3, #8]
 8005988:	687b      	ldr	r3, [r7, #4]
 800598a:	6a9b      	ldr	r3, [r3, #40]	; 0x28
 800598c:	f003 0340 	and.w	r3, r3, #64	; 0x40
 8005990:	2b00      	cmp	r3, #0
 8005992:	d01a      	beq.n	80059ca <UART_AdvFeatureConfig+0x116>
 8005994:	687b      	ldr	r3, [r7, #4]
 8005996:	681b      	ldr	r3, [r3, #0]
 8005998:	685b      	ldr	r3, [r3, #4]
 800599a:	f423 1180 	bic.w	r1, r3, #1048576	; 0x100000
 800599e:	687b      	ldr	r3, [r7, #4]
 80059a0:	6c5a      	ldr	r2, [r3, #68]	; 0x44
 80059a2:	687b      	ldr	r3, [r7, #4]
 80059a4:	681b      	ldr	r3, [r3, #0]
 80059a6:	430a      	orrs	r2, r1
 80059a8:	605a      	str	r2, [r3, #4]
 80059aa:	687b      	ldr	r3, [r7, #4]
 80059ac:	6c5b      	ldr	r3, [r3, #68]	; 0x44
 80059ae:	f5b3 1f80 	cmp.w	r3, #1048576	; 0x100000
 80059b2:	d10a      	bne.n	80059ca <UART_AdvFeatureConfig+0x116>
 80059b4:	687b      	ldr	r3, [r7, #4]
 80059b6:	681b      	ldr	r3, [r3, #0]
 80059b8:	685b      	ldr	r3, [r3, #4]
 80059ba:	f423 01c0 	bic.w	r1, r3, #6291456	; 0x600000
 80059be:	687b      	ldr	r3, [r7, #4]
 80059c0:	6c9a      	ldr	r2, [r3, #72]	; 0x48
 80059c2:	687b      	ldr	r3, [r7, #4]
 80059c4:	681b      	ldr	r3, [r3, #0]
 80059c6:	430a      	orrs	r2, r1
 80059c8:	605a      	str	r2, [r3, #4]
 80059ca:	687b      	ldr	r3, [r7, #4]
 80059cc:	6a9b      	ldr	r3, [r3, #40]	; 0x28
 80059ce:	f003 0380 	and.w	r3, r3, #128	; 0x80
 80059d2:	2b00      	cmp	r3, #0
 80059d4:	d00a      	beq.n	80059ec <UART_AdvFeatureConfig+0x138>
 80059d6:	687b      	ldr	r3, [r7, #4]
 80059d8:	681b      	ldr	r3, [r3, #0]
 80059da:	685b      	ldr	r3, [r3, #4]
 80059dc:	f423 2100 	bic.w	r1, r3, #524288	; 0x80000
 80059e0:	687b      	ldr	r3, [r7, #4]
 80059e2:	6cda      	ldr	r2, [r3, #76]	; 0x4c
 80059e4:	687b      	ldr	r3, [r7, #4]
 80059e6:	681b      	ldr	r3, [r3, #0]
 80059e8:	430a      	orrs	r2, r1
 80059ea:	605a      	str	r2, [r3, #4]
 80059ec:	bf00      	nop
 80059ee:	370c      	adds	r7, #12
 80059f0:	46bd      	mov	sp, r7
 80059f2:	f85d 7b04 	ldr.w	r7, [sp], #4
 80059f6:	4770      	bx	lr

080059f8 <UART_CheckIdleState>:
 80059f8:	b580      	push	{r7, lr}
 80059fa:	b086      	sub	sp, #24
 80059fc:	af02      	add	r7, sp, #8
 80059fe:	6078      	str	r0, [r7, #4]
 8005a00:	687b      	ldr	r3, [r7, #4]
 8005a02:	2200      	movs	r2, #0
 8005a04:	f8c3 208c 	str.w	r2, [r3, #140]	; 0x8c
 8005a08:	f7fb ffac 	bl	8001964 <HAL_GetTick>
 8005a0c:	60f8      	str	r0, [r7, #12]
 8005a0e:	687b      	ldr	r3, [r7, #4]
 8005a10:	681b      	ldr	r3, [r3, #0]
 8005a12:	681b      	ldr	r3, [r3, #0]
 8005a14:	f003 0308 	and.w	r3, r3, #8
 8005a18:	2b08      	cmp	r3, #8
 8005a1a:	d10e      	bne.n	8005a3a <UART_CheckIdleState+0x42>
 8005a1c:	f06f 437e 	mvn.w	r3, #4261412864	; 0xfe000000
 8005a20:	9300      	str	r3, [sp, #0]
 8005a22:	68fb      	ldr	r3, [r7, #12]
 8005a24:	2200      	movs	r2, #0
 8005a26:	f44f 1100 	mov.w	r1, #2097152	; 0x200000
 8005a2a:	6878      	ldr	r0, [r7, #4]
 8005a2c:	f000 f82f 	bl	8005a8e <UART_WaitOnFlagUntilTimeout>
 8005a30:	4603      	mov	r3, r0
 8005a32:	2b00      	cmp	r3, #0
 8005a34:	d001      	beq.n	8005a3a <UART_CheckIdleState+0x42>
 8005a36:	2303      	movs	r3, #3
 8005a38:	e025      	b.n	8005a86 <UART_CheckIdleState+0x8e>
 8005a3a:	687b      	ldr	r3, [r7, #4]
 8005a3c:	681b      	ldr	r3, [r3, #0]
 8005a3e:	681b      	ldr	r3, [r3, #0]
 8005a40:	f003 0304 	and.w	r3, r3, #4
 8005a44:	2b04      	cmp	r3, #4
 8005a46:	d10e      	bne.n	8005a66 <UART_CheckIdleState+0x6e>
 8005a48:	f06f 437e 	mvn.w	r3, #4261412864	; 0xfe000000
 8005a4c:	9300      	str	r3, [sp, #0]
 8005a4e:	68fb      	ldr	r3, [r7, #12]
 8005a50:	2200      	movs	r2, #0
 8005a52:	f44f 0180 	mov.w	r1, #4194304	; 0x400000
 8005a56:	6878      	ldr	r0, [r7, #4]
 8005a58:	f000 f819 	bl	8005a8e <UART_WaitOnFlagUntilTimeout>
 8005a5c:	4603      	mov	r3, r0
 8005a5e:	2b00      	cmp	r3, #0
 8005a60:	d001      	beq.n	8005a66 <UART_CheckIdleState+0x6e>
 8005a62:	2303      	movs	r3, #3
 8005a64:	e00f      	b.n	8005a86 <UART_CheckIdleState+0x8e>
 8005a66:	687b      	ldr	r3, [r7, #4]
 8005a68:	2220      	movs	r2, #32
 8005a6a:	f8c3 2084 	str.w	r2, [r3, #132]	; 0x84
 8005a6e:	687b      	ldr	r3, [r7, #4]
 8005a70:	2220      	movs	r2, #32
 8005a72:	f8c3 2088 	str.w	r2, [r3, #136]	; 0x88
 8005a76:	687b      	ldr	r3, [r7, #4]
 8005a78:	2200      	movs	r2, #0
 8005a7a:	66da      	str	r2, [r3, #108]	; 0x6c
 8005a7c:	687b      	ldr	r3, [r7, #4]
 8005a7e:	2200      	movs	r2, #0
 8005a80:	f883 2080 	strb.w	r2, [r3, #128]	; 0x80
 8005a84:	2300      	movs	r3, #0
 8005a86:	4618      	mov	r0, r3
 8005a88:	3710      	adds	r7, #16
 8005a8a:	46bd      	mov	sp, r7
 8005a8c:	bd80      	pop	{r7, pc}

08005a8e <UART_WaitOnFlagUntilTimeout>:
 8005a8e:	b580      	push	{r7, lr}
 8005a90:	b084      	sub	sp, #16
 8005a92:	af00      	add	r7, sp, #0
 8005a94:	60f8      	str	r0, [r7, #12]
 8005a96:	60b9      	str	r1, [r7, #8]
 8005a98:	603b      	str	r3, [r7, #0]
 8005a9a:	4613      	mov	r3, r2
 8005a9c:	71fb      	strb	r3, [r7, #7]
 8005a9e:	e062      	b.n	8005b66 <UART_WaitOnFlagUntilTimeout+0xd8>
 8005aa0:	69bb      	ldr	r3, [r7, #24]
 8005aa2:	f1b3 3fff 	cmp.w	r3, #4294967295
 8005aa6:	d05e      	beq.n	8005b66 <UART_WaitOnFlagUntilTimeout+0xd8>
 8005aa8:	f7fb ff5c 	bl	8001964 <HAL_GetTick>
 8005aac:	4602      	mov	r2, r0
 8005aae:	683b      	ldr	r3, [r7, #0]
 8005ab0:	1ad3      	subs	r3, r2, r3
 8005ab2:	69ba      	ldr	r2, [r7, #24]
 8005ab4:	429a      	cmp	r2, r3
 8005ab6:	d302      	bcc.n	8005abe <UART_WaitOnFlagUntilTimeout+0x30>
 8005ab8:	69bb      	ldr	r3, [r7, #24]
 8005aba:	2b00      	cmp	r3, #0
 8005abc:	d11d      	bne.n	8005afa <UART_WaitOnFlagUntilTimeout+0x6c>
 8005abe:	68fb      	ldr	r3, [r7, #12]
 8005ac0:	681b      	ldr	r3, [r3, #0]
 8005ac2:	681a      	ldr	r2, [r3, #0]
 8005ac4:	68fb      	ldr	r3, [r7, #12]
 8005ac6:	681b      	ldr	r3, [r3, #0]
 8005ac8:	f422 72d0 	bic.w	r2, r2, #416	; 0x1a0
 8005acc:	601a      	str	r2, [r3, #0]
 8005ace:	68fb      	ldr	r3, [r7, #12]
 8005ad0:	681b      	ldr	r3, [r3, #0]
 8005ad2:	689a      	ldr	r2, [r3, #8]
 8005ad4:	68fb      	ldr	r3, [r7, #12]
 8005ad6:	681b      	ldr	r3, [r3, #0]
 8005ad8:	f022 0201 	bic.w	r2, r2, #1
 8005adc:	609a      	str	r2, [r3, #8]
 8005ade:	68fb      	ldr	r3, [r7, #12]
 8005ae0:	2220      	movs	r2, #32
 8005ae2:	f8c3 2084 	str.w	r2, [r3, #132]	; 0x84
 8005ae6:	68fb      	ldr	r3, [r7, #12]
 8005ae8:	2220      	movs	r2, #32
 8005aea:	f8c3 2088 	str.w	r2, [r3, #136]	; 0x88
 8005aee:	68fb      	ldr	r3, [r7, #12]
 8005af0:	2200      	movs	r2, #0
 8005af2:	f883 2080 	strb.w	r2, [r3, #128]	; 0x80
 8005af6:	2303      	movs	r3, #3
 8005af8:	e045      	b.n	8005b86 <UART_WaitOnFlagUntilTimeout+0xf8>
 8005afa:	68fb      	ldr	r3, [r7, #12]
 8005afc:	681b      	ldr	r3, [r3, #0]
 8005afe:	681b      	ldr	r3, [r3, #0]
 8005b00:	f003 0304 	and.w	r3, r3, #4
 8005b04:	2b00      	cmp	r3, #0
 8005b06:	d02e      	beq.n	8005b66 <UART_WaitOnFlagUntilTimeout+0xd8>
 8005b08:	68fb      	ldr	r3, [r7, #12]
 8005b0a:	681b      	ldr	r3, [r3, #0]
 8005b0c:	69db      	ldr	r3, [r3, #28]
 8005b0e:	f403 6300 	and.w	r3, r3, #2048	; 0x800
 8005b12:	f5b3 6f00 	cmp.w	r3, #2048	; 0x800
 8005b16:	d126      	bne.n	8005b66 <UART_WaitOnFlagUntilTimeout+0xd8>
 8005b18:	68fb      	ldr	r3, [r7, #12]
 8005b1a:	681b      	ldr	r3, [r3, #0]
 8005b1c:	f44f 6200 	mov.w	r2, #2048	; 0x800
 8005b20:	621a      	str	r2, [r3, #32]
 8005b22:	68fb      	ldr	r3, [r7, #12]
 8005b24:	681b      	ldr	r3, [r3, #0]
 8005b26:	681a      	ldr	r2, [r3, #0]
 8005b28:	68fb      	ldr	r3, [r7, #12]
 8005b2a:	681b      	ldr	r3, [r3, #0]
 8005b2c:	f422 72d0 	bic.w	r2, r2, #416	; 0x1a0
 8005b30:	601a      	str	r2, [r3, #0]
 8005b32:	68fb      	ldr	r3, [r7, #12]
 8005b34:	681b      	ldr	r3, [r3, #0]
 8005b36:	689a      	ldr	r2, [r3, #8]
 8005b38:	68fb      	ldr	r3, [r7, #12]
 8005b3a:	681b      	ldr	r3, [r3, #0]
 8005b3c:	f022 0201 	bic.w	r2, r2, #1
 8005b40:	609a      	str	r2, [r3, #8]
 8005b42:	68fb      	ldr	r3, [r7, #12]
 8005b44:	2220      	movs	r2, #32
 8005b46:	f8c3 2084 	str.w	r2, [r3, #132]	; 0x84
 8005b4a:	68fb      	ldr	r3, [r7, #12]
 8005b4c:	2220      	movs	r2, #32
 8005b4e:	f8c3 2088 	str.w	r2, [r3, #136]	; 0x88
 8005b52:	68fb      	ldr	r3, [r7, #12]
 8005b54:	2220      	movs	r2, #32
 8005b56:	f8c3 208c 	str.w	r2, [r3, #140]	; 0x8c
 8005b5a:	68fb      	ldr	r3, [r7, #12]
 8005b5c:	2200      	movs	r2, #0
 8005b5e:	f883 2080 	strb.w	r2, [r3, #128]	; 0x80
 8005b62:	2303      	movs	r3, #3
 8005b64:	e00f      	b.n	8005b86 <UART_WaitOnFlagUntilTimeout+0xf8>
 8005b66:	68fb      	ldr	r3, [r7, #12]
 8005b68:	681b      	ldr	r3, [r3, #0]
 8005b6a:	69da      	ldr	r2, [r3, #28]
 8005b6c:	68bb      	ldr	r3, [r7, #8]
 8005b6e:	4013      	ands	r3, r2
 8005b70:	68ba      	ldr	r2, [r7, #8]
 8005b72:	429a      	cmp	r2, r3
 8005b74:	bf0c      	ite	eq
 8005b76:	2301      	moveq	r3, #1
 8005b78:	2300      	movne	r3, #0
 8005b7a:	b2db      	uxtb	r3, r3
 8005b7c:	461a      	mov	r2, r3
 8005b7e:	79fb      	ldrb	r3, [r7, #7]
 8005b80:	429a      	cmp	r2, r3
 8005b82:	d08d      	beq.n	8005aa0 <UART_WaitOnFlagUntilTimeout+0x12>
 8005b84:	2300      	movs	r3, #0
 8005b86:	4618      	mov	r0, r3
 8005b88:	3710      	adds	r7, #16
 8005b8a:	46bd      	mov	sp, r7
 8005b8c:	bd80      	pop	{r7, pc}

08005b8e <HAL_UARTEx_DisableFifoMode>:
 8005b8e:	b480      	push	{r7}
 8005b90:	b085      	sub	sp, #20
 8005b92:	af00      	add	r7, sp, #0
 8005b94:	6078      	str	r0, [r7, #4]
 8005b96:	687b      	ldr	r3, [r7, #4]
 8005b98:	f893 3080 	ldrb.w	r3, [r3, #128]	; 0x80
 8005b9c:	2b01      	cmp	r3, #1
 8005b9e:	d101      	bne.n	8005ba4 <HAL_UARTEx_DisableFifoMode+0x16>
 8005ba0:	2302      	movs	r3, #2
 8005ba2:	e027      	b.n	8005bf4 <HAL_UARTEx_DisableFifoMode+0x66>
 8005ba4:	687b      	ldr	r3, [r7, #4]
 8005ba6:	2201      	movs	r2, #1
 8005ba8:	f883 2080 	strb.w	r2, [r3, #128]	; 0x80
 8005bac:	687b      	ldr	r3, [r7, #4]
 8005bae:	2224      	movs	r2, #36	; 0x24
 8005bb0:	f8c3 2084 	str.w	r2, [r3, #132]	; 0x84
 8005bb4:	687b      	ldr	r3, [r7, #4]
 8005bb6:	681b      	ldr	r3, [r3, #0]
 8005bb8:	681b      	ldr	r3, [r3, #0]
 8005bba:	60fb      	str	r3, [r7, #12]
 8005bbc:	687b      	ldr	r3, [r7, #4]
 8005bbe:	681b      	ldr	r3, [r3, #0]
 8005bc0:	681a      	ldr	r2, [r3, #0]
 8005bc2:	687b      	ldr	r3, [r7, #4]
 8005bc4:	681b      	ldr	r3, [r3, #0]
 8005bc6:	f022 0201 	bic.w	r2, r2, #1
 8005bca:	601a      	str	r2, [r3, #0]
 8005bcc:	68fb      	ldr	r3, [r7, #12]
 8005bce:	f023 5300 	bic.w	r3, r3, #536870912	; 0x20000000
 8005bd2:	60fb      	str	r3, [r7, #12]
 8005bd4:	687b      	ldr	r3, [r7, #4]
 8005bd6:	2200      	movs	r2, #0
 8005bd8:	665a      	str	r2, [r3, #100]	; 0x64
 8005bda:	687b      	ldr	r3, [r7, #4]
 8005bdc:	681b      	ldr	r3, [r3, #0]
 8005bde:	68fa      	ldr	r2, [r7, #12]
 8005be0:	601a      	str	r2, [r3, #0]
 8005be2:	687b      	ldr	r3, [r7, #4]
 8005be4:	2220      	movs	r2, #32
 8005be6:	f8c3 2084 	str.w	r2, [r3, #132]	; 0x84
 8005bea:	687b      	ldr	r3, [r7, #4]
 8005bec:	2200      	movs	r2, #0
 8005bee:	f883 2080 	strb.w	r2, [r3, #128]	; 0x80
 8005bf2:	2300      	movs	r3, #0
 8005bf4:	4618      	mov	r0, r3
 8005bf6:	3714      	adds	r7, #20
 8005bf8:	46bd      	mov	sp, r7
 8005bfa:	f85d 7b04 	ldr.w	r7, [sp], #4
 8005bfe:	4770      	bx	lr

08005c00 <HAL_UARTEx_SetTxFifoThreshold>:
 8005c00:	b580      	push	{r7, lr}
 8005c02:	b084      	sub	sp, #16
 8005c04:	af00      	add	r7, sp, #0
 8005c06:	6078      	str	r0, [r7, #4]
 8005c08:	6039      	str	r1, [r7, #0]
 8005c0a:	687b      	ldr	r3, [r7, #4]
 8005c0c:	f893 3080 	ldrb.w	r3, [r3, #128]	; 0x80
 8005c10:	2b01      	cmp	r3, #1
 8005c12:	d101      	bne.n	8005c18 <HAL_UARTEx_SetTxFifoThreshold+0x18>
 8005c14:	2302      	movs	r3, #2
 8005c16:	e02d      	b.n	8005c74 <HAL_UARTEx_SetTxFifoThreshold+0x74>
 8005c18:	687b      	ldr	r3, [r7, #4]
 8005c1a:	2201      	movs	r2, #1
 8005c1c:	f883 2080 	strb.w	r2, [r3, #128]	; 0x80
 8005c20:	687b      	ldr	r3, [r7, #4]
 8005c22:	2224      	movs	r2, #36	; 0x24
 8005c24:	f8c3 2084 	str.w	r2, [r3, #132]	; 0x84
 8005c28:	687b      	ldr	r3, [r7, #4]
 8005c2a:	681b      	ldr	r3, [r3, #0]
 8005c2c:	681b      	ldr	r3, [r3, #0]
 8005c2e:	60fb      	str	r3, [r7, #12]
 8005c30:	687b      	ldr	r3, [r7, #4]
 8005c32:	681b      	ldr	r3, [r3, #0]
 8005c34:	681a      	ldr	r2, [r3, #0]
 8005c36:	687b      	ldr	r3, [r7, #4]
 8005c38:	681b      	ldr	r3, [r3, #0]
 8005c3a:	f022 0201 	bic.w	r2, r2, #1
 8005c3e:	601a      	str	r2, [r3, #0]
 8005c40:	687b      	ldr	r3, [r7, #4]
 8005c42:	681b      	ldr	r3, [r3, #0]
 8005c44:	689b      	ldr	r3, [r3, #8]
 8005c46:	f023 4160 	bic.w	r1, r3, #3758096384	; 0xe0000000
 8005c4a:	687b      	ldr	r3, [r7, #4]
 8005c4c:	681b      	ldr	r3, [r3, #0]
 8005c4e:	683a      	ldr	r2, [r7, #0]
 8005c50:	430a      	orrs	r2, r1
 8005c52:	609a      	str	r2, [r3, #8]
 8005c54:	6878      	ldr	r0, [r7, #4]
 8005c56:	f000 f84f 	bl	8005cf8 <UARTEx_SetNbDataToProcess>
 8005c5a:	687b      	ldr	r3, [r7, #4]
 8005c5c:	681b      	ldr	r3, [r3, #0]
 8005c5e:	68fa      	ldr	r2, [r7, #12]
 8005c60:	601a      	str	r2, [r3, #0]
 8005c62:	687b      	ldr	r3, [r7, #4]
 8005c64:	2220      	movs	r2, #32
 8005c66:	f8c3 2084 	str.w	r2, [r3, #132]	; 0x84
 8005c6a:	687b      	ldr	r3, [r7, #4]
 8005c6c:	2200      	movs	r2, #0
 8005c6e:	f883 2080 	strb.w	r2, [r3, #128]	; 0x80
 8005c72:	2300      	movs	r3, #0
 8005c74:	4618      	mov	r0, r3
 8005c76:	3710      	adds	r7, #16
 8005c78:	46bd      	mov	sp, r7
 8005c7a:	bd80      	pop	{r7, pc}

08005c7c <HAL_UARTEx_SetRxFifoThreshold>:
 8005c7c:	b580      	push	{r7, lr}
 8005c7e:	b084      	sub	sp, #16
 8005c80:	af00      	add	r7, sp, #0
 8005c82:	6078      	str	r0, [r7, #4]
 8005c84:	6039      	str	r1, [r7, #0]
 8005c86:	687b      	ldr	r3, [r7, #4]
 8005c88:	f893 3080 	ldrb.w	r3, [r3, #128]	; 0x80
 8005c8c:	2b01      	cmp	r3, #1
 8005c8e:	d101      	bne.n	8005c94 <HAL_UARTEx_SetRxFifoThreshold+0x18>
 8005c90:	2302      	movs	r3, #2
 8005c92:	e02d      	b.n	8005cf0 <HAL_UARTEx_SetRxFifoThreshold+0x74>
 8005c94:	687b      	ldr	r3, [r7, #4]
 8005c96:	2201      	movs	r2, #1
 8005c98:	f883 2080 	strb.w	r2, [r3, #128]	; 0x80
 8005c9c:	687b      	ldr	r3, [r7, #4]
 8005c9e:	2224      	movs	r2, #36	; 0x24
 8005ca0:	f8c3 2084 	str.w	r2, [r3, #132]	; 0x84
 8005ca4:	687b      	ldr	r3, [r7, #4]
 8005ca6:	681b      	ldr	r3, [r3, #0]
 8005ca8:	681b      	ldr	r3, [r3, #0]
 8005caa:	60fb      	str	r3, [r7, #12]
 8005cac:	687b      	ldr	r3, [r7, #4]
 8005cae:	681b      	ldr	r3, [r3, #0]
 8005cb0:	681a      	ldr	r2, [r3, #0]
 8005cb2:	687b      	ldr	r3, [r7, #4]
 8005cb4:	681b      	ldr	r3, [r3, #0]
 8005cb6:	f022 0201 	bic.w	r2, r2, #1
 8005cba:	601a      	str	r2, [r3, #0]
 8005cbc:	687b      	ldr	r3, [r7, #4]
 8005cbe:	681b      	ldr	r3, [r3, #0]
 8005cc0:	689b      	ldr	r3, [r3, #8]
 8005cc2:	f023 6160 	bic.w	r1, r3, #234881024	; 0xe000000
 8005cc6:	687b      	ldr	r3, [r7, #4]
 8005cc8:	681b      	ldr	r3, [r3, #0]
 8005cca:	683a      	ldr	r2, [r7, #0]
 8005ccc:	430a      	orrs	r2, r1
 8005cce:	609a      	str	r2, [r3, #8]
 8005cd0:	6878      	ldr	r0, [r7, #4]
 8005cd2:	f000 f811 	bl	8005cf8 <UARTEx_SetNbDataToProcess>
 8005cd6:	687b      	ldr	r3, [r7, #4]
 8005cd8:	681b      	ldr	r3, [r3, #0]
 8005cda:	68fa      	ldr	r2, [r7, #12]
 8005cdc:	601a      	str	r2, [r3, #0]
 8005cde:	687b      	ldr	r3, [r7, #4]
 8005ce0:	2220      	movs	r2, #32
 8005ce2:	f8c3 2084 	str.w	r2, [r3, #132]	; 0x84
 8005ce6:	687b      	ldr	r3, [r7, #4]
 8005ce8:	2200      	movs	r2, #0
 8005cea:	f883 2080 	strb.w	r2, [r3, #128]	; 0x80
 8005cee:	2300      	movs	r3, #0
 8005cf0:	4618      	mov	r0, r3
 8005cf2:	3710      	adds	r7, #16
 8005cf4:	46bd      	mov	sp, r7
 8005cf6:	bd80      	pop	{r7, pc}

08005cf8 <UARTEx_SetNbDataToProcess>:
 8005cf8:	b480      	push	{r7}
 8005cfa:	b085      	sub	sp, #20
 8005cfc:	af00      	add	r7, sp, #0
 8005cfe:	6078      	str	r0, [r7, #4]
 8005d00:	687b      	ldr	r3, [r7, #4]
 8005d02:	6e5b      	ldr	r3, [r3, #100]	; 0x64
 8005d04:	2b00      	cmp	r3, #0
 8005d06:	d108      	bne.n	8005d1a <UARTEx_SetNbDataToProcess+0x22>
 8005d08:	687b      	ldr	r3, [r7, #4]
 8005d0a:	2201      	movs	r2, #1
 8005d0c:	f8a3 206a 	strh.w	r2, [r3, #106]	; 0x6a
 8005d10:	687b      	ldr	r3, [r7, #4]
 8005d12:	2201      	movs	r2, #1
 8005d14:	f8a3 2068 	strh.w	r2, [r3, #104]	; 0x68
 8005d18:	e031      	b.n	8005d7e <UARTEx_SetNbDataToProcess+0x86>
 8005d1a:	2308      	movs	r3, #8
 8005d1c:	73fb      	strb	r3, [r7, #15]
 8005d1e:	2308      	movs	r3, #8
 8005d20:	73bb      	strb	r3, [r7, #14]
 8005d22:	687b      	ldr	r3, [r7, #4]
 8005d24:	681b      	ldr	r3, [r3, #0]
 8005d26:	689b      	ldr	r3, [r3, #8]
 8005d28:	0e5b      	lsrs	r3, r3, #25
 8005d2a:	b2db      	uxtb	r3, r3
 8005d2c:	f003 0307 	and.w	r3, r3, #7
 8005d30:	737b      	strb	r3, [r7, #13]
 8005d32:	687b      	ldr	r3, [r7, #4]
 8005d34:	681b      	ldr	r3, [r3, #0]
 8005d36:	689b      	ldr	r3, [r3, #8]
 8005d38:	0f5b      	lsrs	r3, r3, #29
 8005d3a:	b2db      	uxtb	r3, r3
 8005d3c:	f003 0307 	and.w	r3, r3, #7
 8005d40:	733b      	strb	r3, [r7, #12]
 8005d42:	7bbb      	ldrb	r3, [r7, #14]
 8005d44:	7b3a      	ldrb	r2, [r7, #12]
 8005d46:	4911      	ldr	r1, [pc, #68]	; (8005d8c <UARTEx_SetNbDataToProcess+0x94>)
 8005d48:	5c8a      	ldrb	r2, [r1, r2]
 8005d4a:	fb02 f303 	mul.w	r3, r2, r3
 8005d4e:	7b3a      	ldrb	r2, [r7, #12]
 8005d50:	490f      	ldr	r1, [pc, #60]	; (8005d90 <UARTEx_SetNbDataToProcess+0x98>)
 8005d52:	5c8a      	ldrb	r2, [r1, r2]
 8005d54:	fb93 f3f2 	sdiv	r3, r3, r2
 8005d58:	b29a      	uxth	r2, r3
 8005d5a:	687b      	ldr	r3, [r7, #4]
 8005d5c:	f8a3 206a 	strh.w	r2, [r3, #106]	; 0x6a
 8005d60:	7bfb      	ldrb	r3, [r7, #15]
 8005d62:	7b7a      	ldrb	r2, [r7, #13]
 8005d64:	4909      	ldr	r1, [pc, #36]	; (8005d8c <UARTEx_SetNbDataToProcess+0x94>)
 8005d66:	5c8a      	ldrb	r2, [r1, r2]
 8005d68:	fb02 f303 	mul.w	r3, r2, r3
 8005d6c:	7b7a      	ldrb	r2, [r7, #13]
 8005d6e:	4908      	ldr	r1, [pc, #32]	; (8005d90 <UARTEx_SetNbDataToProcess+0x98>)
 8005d70:	5c8a      	ldrb	r2, [r1, r2]
 8005d72:	fb93 f3f2 	sdiv	r3, r3, r2
 8005d76:	b29a      	uxth	r2, r3
 8005d78:	687b      	ldr	r3, [r7, #4]
 8005d7a:	f8a3 2068 	strh.w	r2, [r3, #104]	; 0x68
 8005d7e:	bf00      	nop
 8005d80:	3714      	adds	r7, #20
 8005d82:	46bd      	mov	sp, r7
 8005d84:	f85d 7b04 	ldr.w	r7, [sp], #4
 8005d88:	4770      	bx	lr
 8005d8a:	bf00      	nop
 8005d8c:	08006db0 	.word	0x08006db0
 8005d90:	08006db8 	.word	0x08006db8

08005d94 <__errno>:
 8005d94:	4b01      	ldr	r3, [pc, #4]	; (8005d9c <__errno+0x8>)
 8005d96:	6818      	ldr	r0, [r3, #0]
 8005d98:	4770      	bx	lr
 8005d9a:	bf00      	nop
 8005d9c:	20002018 	.word	0x20002018

08005da0 <__libc_init_array>:
 8005da0:	b570      	push	{r4, r5, r6, lr}
 8005da2:	4d0d      	ldr	r5, [pc, #52]	; (8005dd8 <__libc_init_array+0x38>)
 8005da4:	4c0d      	ldr	r4, [pc, #52]	; (8005ddc <__libc_init_array+0x3c>)
 8005da6:	1b64      	subs	r4, r4, r5
 8005da8:	10a4      	asrs	r4, r4, #2
 8005daa:	2600      	movs	r6, #0
 8005dac:	42a6      	cmp	r6, r4
 8005dae:	d109      	bne.n	8005dc4 <__libc_init_array+0x24>
 8005db0:	4d0b      	ldr	r5, [pc, #44]	; (8005de0 <__libc_init_array+0x40>)
 8005db2:	4c0c      	ldr	r4, [pc, #48]	; (8005de4 <__libc_init_array+0x44>)
 8005db4:	f000 ffd6 	bl	8006d64 <_init>
 8005db8:	1b64      	subs	r4, r4, r5
 8005dba:	10a4      	asrs	r4, r4, #2
 8005dbc:	2600      	movs	r6, #0
 8005dbe:	42a6      	cmp	r6, r4
 8005dc0:	d105      	bne.n	8005dce <__libc_init_array+0x2e>
 8005dc2:	bd70      	pop	{r4, r5, r6, pc}
 8005dc4:	f855 3b04 	ldr.w	r3, [r5], #4
 8005dc8:	4798      	blx	r3
 8005dca:	3601      	adds	r6, #1
 8005dcc:	e7ee      	b.n	8005dac <__libc_init_array+0xc>
 8005dce:	f855 3b04 	ldr.w	r3, [r5], #4
 8005dd2:	4798      	blx	r3
 8005dd4:	3601      	adds	r6, #1
 8005dd6:	e7f2      	b.n	8005dbe <__libc_init_array+0x1e>
 8005dd8:	08006e10 	.word	0x08006e10
 8005ddc:	08006e10 	.word	0x08006e10
 8005de0:	08006e10 	.word	0x08006e10
 8005de4:	08006e14 	.word	0x08006e14

08005de8 <memset>:
 8005de8:	4402      	add	r2, r0
 8005dea:	4603      	mov	r3, r0
 8005dec:	4293      	cmp	r3, r2
 8005dee:	d100      	bne.n	8005df2 <memset+0xa>
 8005df0:	4770      	bx	lr
 8005df2:	f803 1b01 	strb.w	r1, [r3], #1
 8005df6:	e7f9      	b.n	8005dec <memset+0x4>

08005df8 <pow>:
 8005df8:	e92d 43f8 	stmdb	sp!, {r3, r4, r5, r6, r7, r8, r9, lr}
 8005dfc:	ec59 8b10 	vmov	r8, r9, d0
 8005e00:	ec57 6b11 	vmov	r6, r7, d1
 8005e04:	f000 f8a8 	bl	8005f58 <__ieee754_pow>
 8005e08:	4b4e      	ldr	r3, [pc, #312]	; (8005f44 <pow+0x14c>)
 8005e0a:	f993 3000 	ldrsb.w	r3, [r3]
 8005e0e:	3301      	adds	r3, #1
 8005e10:	ec55 4b10 	vmov	r4, r5, d0
 8005e14:	d015      	beq.n	8005e42 <pow+0x4a>
 8005e16:	4632      	mov	r2, r6
 8005e18:	463b      	mov	r3, r7
 8005e1a:	4630      	mov	r0, r6
 8005e1c:	4639      	mov	r1, r7
 8005e1e:	f7fa fe51 	bl	8000ac4 <__aeabi_dcmpun>
 8005e22:	b970      	cbnz	r0, 8005e42 <pow+0x4a>
 8005e24:	4642      	mov	r2, r8
 8005e26:	464b      	mov	r3, r9
 8005e28:	4640      	mov	r0, r8
 8005e2a:	4649      	mov	r1, r9
 8005e2c:	f7fa fe4a 	bl	8000ac4 <__aeabi_dcmpun>
 8005e30:	2200      	movs	r2, #0
 8005e32:	2300      	movs	r3, #0
 8005e34:	b148      	cbz	r0, 8005e4a <pow+0x52>
 8005e36:	4630      	mov	r0, r6
 8005e38:	4639      	mov	r1, r7
 8005e3a:	f7fa fe11 	bl	8000a60 <__aeabi_dcmpeq>
 8005e3e:	2800      	cmp	r0, #0
 8005e40:	d17d      	bne.n	8005f3e <pow+0x146>
 8005e42:	ec45 4b10 	vmov	d0, r4, r5
 8005e46:	e8bd 83f8 	ldmia.w	sp!, {r3, r4, r5, r6, r7, r8, r9, pc}
 8005e4a:	4640      	mov	r0, r8
 8005e4c:	4649      	mov	r1, r9
 8005e4e:	f7fa fe07 	bl	8000a60 <__aeabi_dcmpeq>
 8005e52:	b1e0      	cbz	r0, 8005e8e <pow+0x96>
 8005e54:	2200      	movs	r2, #0
 8005e56:	2300      	movs	r3, #0
 8005e58:	4630      	mov	r0, r6
 8005e5a:	4639      	mov	r1, r7
 8005e5c:	f7fa fe00 	bl	8000a60 <__aeabi_dcmpeq>
 8005e60:	2800      	cmp	r0, #0
 8005e62:	d16c      	bne.n	8005f3e <pow+0x146>
 8005e64:	ec47 6b10 	vmov	d0, r6, r7
 8005e68:	f000 fe55 	bl	8006b16 <finite>
 8005e6c:	2800      	cmp	r0, #0
 8005e6e:	d0e8      	beq.n	8005e42 <pow+0x4a>
 8005e70:	2200      	movs	r2, #0
 8005e72:	2300      	movs	r3, #0
 8005e74:	4630      	mov	r0, r6
 8005e76:	4639      	mov	r1, r7
 8005e78:	f7fa fdfc 	bl	8000a74 <__aeabi_dcmplt>
 8005e7c:	2800      	cmp	r0, #0
 8005e7e:	d0e0      	beq.n	8005e42 <pow+0x4a>
 8005e80:	f7ff ff88 	bl	8005d94 <__errno>
 8005e84:	2321      	movs	r3, #33	; 0x21
 8005e86:	6003      	str	r3, [r0, #0]
 8005e88:	2400      	movs	r4, #0
 8005e8a:	4d2f      	ldr	r5, [pc, #188]	; (8005f48 <pow+0x150>)
 8005e8c:	e7d9      	b.n	8005e42 <pow+0x4a>
 8005e8e:	ec45 4b10 	vmov	d0, r4, r5
 8005e92:	f000 fe40 	bl	8006b16 <finite>
 8005e96:	bbb8      	cbnz	r0, 8005f08 <pow+0x110>
 8005e98:	ec49 8b10 	vmov	d0, r8, r9
 8005e9c:	f000 fe3b 	bl	8006b16 <finite>
 8005ea0:	b390      	cbz	r0, 8005f08 <pow+0x110>
 8005ea2:	ec47 6b10 	vmov	d0, r6, r7
 8005ea6:	f000 fe36 	bl	8006b16 <finite>
 8005eaa:	b368      	cbz	r0, 8005f08 <pow+0x110>
 8005eac:	4622      	mov	r2, r4
 8005eae:	462b      	mov	r3, r5
 8005eb0:	4620      	mov	r0, r4
 8005eb2:	4629      	mov	r1, r5
 8005eb4:	f7fa fe06 	bl	8000ac4 <__aeabi_dcmpun>
 8005eb8:	b160      	cbz	r0, 8005ed4 <pow+0xdc>
 8005eba:	f7ff ff6b 	bl	8005d94 <__errno>
 8005ebe:	2321      	movs	r3, #33	; 0x21
 8005ec0:	6003      	str	r3, [r0, #0]
 8005ec2:	2200      	movs	r2, #0
 8005ec4:	2300      	movs	r3, #0
 8005ec6:	4610      	mov	r0, r2
 8005ec8:	4619      	mov	r1, r3
 8005eca:	f7fa fc8b 	bl	80007e4 <__aeabi_ddiv>
 8005ece:	4604      	mov	r4, r0
 8005ed0:	460d      	mov	r5, r1
 8005ed2:	e7b6      	b.n	8005e42 <pow+0x4a>
 8005ed4:	f7ff ff5e 	bl	8005d94 <__errno>
 8005ed8:	2322      	movs	r3, #34	; 0x22
 8005eda:	6003      	str	r3, [r0, #0]
 8005edc:	2200      	movs	r2, #0
 8005ede:	2300      	movs	r3, #0
 8005ee0:	4640      	mov	r0, r8
 8005ee2:	4649      	mov	r1, r9
 8005ee4:	f7fa fdc6 	bl	8000a74 <__aeabi_dcmplt>
 8005ee8:	2400      	movs	r4, #0
 8005eea:	b158      	cbz	r0, 8005f04 <pow+0x10c>
 8005eec:	ec47 6b10 	vmov	d0, r6, r7
 8005ef0:	f000 fe26 	bl	8006b40 <rint>
 8005ef4:	4632      	mov	r2, r6
 8005ef6:	ec51 0b10 	vmov	r0, r1, d0
 8005efa:	463b      	mov	r3, r7
 8005efc:	f7fa fdb0 	bl	8000a60 <__aeabi_dcmpeq>
 8005f00:	2800      	cmp	r0, #0
 8005f02:	d0c2      	beq.n	8005e8a <pow+0x92>
 8005f04:	4d11      	ldr	r5, [pc, #68]	; (8005f4c <pow+0x154>)
 8005f06:	e79c      	b.n	8005e42 <pow+0x4a>
 8005f08:	2200      	movs	r2, #0
 8005f0a:	2300      	movs	r3, #0
 8005f0c:	4620      	mov	r0, r4
 8005f0e:	4629      	mov	r1, r5
 8005f10:	f7fa fda6 	bl	8000a60 <__aeabi_dcmpeq>
 8005f14:	2800      	cmp	r0, #0
 8005f16:	d094      	beq.n	8005e42 <pow+0x4a>
 8005f18:	ec49 8b10 	vmov	d0, r8, r9
 8005f1c:	f000 fdfb 	bl	8006b16 <finite>
 8005f20:	2800      	cmp	r0, #0
 8005f22:	d08e      	beq.n	8005e42 <pow+0x4a>
 8005f24:	ec47 6b10 	vmov	d0, r6, r7
 8005f28:	f000 fdf5 	bl	8006b16 <finite>
 8005f2c:	2800      	cmp	r0, #0
 8005f2e:	d088      	beq.n	8005e42 <pow+0x4a>
 8005f30:	f7ff ff30 	bl	8005d94 <__errno>
 8005f34:	2322      	movs	r3, #34	; 0x22
 8005f36:	6003      	str	r3, [r0, #0]
 8005f38:	2400      	movs	r4, #0
 8005f3a:	2500      	movs	r5, #0
 8005f3c:	e781      	b.n	8005e42 <pow+0x4a>
 8005f3e:	4d04      	ldr	r5, [pc, #16]	; (8005f50 <pow+0x158>)
 8005f40:	2400      	movs	r4, #0
 8005f42:	e77e      	b.n	8005e42 <pow+0x4a>
 8005f44:	2000207c 	.word	0x2000207c
 8005f48:	fff00000 	.word	0xfff00000
 8005f4c:	7ff00000 	.word	0x7ff00000
 8005f50:	3ff00000 	.word	0x3ff00000
 8005f54:	00000000 	.word	0x00000000

08005f58 <__ieee754_pow>:
 8005f58:	e92d 4ff0 	stmdb	sp!, {r4, r5, r6, r7, r8, r9, sl, fp, lr}
 8005f5c:	ed2d 8b06 	vpush	{d8-d10}
 8005f60:	b08d      	sub	sp, #52	; 0x34
 8005f62:	ed8d 1b02 	vstr	d1, [sp, #8]
 8005f66:	e9dd 0702 	ldrd	r0, r7, [sp, #8]
 8005f6a:	f027 4600 	bic.w	r6, r7, #2147483648	; 0x80000000
 8005f6e:	ea56 0100 	orrs.w	r1, r6, r0
 8005f72:	ec53 2b10 	vmov	r2, r3, d0
 8005f76:	f000 84d1 	beq.w	800691c <__ieee754_pow+0x9c4>
 8005f7a:	497f      	ldr	r1, [pc, #508]	; (8006178 <__ieee754_pow+0x220>)
 8005f7c:	f023 4400 	bic.w	r4, r3, #2147483648	; 0x80000000
 8005f80:	428c      	cmp	r4, r1
 8005f82:	ee10 8a10 	vmov	r8, s0
 8005f86:	4699      	mov	r9, r3
 8005f88:	dc09      	bgt.n	8005f9e <__ieee754_pow+0x46>
 8005f8a:	d103      	bne.n	8005f94 <__ieee754_pow+0x3c>
 8005f8c:	b97a      	cbnz	r2, 8005fae <__ieee754_pow+0x56>
 8005f8e:	42a6      	cmp	r6, r4
 8005f90:	dd02      	ble.n	8005f98 <__ieee754_pow+0x40>
 8005f92:	e00c      	b.n	8005fae <__ieee754_pow+0x56>
 8005f94:	428e      	cmp	r6, r1
 8005f96:	dc02      	bgt.n	8005f9e <__ieee754_pow+0x46>
 8005f98:	428e      	cmp	r6, r1
 8005f9a:	d110      	bne.n	8005fbe <__ieee754_pow+0x66>
 8005f9c:	b178      	cbz	r0, 8005fbe <__ieee754_pow+0x66>
 8005f9e:	f104 4440 	add.w	r4, r4, #3221225472	; 0xc0000000
 8005fa2:	f504 1480 	add.w	r4, r4, #1048576	; 0x100000
 8005fa6:	ea54 0308 	orrs.w	r3, r4, r8
 8005faa:	f000 84b7 	beq.w	800691c <__ieee754_pow+0x9c4>
 8005fae:	4873      	ldr	r0, [pc, #460]	; (800617c <__ieee754_pow+0x224>)
 8005fb0:	b00d      	add	sp, #52	; 0x34
 8005fb2:	ecbd 8b06 	vpop	{d8-d10}
 8005fb6:	e8bd 4ff0 	ldmia.w	sp!, {r4, r5, r6, r7, r8, r9, sl, fp, lr}
 8005fba:	f000 bdb9 	b.w	8006b30 <nan>
 8005fbe:	f1b9 0f00 	cmp.w	r9, #0
 8005fc2:	da36      	bge.n	8006032 <__ieee754_pow+0xda>
 8005fc4:	496e      	ldr	r1, [pc, #440]	; (8006180 <__ieee754_pow+0x228>)
 8005fc6:	428e      	cmp	r6, r1
 8005fc8:	dc51      	bgt.n	800606e <__ieee754_pow+0x116>
 8005fca:	f1a1 7154 	sub.w	r1, r1, #55574528	; 0x3500000
 8005fce:	428e      	cmp	r6, r1
 8005fd0:	f340 84af 	ble.w	8006932 <__ieee754_pow+0x9da>
 8005fd4:	1531      	asrs	r1, r6, #20
 8005fd6:	f2a1 31ff 	subw	r1, r1, #1023	; 0x3ff
 8005fda:	2914      	cmp	r1, #20
 8005fdc:	dd0f      	ble.n	8005ffe <__ieee754_pow+0xa6>
 8005fde:	f1c1 0134 	rsb	r1, r1, #52	; 0x34
 8005fe2:	fa20 fc01 	lsr.w	ip, r0, r1
 8005fe6:	fa0c f101 	lsl.w	r1, ip, r1
 8005fea:	4281      	cmp	r1, r0
 8005fec:	f040 84a1 	bne.w	8006932 <__ieee754_pow+0x9da>
 8005ff0:	f00c 0c01 	and.w	ip, ip, #1
 8005ff4:	f1cc 0102 	rsb	r1, ip, #2
 8005ff8:	9100      	str	r1, [sp, #0]
 8005ffa:	b180      	cbz	r0, 800601e <__ieee754_pow+0xc6>
 8005ffc:	e059      	b.n	80060b2 <__ieee754_pow+0x15a>
 8005ffe:	2800      	cmp	r0, #0
 8006000:	d155      	bne.n	80060ae <__ieee754_pow+0x156>
 8006002:	f1c1 0114 	rsb	r1, r1, #20
 8006006:	fa46 fc01 	asr.w	ip, r6, r1
 800600a:	fa0c f101 	lsl.w	r1, ip, r1
 800600e:	42b1      	cmp	r1, r6
 8006010:	f040 848c 	bne.w	800692c <__ieee754_pow+0x9d4>
 8006014:	f00c 0c01 	and.w	ip, ip, #1
 8006018:	f1cc 0102 	rsb	r1, ip, #2
 800601c:	9100      	str	r1, [sp, #0]
 800601e:	4959      	ldr	r1, [pc, #356]	; (8006184 <__ieee754_pow+0x22c>)
 8006020:	428e      	cmp	r6, r1
 8006022:	d12d      	bne.n	8006080 <__ieee754_pow+0x128>
 8006024:	2f00      	cmp	r7, #0
 8006026:	da79      	bge.n	800611c <__ieee754_pow+0x1c4>
 8006028:	4956      	ldr	r1, [pc, #344]	; (8006184 <__ieee754_pow+0x22c>)
 800602a:	2000      	movs	r0, #0
 800602c:	f7fa fbda 	bl	80007e4 <__aeabi_ddiv>
 8006030:	e016      	b.n	8006060 <__ieee754_pow+0x108>
 8006032:	2100      	movs	r1, #0
 8006034:	9100      	str	r1, [sp, #0]
 8006036:	2800      	cmp	r0, #0
 8006038:	d13b      	bne.n	80060b2 <__ieee754_pow+0x15a>
 800603a:	494f      	ldr	r1, [pc, #316]	; (8006178 <__ieee754_pow+0x220>)
 800603c:	428e      	cmp	r6, r1
 800603e:	d1ee      	bne.n	800601e <__ieee754_pow+0xc6>
 8006040:	f104 4340 	add.w	r3, r4, #3221225472	; 0xc0000000
 8006044:	f503 1380 	add.w	r3, r3, #1048576	; 0x100000
 8006048:	ea53 0308 	orrs.w	r3, r3, r8
 800604c:	f000 8466 	beq.w	800691c <__ieee754_pow+0x9c4>
 8006050:	4b4d      	ldr	r3, [pc, #308]	; (8006188 <__ieee754_pow+0x230>)
 8006052:	429c      	cmp	r4, r3
 8006054:	dd0d      	ble.n	8006072 <__ieee754_pow+0x11a>
 8006056:	2f00      	cmp	r7, #0
 8006058:	f280 8464 	bge.w	8006924 <__ieee754_pow+0x9cc>
 800605c:	2000      	movs	r0, #0
 800605e:	2100      	movs	r1, #0
 8006060:	ec41 0b10 	vmov	d0, r0, r1
 8006064:	b00d      	add	sp, #52	; 0x34
 8006066:	ecbd 8b06 	vpop	{d8-d10}
 800606a:	e8bd 8ff0 	ldmia.w	sp!, {r4, r5, r6, r7, r8, r9, sl, fp, pc}
 800606e:	2102      	movs	r1, #2
 8006070:	e7e0      	b.n	8006034 <__ieee754_pow+0xdc>
 8006072:	2f00      	cmp	r7, #0
 8006074:	daf2      	bge.n	800605c <__ieee754_pow+0x104>
 8006076:	e9dd 0302 	ldrd	r0, r3, [sp, #8]
 800607a:	f103 4100 	add.w	r1, r3, #2147483648	; 0x80000000
 800607e:	e7ef      	b.n	8006060 <__ieee754_pow+0x108>
 8006080:	f1b7 4f80 	cmp.w	r7, #1073741824	; 0x40000000
 8006084:	d104      	bne.n	8006090 <__ieee754_pow+0x138>
 8006086:	4610      	mov	r0, r2
 8006088:	4619      	mov	r1, r3
 800608a:	f7fa fa81 	bl	8000590 <__aeabi_dmul>
 800608e:	e7e7      	b.n	8006060 <__ieee754_pow+0x108>
 8006090:	493e      	ldr	r1, [pc, #248]	; (800618c <__ieee754_pow+0x234>)
 8006092:	428f      	cmp	r7, r1
 8006094:	d10d      	bne.n	80060b2 <__ieee754_pow+0x15a>
 8006096:	f1b9 0f00 	cmp.w	r9, #0
 800609a:	db0a      	blt.n	80060b2 <__ieee754_pow+0x15a>
 800609c:	ec43 2b10 	vmov	d0, r2, r3
 80060a0:	b00d      	add	sp, #52	; 0x34
 80060a2:	ecbd 8b06 	vpop	{d8-d10}
 80060a6:	e8bd 4ff0 	ldmia.w	sp!, {r4, r5, r6, r7, r8, r9, sl, fp, lr}
 80060aa:	f000 bc77 	b.w	800699c <__ieee754_sqrt>
 80060ae:	2100      	movs	r1, #0
 80060b0:	9100      	str	r1, [sp, #0]
 80060b2:	ec43 2b10 	vmov	d0, r2, r3
 80060b6:	e9cd 2304 	strd	r2, r3, [sp, #16]
 80060ba:	f000 fd23 	bl	8006b04 <fabs>
 80060be:	e9dd 2304 	ldrd	r2, r3, [sp, #16]
 80060c2:	ec51 0b10 	vmov	r0, r1, d0
 80060c6:	f1b8 0f00 	cmp.w	r8, #0
 80060ca:	d12a      	bne.n	8006122 <__ieee754_pow+0x1ca>
 80060cc:	b12c      	cbz	r4, 80060da <__ieee754_pow+0x182>
 80060ce:	f8df c0b4 	ldr.w	ip, [pc, #180]	; 8006184 <__ieee754_pow+0x22c>
 80060d2:	f029 4e40 	bic.w	lr, r9, #3221225472	; 0xc0000000
 80060d6:	45e6      	cmp	lr, ip
 80060d8:	d123      	bne.n	8006122 <__ieee754_pow+0x1ca>
 80060da:	2f00      	cmp	r7, #0
 80060dc:	da05      	bge.n	80060ea <__ieee754_pow+0x192>
 80060de:	4602      	mov	r2, r0
 80060e0:	460b      	mov	r3, r1
 80060e2:	2000      	movs	r0, #0
 80060e4:	4927      	ldr	r1, [pc, #156]	; (8006184 <__ieee754_pow+0x22c>)
 80060e6:	f7fa fb7d 	bl	80007e4 <__aeabi_ddiv>
 80060ea:	f1b9 0f00 	cmp.w	r9, #0
 80060ee:	dab7      	bge.n	8006060 <__ieee754_pow+0x108>
 80060f0:	9b00      	ldr	r3, [sp, #0]
 80060f2:	f104 4440 	add.w	r4, r4, #3221225472	; 0xc0000000
 80060f6:	f504 1480 	add.w	r4, r4, #1048576	; 0x100000
 80060fa:	4323      	orrs	r3, r4
 80060fc:	d108      	bne.n	8006110 <__ieee754_pow+0x1b8>
 80060fe:	4602      	mov	r2, r0
 8006100:	460b      	mov	r3, r1
 8006102:	4610      	mov	r0, r2
 8006104:	4619      	mov	r1, r3
 8006106:	f7fa f88b 	bl	8000220 <__aeabi_dsub>
 800610a:	4602      	mov	r2, r0
 800610c:	460b      	mov	r3, r1
 800610e:	e78d      	b.n	800602c <__ieee754_pow+0xd4>
 8006110:	9b00      	ldr	r3, [sp, #0]
 8006112:	2b01      	cmp	r3, #1
 8006114:	d1a4      	bne.n	8006060 <__ieee754_pow+0x108>
 8006116:	4602      	mov	r2, r0
 8006118:	f101 4300 	add.w	r3, r1, #2147483648	; 0x80000000
 800611c:	4610      	mov	r0, r2
 800611e:	4619      	mov	r1, r3
 8006120:	e79e      	b.n	8006060 <__ieee754_pow+0x108>
 8006122:	ea4f 7cd9 	mov.w	ip, r9, lsr #31
 8006126:	f10c 35ff 	add.w	r5, ip, #4294967295
 800612a:	950a      	str	r5, [sp, #40]	; 0x28
 800612c:	9d00      	ldr	r5, [sp, #0]
 800612e:	46ac      	mov	ip, r5
 8006130:	9d0a      	ldr	r5, [sp, #40]	; 0x28
 8006132:	ea5c 0505 	orrs.w	r5, ip, r5
 8006136:	d0e4      	beq.n	8006102 <__ieee754_pow+0x1aa>
 8006138:	4b15      	ldr	r3, [pc, #84]	; (8006190 <__ieee754_pow+0x238>)
 800613a:	429e      	cmp	r6, r3
 800613c:	f340 80fc 	ble.w	8006338 <__ieee754_pow+0x3e0>
 8006140:	f103 7304 	add.w	r3, r3, #34603008	; 0x2100000
 8006144:	429e      	cmp	r6, r3
 8006146:	4b10      	ldr	r3, [pc, #64]	; (8006188 <__ieee754_pow+0x230>)
 8006148:	dd07      	ble.n	800615a <__ieee754_pow+0x202>
 800614a:	429c      	cmp	r4, r3
 800614c:	dc0a      	bgt.n	8006164 <__ieee754_pow+0x20c>
 800614e:	2f00      	cmp	r7, #0
 8006150:	da84      	bge.n	800605c <__ieee754_pow+0x104>
 8006152:	a307      	add	r3, pc, #28	; (adr r3, 8006170 <__ieee754_pow+0x218>)
 8006154:	e9d3 2300 	ldrd	r2, r3, [r3]
 8006158:	e795      	b.n	8006086 <__ieee754_pow+0x12e>
 800615a:	429c      	cmp	r4, r3
 800615c:	dbf7      	blt.n	800614e <__ieee754_pow+0x1f6>
 800615e:	4b09      	ldr	r3, [pc, #36]	; (8006184 <__ieee754_pow+0x22c>)
 8006160:	429c      	cmp	r4, r3
 8006162:	dd17      	ble.n	8006194 <__ieee754_pow+0x23c>
 8006164:	2f00      	cmp	r7, #0
 8006166:	dcf4      	bgt.n	8006152 <__ieee754_pow+0x1fa>
 8006168:	e778      	b.n	800605c <__ieee754_pow+0x104>
 800616a:	bf00      	nop
 800616c:	f3af 8000 	nop.w
 8006170:	8800759c 	.word	0x8800759c
 8006174:	7e37e43c 	.word	0x7e37e43c
 8006178:	7ff00000 	.word	0x7ff00000
 800617c:	08006dc0 	.word	0x08006dc0
 8006180:	433fffff 	.word	0x433fffff
 8006184:	3ff00000 	.word	0x3ff00000
 8006188:	3fefffff 	.word	0x3fefffff
 800618c:	3fe00000 	.word	0x3fe00000
 8006190:	41e00000 	.word	0x41e00000
 8006194:	4b64      	ldr	r3, [pc, #400]	; (8006328 <__ieee754_pow+0x3d0>)
 8006196:	2200      	movs	r2, #0
 8006198:	f7fa f842 	bl	8000220 <__aeabi_dsub>
 800619c:	a356      	add	r3, pc, #344	; (adr r3, 80062f8 <__ieee754_pow+0x3a0>)
 800619e:	e9d3 2300 	ldrd	r2, r3, [r3]
 80061a2:	4604      	mov	r4, r0
 80061a4:	460d      	mov	r5, r1
 80061a6:	f7fa f9f3 	bl	8000590 <__aeabi_dmul>
 80061aa:	a355      	add	r3, pc, #340	; (adr r3, 8006300 <__ieee754_pow+0x3a8>)
 80061ac:	e9d3 2300 	ldrd	r2, r3, [r3]
 80061b0:	4606      	mov	r6, r0
 80061b2:	460f      	mov	r7, r1
 80061b4:	4620      	mov	r0, r4
 80061b6:	4629      	mov	r1, r5
 80061b8:	f7fa f9ea 	bl	8000590 <__aeabi_dmul>
 80061bc:	4b5b      	ldr	r3, [pc, #364]	; (800632c <__ieee754_pow+0x3d4>)
 80061be:	4682      	mov	sl, r0
 80061c0:	468b      	mov	fp, r1
 80061c2:	2200      	movs	r2, #0
 80061c4:	4620      	mov	r0, r4
 80061c6:	4629      	mov	r1, r5
 80061c8:	f7fa f9e2 	bl	8000590 <__aeabi_dmul>
 80061cc:	4602      	mov	r2, r0
 80061ce:	460b      	mov	r3, r1
 80061d0:	a14d      	add	r1, pc, #308	; (adr r1, 8006308 <__ieee754_pow+0x3b0>)
 80061d2:	e9d1 0100 	ldrd	r0, r1, [r1]
 80061d6:	f7fa f823 	bl	8000220 <__aeabi_dsub>
 80061da:	4622      	mov	r2, r4
 80061dc:	462b      	mov	r3, r5
 80061de:	f7fa f9d7 	bl	8000590 <__aeabi_dmul>
 80061e2:	4602      	mov	r2, r0
 80061e4:	460b      	mov	r3, r1
 80061e6:	2000      	movs	r0, #0
 80061e8:	4951      	ldr	r1, [pc, #324]	; (8006330 <__ieee754_pow+0x3d8>)
 80061ea:	f7fa f819 	bl	8000220 <__aeabi_dsub>
 80061ee:	4622      	mov	r2, r4
 80061f0:	4680      	mov	r8, r0
 80061f2:	4689      	mov	r9, r1
 80061f4:	462b      	mov	r3, r5
 80061f6:	4620      	mov	r0, r4
 80061f8:	4629      	mov	r1, r5
 80061fa:	f7fa f9c9 	bl	8000590 <__aeabi_dmul>
 80061fe:	4602      	mov	r2, r0
 8006200:	460b      	mov	r3, r1
 8006202:	4640      	mov	r0, r8
 8006204:	4649      	mov	r1, r9
 8006206:	f7fa f9c3 	bl	8000590 <__aeabi_dmul>
 800620a:	a341      	add	r3, pc, #260	; (adr r3, 8006310 <__ieee754_pow+0x3b8>)
 800620c:	e9d3 2300 	ldrd	r2, r3, [r3]
 8006210:	f7fa f9be 	bl	8000590 <__aeabi_dmul>
 8006214:	4602      	mov	r2, r0
 8006216:	460b      	mov	r3, r1
 8006218:	4650      	mov	r0, sl
 800621a:	4659      	mov	r1, fp
 800621c:	f7fa f800 	bl	8000220 <__aeabi_dsub>
 8006220:	4602      	mov	r2, r0
 8006222:	460b      	mov	r3, r1
 8006224:	4680      	mov	r8, r0
 8006226:	4689      	mov	r9, r1
 8006228:	4630      	mov	r0, r6
 800622a:	4639      	mov	r1, r7
 800622c:	f7f9 fffa 	bl	8000224 <__adddf3>
 8006230:	2400      	movs	r4, #0
 8006232:	4632      	mov	r2, r6
 8006234:	463b      	mov	r3, r7
 8006236:	4620      	mov	r0, r4
 8006238:	460d      	mov	r5, r1
 800623a:	f7f9 fff1 	bl	8000220 <__aeabi_dsub>
 800623e:	4602      	mov	r2, r0
 8006240:	460b      	mov	r3, r1
 8006242:	4640      	mov	r0, r8
 8006244:	4649      	mov	r1, r9
 8006246:	f7f9 ffeb 	bl	8000220 <__aeabi_dsub>
 800624a:	9b00      	ldr	r3, [sp, #0]
 800624c:	9a0a      	ldr	r2, [sp, #40]	; 0x28
 800624e:	3b01      	subs	r3, #1
 8006250:	4313      	orrs	r3, r2
 8006252:	4682      	mov	sl, r0
 8006254:	468b      	mov	fp, r1
 8006256:	f040 81f1 	bne.w	800663c <__ieee754_pow+0x6e4>
 800625a:	ed9f 7b2f 	vldr	d7, [pc, #188]	; 8006318 <__ieee754_pow+0x3c0>
 800625e:	eeb0 8a47 	vmov.f32	s16, s14
 8006262:	eef0 8a67 	vmov.f32	s17, s15
 8006266:	e9dd 6702 	ldrd	r6, r7, [sp, #8]
 800626a:	2600      	movs	r6, #0
 800626c:	4632      	mov	r2, r6
 800626e:	463b      	mov	r3, r7
 8006270:	e9dd 0102 	ldrd	r0, r1, [sp, #8]
 8006274:	f7f9 ffd4 	bl	8000220 <__aeabi_dsub>
 8006278:	4622      	mov	r2, r4
 800627a:	462b      	mov	r3, r5
 800627c:	f7fa f988 	bl	8000590 <__aeabi_dmul>
 8006280:	e9dd 2302 	ldrd	r2, r3, [sp, #8]
 8006284:	4680      	mov	r8, r0
 8006286:	4689      	mov	r9, r1
 8006288:	4650      	mov	r0, sl
 800628a:	4659      	mov	r1, fp
 800628c:	f7fa f980 	bl	8000590 <__aeabi_dmul>
 8006290:	4602      	mov	r2, r0
 8006292:	460b      	mov	r3, r1
 8006294:	4640      	mov	r0, r8
 8006296:	4649      	mov	r1, r9
 8006298:	f7f9 ffc4 	bl	8000224 <__adddf3>
 800629c:	4632      	mov	r2, r6
 800629e:	463b      	mov	r3, r7
 80062a0:	4680      	mov	r8, r0
 80062a2:	4689      	mov	r9, r1
 80062a4:	4620      	mov	r0, r4
 80062a6:	4629      	mov	r1, r5
 80062a8:	f7fa f972 	bl	8000590 <__aeabi_dmul>
 80062ac:	460b      	mov	r3, r1
 80062ae:	4604      	mov	r4, r0
 80062b0:	460d      	mov	r5, r1
 80062b2:	4602      	mov	r2, r0
 80062b4:	4649      	mov	r1, r9
 80062b6:	4640      	mov	r0, r8
 80062b8:	f7f9 ffb4 	bl	8000224 <__adddf3>
 80062bc:	4b1d      	ldr	r3, [pc, #116]	; (8006334 <__ieee754_pow+0x3dc>)
 80062be:	4299      	cmp	r1, r3
 80062c0:	ec45 4b19 	vmov	d9, r4, r5
 80062c4:	4606      	mov	r6, r0
 80062c6:	460f      	mov	r7, r1
 80062c8:	468b      	mov	fp, r1
 80062ca:	f340 82fe 	ble.w	80068ca <__ieee754_pow+0x972>
 80062ce:	f101 433f 	add.w	r3, r1, #3204448256	; 0xbf000000
 80062d2:	f503 03e0 	add.w	r3, r3, #7340032	; 0x700000
 80062d6:	4303      	orrs	r3, r0
 80062d8:	f000 81f0 	beq.w	80066bc <__ieee754_pow+0x764>
 80062dc:	a310      	add	r3, pc, #64	; (adr r3, 8006320 <__ieee754_pow+0x3c8>)
 80062de:	e9d3 2300 	ldrd	r2, r3, [r3]
 80062e2:	ec51 0b18 	vmov	r0, r1, d8
 80062e6:	f7fa f953 	bl	8000590 <__aeabi_dmul>
 80062ea:	a30d      	add	r3, pc, #52	; (adr r3, 8006320 <__ieee754_pow+0x3c8>)
 80062ec:	e9d3 2300 	ldrd	r2, r3, [r3]
 80062f0:	e6cb      	b.n	800608a <__ieee754_pow+0x132>
 80062f2:	bf00      	nop
 80062f4:	f3af 8000 	nop.w
 80062f8:	60000000 	.word	0x60000000
 80062fc:	3ff71547 	.word	0x3ff71547
 8006300:	f85ddf44 	.word	0xf85ddf44
 8006304:	3e54ae0b 	.word	0x3e54ae0b
 8006308:	55555555 	.word	0x55555555
 800630c:	3fd55555 	.word	0x3fd55555
 8006310:	652b82fe 	.word	0x652b82fe
 8006314:	3ff71547 	.word	0x3ff71547
 8006318:	00000000 	.word	0x00000000
 800631c:	bff00000 	.word	0xbff00000
 8006320:	8800759c 	.word	0x8800759c
 8006324:	7e37e43c 	.word	0x7e37e43c
 8006328:	3ff00000 	.word	0x3ff00000
 800632c:	3fd00000 	.word	0x3fd00000
 8006330:	3fe00000 	.word	0x3fe00000
 8006334:	408fffff 	.word	0x408fffff
 8006338:	4bd7      	ldr	r3, [pc, #860]	; (8006698 <__ieee754_pow+0x740>)
 800633a:	ea03 0309 	and.w	r3, r3, r9
 800633e:	2200      	movs	r2, #0
 8006340:	b92b      	cbnz	r3, 800634e <__ieee754_pow+0x3f6>
 8006342:	4bd6      	ldr	r3, [pc, #856]	; (800669c <__ieee754_pow+0x744>)
 8006344:	f7fa f924 	bl	8000590 <__aeabi_dmul>
 8006348:	f06f 0234 	mvn.w	r2, #52	; 0x34
 800634c:	460c      	mov	r4, r1
 800634e:	1523      	asrs	r3, r4, #20
 8006350:	f2a3 33ff 	subw	r3, r3, #1023	; 0x3ff
 8006354:	4413      	add	r3, r2
 8006356:	9309      	str	r3, [sp, #36]	; 0x24
 8006358:	4bd1      	ldr	r3, [pc, #836]	; (80066a0 <__ieee754_pow+0x748>)
 800635a:	f3c4 0413 	ubfx	r4, r4, #0, #20
 800635e:	f044 557f 	orr.w	r5, r4, #1069547520	; 0x3fc00000
 8006362:	429c      	cmp	r4, r3
 8006364:	f445 1540 	orr.w	r5, r5, #3145728	; 0x300000
 8006368:	dd08      	ble.n	800637c <__ieee754_pow+0x424>
 800636a:	4bce      	ldr	r3, [pc, #824]	; (80066a4 <__ieee754_pow+0x74c>)
 800636c:	429c      	cmp	r4, r3
 800636e:	f340 8163 	ble.w	8006638 <__ieee754_pow+0x6e0>
 8006372:	9b09      	ldr	r3, [sp, #36]	; 0x24
 8006374:	3301      	adds	r3, #1
 8006376:	9309      	str	r3, [sp, #36]	; 0x24
 8006378:	f5a5 1580 	sub.w	r5, r5, #1048576	; 0x100000
 800637c:	2400      	movs	r4, #0
 800637e:	00e3      	lsls	r3, r4, #3
 8006380:	930b      	str	r3, [sp, #44]	; 0x2c
 8006382:	4bc9      	ldr	r3, [pc, #804]	; (80066a8 <__ieee754_pow+0x750>)
 8006384:	eb03 03c4 	add.w	r3, r3, r4, lsl #3
 8006388:	ed93 7b00 	vldr	d7, [r3]
 800638c:	4629      	mov	r1, r5
 800638e:	ec53 2b17 	vmov	r2, r3, d7
 8006392:	eeb0 8a47 	vmov.f32	s16, s14
 8006396:	eef0 8a67 	vmov.f32	s17, s15
 800639a:	4682      	mov	sl, r0
 800639c:	f7f9 ff40 	bl	8000220 <__aeabi_dsub>
 80063a0:	4652      	mov	r2, sl
 80063a2:	4606      	mov	r6, r0
 80063a4:	460f      	mov	r7, r1
 80063a6:	462b      	mov	r3, r5
 80063a8:	ec51 0b18 	vmov	r0, r1, d8
 80063ac:	f7f9 ff3a 	bl	8000224 <__adddf3>
 80063b0:	4602      	mov	r2, r0
 80063b2:	460b      	mov	r3, r1
 80063b4:	2000      	movs	r0, #0
 80063b6:	49bd      	ldr	r1, [pc, #756]	; (80066ac <__ieee754_pow+0x754>)
 80063b8:	f7fa fa14 	bl	80007e4 <__aeabi_ddiv>
 80063bc:	ec41 0b19 	vmov	d9, r0, r1
 80063c0:	4602      	mov	r2, r0
 80063c2:	460b      	mov	r3, r1
 80063c4:	4630      	mov	r0, r6
 80063c6:	4639      	mov	r1, r7
 80063c8:	f7fa f8e2 	bl	8000590 <__aeabi_dmul>
 80063cc:	e9cd 0106 	strd	r0, r1, [sp, #24]
 80063d0:	e9dd 2306 	ldrd	r2, r3, [sp, #24]
 80063d4:	e9cd 2304 	strd	r2, r3, [sp, #16]
 80063d8:	2300      	movs	r3, #0
 80063da:	9304      	str	r3, [sp, #16]
 80063dc:	e9dd 8904 	ldrd	r8, r9, [sp, #16]
 80063e0:	46ab      	mov	fp, r5
 80063e2:	106d      	asrs	r5, r5, #1
 80063e4:	f045 5500 	orr.w	r5, r5, #536870912	; 0x20000000
 80063e8:	f505 2500 	add.w	r5, r5, #524288	; 0x80000
 80063ec:	eb05 4384 	add.w	r3, r5, r4, lsl #18
 80063f0:	2200      	movs	r2, #0
 80063f2:	4640      	mov	r0, r8
 80063f4:	4649      	mov	r1, r9
 80063f6:	4614      	mov	r4, r2
 80063f8:	461d      	mov	r5, r3
 80063fa:	f7fa f8c9 	bl	8000590 <__aeabi_dmul>
 80063fe:	4602      	mov	r2, r0
 8006400:	460b      	mov	r3, r1
 8006402:	4630      	mov	r0, r6
 8006404:	4639      	mov	r1, r7
 8006406:	f7f9 ff0b 	bl	8000220 <__aeabi_dsub>
 800640a:	ec53 2b18 	vmov	r2, r3, d8
 800640e:	4606      	mov	r6, r0
 8006410:	460f      	mov	r7, r1
 8006412:	4620      	mov	r0, r4
 8006414:	4629      	mov	r1, r5
 8006416:	f7f9 ff03 	bl	8000220 <__aeabi_dsub>
 800641a:	4602      	mov	r2, r0
 800641c:	460b      	mov	r3, r1
 800641e:	4650      	mov	r0, sl
 8006420:	4659      	mov	r1, fp
 8006422:	f7f9 fefd 	bl	8000220 <__aeabi_dsub>
 8006426:	4642      	mov	r2, r8
 8006428:	464b      	mov	r3, r9
 800642a:	f7fa f8b1 	bl	8000590 <__aeabi_dmul>
 800642e:	4602      	mov	r2, r0
 8006430:	460b      	mov	r3, r1
 8006432:	4630      	mov	r0, r6
 8006434:	4639      	mov	r1, r7
 8006436:	f7f9 fef3 	bl	8000220 <__aeabi_dsub>
 800643a:	ec53 2b19 	vmov	r2, r3, d9
 800643e:	f7fa f8a7 	bl	8000590 <__aeabi_dmul>
 8006442:	e9dd 2306 	ldrd	r2, r3, [sp, #24]
 8006446:	ec41 0b18 	vmov	d8, r0, r1
 800644a:	4610      	mov	r0, r2
 800644c:	4619      	mov	r1, r3
 800644e:	f7fa f89f 	bl	8000590 <__aeabi_dmul>
 8006452:	a37d      	add	r3, pc, #500	; (adr r3, 8006648 <__ieee754_pow+0x6f0>)
 8006454:	e9d3 2300 	ldrd	r2, r3, [r3]
 8006458:	4604      	mov	r4, r0
 800645a:	460d      	mov	r5, r1
 800645c:	f7fa f898 	bl	8000590 <__aeabi_dmul>
 8006460:	a37b      	add	r3, pc, #492	; (adr r3, 8006650 <__ieee754_pow+0x6f8>)
 8006462:	e9d3 2300 	ldrd	r2, r3, [r3]
 8006466:	f7f9 fedd 	bl	8000224 <__adddf3>
 800646a:	4622      	mov	r2, r4
 800646c:	462b      	mov	r3, r5
 800646e:	f7fa f88f 	bl	8000590 <__aeabi_dmul>
 8006472:	a379      	add	r3, pc, #484	; (adr r3, 8006658 <__ieee754_pow+0x700>)
 8006474:	e9d3 2300 	ldrd	r2, r3, [r3]
 8006478:	f7f9 fed4 	bl	8000224 <__adddf3>
 800647c:	4622      	mov	r2, r4
 800647e:	462b      	mov	r3, r5
 8006480:	f7fa f886 	bl	8000590 <__aeabi_dmul>
 8006484:	a376      	add	r3, pc, #472	; (adr r3, 8006660 <__ieee754_pow+0x708>)
 8006486:	e9d3 2300 	ldrd	r2, r3, [r3]
 800648a:	f7f9 fecb 	bl	8000224 <__adddf3>
 800648e:	4622      	mov	r2, r4
 8006490:	462b      	mov	r3, r5
 8006492:	f7fa f87d 	bl	8000590 <__aeabi_dmul>
 8006496:	a374      	add	r3, pc, #464	; (adr r3, 8006668 <__ieee754_pow+0x710>)
 8006498:	e9d3 2300 	ldrd	r2, r3, [r3]
 800649c:	f7f9 fec2 	bl	8000224 <__adddf3>
 80064a0:	4622      	mov	r2, r4
 80064a2:	462b      	mov	r3, r5
 80064a4:	f7fa f874 	bl	8000590 <__aeabi_dmul>
 80064a8:	a371      	add	r3, pc, #452	; (adr r3, 8006670 <__ieee754_pow+0x718>)
 80064aa:	e9d3 2300 	ldrd	r2, r3, [r3]
 80064ae:	f7f9 feb9 	bl	8000224 <__adddf3>
 80064b2:	4622      	mov	r2, r4
 80064b4:	4606      	mov	r6, r0
 80064b6:	460f      	mov	r7, r1
 80064b8:	462b      	mov	r3, r5
 80064ba:	4620      	mov	r0, r4
 80064bc:	4629      	mov	r1, r5
 80064be:	f7fa f867 	bl	8000590 <__aeabi_dmul>
 80064c2:	4602      	mov	r2, r0
 80064c4:	460b      	mov	r3, r1
 80064c6:	4630      	mov	r0, r6
 80064c8:	4639      	mov	r1, r7
 80064ca:	f7fa f861 	bl	8000590 <__aeabi_dmul>
 80064ce:	4642      	mov	r2, r8
 80064d0:	4604      	mov	r4, r0
 80064d2:	460d      	mov	r5, r1
 80064d4:	464b      	mov	r3, r9
 80064d6:	e9dd 0106 	ldrd	r0, r1, [sp, #24]
 80064da:	f7f9 fea3 	bl	8000224 <__adddf3>
 80064de:	ec53 2b18 	vmov	r2, r3, d8
 80064e2:	f7fa f855 	bl	8000590 <__aeabi_dmul>
 80064e6:	4622      	mov	r2, r4
 80064e8:	462b      	mov	r3, r5
 80064ea:	f7f9 fe9b 	bl	8000224 <__adddf3>
 80064ee:	4642      	mov	r2, r8
 80064f0:	4682      	mov	sl, r0
 80064f2:	468b      	mov	fp, r1
 80064f4:	464b      	mov	r3, r9
 80064f6:	4640      	mov	r0, r8
 80064f8:	4649      	mov	r1, r9
 80064fa:	f7fa f849 	bl	8000590 <__aeabi_dmul>
 80064fe:	4b6c      	ldr	r3, [pc, #432]	; (80066b0 <__ieee754_pow+0x758>)
 8006500:	2200      	movs	r2, #0
 8006502:	4606      	mov	r6, r0
 8006504:	460f      	mov	r7, r1
 8006506:	f7f9 fe8d 	bl	8000224 <__adddf3>
 800650a:	4652      	mov	r2, sl
 800650c:	465b      	mov	r3, fp
 800650e:	f7f9 fe89 	bl	8000224 <__adddf3>
 8006512:	9c04      	ldr	r4, [sp, #16]
 8006514:	460d      	mov	r5, r1
 8006516:	4622      	mov	r2, r4
 8006518:	460b      	mov	r3, r1
 800651a:	4640      	mov	r0, r8
 800651c:	4649      	mov	r1, r9
 800651e:	f7fa f837 	bl	8000590 <__aeabi_dmul>
 8006522:	4b63      	ldr	r3, [pc, #396]	; (80066b0 <__ieee754_pow+0x758>)
 8006524:	4680      	mov	r8, r0
 8006526:	4689      	mov	r9, r1
 8006528:	2200      	movs	r2, #0
 800652a:	4620      	mov	r0, r4
 800652c:	4629      	mov	r1, r5
 800652e:	f7f9 fe77 	bl	8000220 <__aeabi_dsub>
 8006532:	4632      	mov	r2, r6
 8006534:	463b      	mov	r3, r7
 8006536:	f7f9 fe73 	bl	8000220 <__aeabi_dsub>
 800653a:	4602      	mov	r2, r0
 800653c:	460b      	mov	r3, r1
 800653e:	4650      	mov	r0, sl
 8006540:	4659      	mov	r1, fp
 8006542:	f7f9 fe6d 	bl	8000220 <__aeabi_dsub>
 8006546:	e9dd 2306 	ldrd	r2, r3, [sp, #24]
 800654a:	f7fa f821 	bl	8000590 <__aeabi_dmul>
 800654e:	4622      	mov	r2, r4
 8006550:	4606      	mov	r6, r0
 8006552:	460f      	mov	r7, r1
 8006554:	462b      	mov	r3, r5
 8006556:	ec51 0b18 	vmov	r0, r1, d8
 800655a:	f7fa f819 	bl	8000590 <__aeabi_dmul>
 800655e:	4602      	mov	r2, r0
 8006560:	460b      	mov	r3, r1
 8006562:	4630      	mov	r0, r6
 8006564:	4639      	mov	r1, r7
 8006566:	f7f9 fe5d 	bl	8000224 <__adddf3>
 800656a:	4606      	mov	r6, r0
 800656c:	460f      	mov	r7, r1
 800656e:	4602      	mov	r2, r0
 8006570:	460b      	mov	r3, r1
 8006572:	4640      	mov	r0, r8
 8006574:	4649      	mov	r1, r9
 8006576:	f7f9 fe55 	bl	8000224 <__adddf3>
 800657a:	9c04      	ldr	r4, [sp, #16]
 800657c:	a33e      	add	r3, pc, #248	; (adr r3, 8006678 <__ieee754_pow+0x720>)
 800657e:	e9d3 2300 	ldrd	r2, r3, [r3]
 8006582:	4620      	mov	r0, r4
 8006584:	460d      	mov	r5, r1
 8006586:	f7fa f803 	bl	8000590 <__aeabi_dmul>
 800658a:	4642      	mov	r2, r8
 800658c:	ec41 0b18 	vmov	d8, r0, r1
 8006590:	464b      	mov	r3, r9
 8006592:	4620      	mov	r0, r4
 8006594:	4629      	mov	r1, r5
 8006596:	f7f9 fe43 	bl	8000220 <__aeabi_dsub>
 800659a:	4602      	mov	r2, r0
 800659c:	460b      	mov	r3, r1
 800659e:	4630      	mov	r0, r6
 80065a0:	4639      	mov	r1, r7
 80065a2:	f7f9 fe3d 	bl	8000220 <__aeabi_dsub>
 80065a6:	a336      	add	r3, pc, #216	; (adr r3, 8006680 <__ieee754_pow+0x728>)
 80065a8:	e9d3 2300 	ldrd	r2, r3, [r3]
 80065ac:	f7f9 fff0 	bl	8000590 <__aeabi_dmul>
 80065b0:	a335      	add	r3, pc, #212	; (adr r3, 8006688 <__ieee754_pow+0x730>)
 80065b2:	e9d3 2300 	ldrd	r2, r3, [r3]
 80065b6:	4606      	mov	r6, r0
 80065b8:	460f      	mov	r7, r1
 80065ba:	4620      	mov	r0, r4
 80065bc:	4629      	mov	r1, r5
 80065be:	f7f9 ffe7 	bl	8000590 <__aeabi_dmul>
 80065c2:	4602      	mov	r2, r0
 80065c4:	460b      	mov	r3, r1
 80065c6:	4630      	mov	r0, r6
 80065c8:	4639      	mov	r1, r7
 80065ca:	f7f9 fe2b 	bl	8000224 <__adddf3>
 80065ce:	9a0b      	ldr	r2, [sp, #44]	; 0x2c
 80065d0:	4b38      	ldr	r3, [pc, #224]	; (80066b4 <__ieee754_pow+0x75c>)
 80065d2:	4413      	add	r3, r2
 80065d4:	e9d3 2300 	ldrd	r2, r3, [r3]
 80065d8:	f7f9 fe24 	bl	8000224 <__adddf3>
 80065dc:	4682      	mov	sl, r0
 80065de:	9809      	ldr	r0, [sp, #36]	; 0x24
 80065e0:	468b      	mov	fp, r1
 80065e2:	f7f9 ff6b 	bl	80004bc <__aeabi_i2d>
 80065e6:	9a0b      	ldr	r2, [sp, #44]	; 0x2c
 80065e8:	4b33      	ldr	r3, [pc, #204]	; (80066b8 <__ieee754_pow+0x760>)
 80065ea:	4413      	add	r3, r2
 80065ec:	e9d3 8900 	ldrd	r8, r9, [r3]
 80065f0:	4606      	mov	r6, r0
 80065f2:	460f      	mov	r7, r1
 80065f4:	4652      	mov	r2, sl
 80065f6:	465b      	mov	r3, fp
 80065f8:	ec51 0b18 	vmov	r0, r1, d8
 80065fc:	f7f9 fe12 	bl	8000224 <__adddf3>
 8006600:	4642      	mov	r2, r8
 8006602:	464b      	mov	r3, r9
 8006604:	f7f9 fe0e 	bl	8000224 <__adddf3>
 8006608:	4632      	mov	r2, r6
 800660a:	463b      	mov	r3, r7
 800660c:	f7f9 fe0a 	bl	8000224 <__adddf3>
 8006610:	9c04      	ldr	r4, [sp, #16]
 8006612:	4632      	mov	r2, r6
 8006614:	463b      	mov	r3, r7
 8006616:	4620      	mov	r0, r4
 8006618:	460d      	mov	r5, r1
 800661a:	f7f9 fe01 	bl	8000220 <__aeabi_dsub>
 800661e:	4642      	mov	r2, r8
 8006620:	464b      	mov	r3, r9
 8006622:	f7f9 fdfd 	bl	8000220 <__aeabi_dsub>
 8006626:	ec53 2b18 	vmov	r2, r3, d8
 800662a:	f7f9 fdf9 	bl	8000220 <__aeabi_dsub>
 800662e:	4602      	mov	r2, r0
 8006630:	460b      	mov	r3, r1
 8006632:	4650      	mov	r0, sl
 8006634:	4659      	mov	r1, fp
 8006636:	e606      	b.n	8006246 <__ieee754_pow+0x2ee>
 8006638:	2401      	movs	r4, #1
 800663a:	e6a0      	b.n	800637e <__ieee754_pow+0x426>
 800663c:	ed9f 7b14 	vldr	d7, [pc, #80]	; 8006690 <__ieee754_pow+0x738>
 8006640:	e60d      	b.n	800625e <__ieee754_pow+0x306>
 8006642:	bf00      	nop
 8006644:	f3af 8000 	nop.w
 8006648:	4a454eef 	.word	0x4a454eef
 800664c:	3fca7e28 	.word	0x3fca7e28
 8006650:	93c9db65 	.word	0x93c9db65
 8006654:	3fcd864a 	.word	0x3fcd864a
 8006658:	a91d4101 	.word	0xa91d4101
 800665c:	3fd17460 	.word	0x3fd17460
 8006660:	518f264d 	.word	0x518f264d
 8006664:	3fd55555 	.word	0x3fd55555
 8006668:	db6fabff 	.word	0xdb6fabff
 800666c:	3fdb6db6 	.word	0x3fdb6db6
 8006670:	33333303 	.word	0x33333303
 8006674:	3fe33333 	.word	0x3fe33333
 8006678:	e0000000 	.word	0xe0000000
 800667c:	3feec709 	.word	0x3feec709
 8006680:	dc3a03fd 	.word	0xdc3a03fd
 8006684:	3feec709 	.word	0x3feec709
 8006688:	145b01f5 	.word	0x145b01f5
 800668c:	be3e2fe0 	.word	0xbe3e2fe0
 8006690:	00000000 	.word	0x00000000
 8006694:	3ff00000 	.word	0x3ff00000
 8006698:	7ff00000 	.word	0x7ff00000
 800669c:	43400000 	.word	0x43400000
 80066a0:	0003988e 	.word	0x0003988e
 80066a4:	000bb679 	.word	0x000bb679
 80066a8:	08006dc8 	.word	0x08006dc8
 80066ac:	3ff00000 	.word	0x3ff00000
 80066b0:	40080000 	.word	0x40080000
 80066b4:	08006de8 	.word	0x08006de8
 80066b8:	08006dd8 	.word	0x08006dd8
 80066bc:	a3b5      	add	r3, pc, #724	; (adr r3, 8006994 <__ieee754_pow+0xa3c>)
 80066be:	e9d3 2300 	ldrd	r2, r3, [r3]
 80066c2:	4640      	mov	r0, r8
 80066c4:	4649      	mov	r1, r9
 80066c6:	f7f9 fdad 	bl	8000224 <__adddf3>
 80066ca:	4622      	mov	r2, r4
 80066cc:	ec41 0b1a 	vmov	d10, r0, r1
 80066d0:	462b      	mov	r3, r5
 80066d2:	4630      	mov	r0, r6
 80066d4:	4639      	mov	r1, r7
 80066d6:	f7f9 fda3 	bl	8000220 <__aeabi_dsub>
 80066da:	4602      	mov	r2, r0
 80066dc:	460b      	mov	r3, r1
 80066de:	ec51 0b1a 	vmov	r0, r1, d10
 80066e2:	f7fa f9e5 	bl	8000ab0 <__aeabi_dcmpgt>
 80066e6:	2800      	cmp	r0, #0
 80066e8:	f47f adf8 	bne.w	80062dc <__ieee754_pow+0x384>
 80066ec:	4aa4      	ldr	r2, [pc, #656]	; (8006980 <__ieee754_pow+0xa28>)
 80066ee:	f02b 4300 	bic.w	r3, fp, #2147483648	; 0x80000000
 80066f2:	4293      	cmp	r3, r2
 80066f4:	f340 810b 	ble.w	800690e <__ieee754_pow+0x9b6>
 80066f8:	151b      	asrs	r3, r3, #20
 80066fa:	f44f 1a80 	mov.w	sl, #1048576	; 0x100000
 80066fe:	f2a3 33fe 	subw	r3, r3, #1022	; 0x3fe
 8006702:	fa4a f303 	asr.w	r3, sl, r3
 8006706:	445b      	add	r3, fp
 8006708:	f3c3 520a 	ubfx	r2, r3, #20, #11
 800670c:	4e9d      	ldr	r6, [pc, #628]	; (8006984 <__ieee754_pow+0xa2c>)
 800670e:	f2a2 32ff 	subw	r2, r2, #1023	; 0x3ff
 8006712:	4116      	asrs	r6, r2
 8006714:	f3c3 0a13 	ubfx	sl, r3, #0, #20
 8006718:	2000      	movs	r0, #0
 800671a:	ea23 0106 	bic.w	r1, r3, r6
 800671e:	f1c2 0214 	rsb	r2, r2, #20
 8006722:	f44a 1a80 	orr.w	sl, sl, #1048576	; 0x100000
 8006726:	fa4a fa02 	asr.w	sl, sl, r2
 800672a:	f1bb 0f00 	cmp.w	fp, #0
 800672e:	4602      	mov	r2, r0
 8006730:	460b      	mov	r3, r1
 8006732:	4620      	mov	r0, r4
 8006734:	4629      	mov	r1, r5
 8006736:	bfb8      	it	lt
 8006738:	f1ca 0a00 	rsblt	sl, sl, #0
 800673c:	f7f9 fd70 	bl	8000220 <__aeabi_dsub>
 8006740:	ec41 0b19 	vmov	d9, r0, r1
 8006744:	4642      	mov	r2, r8
 8006746:	464b      	mov	r3, r9
 8006748:	ec51 0b19 	vmov	r0, r1, d9
 800674c:	f7f9 fd6a 	bl	8000224 <__adddf3>
 8006750:	2400      	movs	r4, #0
 8006752:	a379      	add	r3, pc, #484	; (adr r3, 8006938 <__ieee754_pow+0x9e0>)
 8006754:	e9d3 2300 	ldrd	r2, r3, [r3]
 8006758:	4620      	mov	r0, r4
 800675a:	460d      	mov	r5, r1
 800675c:	f7f9 ff18 	bl	8000590 <__aeabi_dmul>
 8006760:	ec53 2b19 	vmov	r2, r3, d9
 8006764:	4606      	mov	r6, r0
 8006766:	460f      	mov	r7, r1
 8006768:	4620      	mov	r0, r4
 800676a:	4629      	mov	r1, r5
 800676c:	f7f9 fd58 	bl	8000220 <__aeabi_dsub>
 8006770:	4602      	mov	r2, r0
 8006772:	460b      	mov	r3, r1
 8006774:	4640      	mov	r0, r8
 8006776:	4649      	mov	r1, r9
 8006778:	f7f9 fd52 	bl	8000220 <__aeabi_dsub>
 800677c:	a370      	add	r3, pc, #448	; (adr r3, 8006940 <__ieee754_pow+0x9e8>)
 800677e:	e9d3 2300 	ldrd	r2, r3, [r3]
 8006782:	f7f9 ff05 	bl	8000590 <__aeabi_dmul>
 8006786:	a370      	add	r3, pc, #448	; (adr r3, 8006948 <__ieee754_pow+0x9f0>)
 8006788:	e9d3 2300 	ldrd	r2, r3, [r3]
 800678c:	4680      	mov	r8, r0
 800678e:	4689      	mov	r9, r1
 8006790:	4620      	mov	r0, r4
 8006792:	4629      	mov	r1, r5
 8006794:	f7f9 fefc 	bl	8000590 <__aeabi_dmul>
 8006798:	4602      	mov	r2, r0
 800679a:	460b      	mov	r3, r1
 800679c:	4640      	mov	r0, r8
 800679e:	4649      	mov	r1, r9
 80067a0:	f7f9 fd40 	bl	8000224 <__adddf3>
 80067a4:	4604      	mov	r4, r0
 80067a6:	460d      	mov	r5, r1
 80067a8:	4602      	mov	r2, r0
 80067aa:	460b      	mov	r3, r1
 80067ac:	4630      	mov	r0, r6
 80067ae:	4639      	mov	r1, r7
 80067b0:	f7f9 fd38 	bl	8000224 <__adddf3>
 80067b4:	4632      	mov	r2, r6
 80067b6:	463b      	mov	r3, r7
 80067b8:	4680      	mov	r8, r0
 80067ba:	4689      	mov	r9, r1
 80067bc:	f7f9 fd30 	bl	8000220 <__aeabi_dsub>
 80067c0:	4602      	mov	r2, r0
 80067c2:	460b      	mov	r3, r1
 80067c4:	4620      	mov	r0, r4
 80067c6:	4629      	mov	r1, r5
 80067c8:	f7f9 fd2a 	bl	8000220 <__aeabi_dsub>
 80067cc:	4642      	mov	r2, r8
 80067ce:	4606      	mov	r6, r0
 80067d0:	460f      	mov	r7, r1
 80067d2:	464b      	mov	r3, r9
 80067d4:	4640      	mov	r0, r8
 80067d6:	4649      	mov	r1, r9
 80067d8:	f7f9 feda 	bl	8000590 <__aeabi_dmul>
 80067dc:	a35c      	add	r3, pc, #368	; (adr r3, 8006950 <__ieee754_pow+0x9f8>)
 80067de:	e9d3 2300 	ldrd	r2, r3, [r3]
 80067e2:	4604      	mov	r4, r0
 80067e4:	460d      	mov	r5, r1
 80067e6:	f7f9 fed3 	bl	8000590 <__aeabi_dmul>
 80067ea:	a35b      	add	r3, pc, #364	; (adr r3, 8006958 <__ieee754_pow+0xa00>)
 80067ec:	e9d3 2300 	ldrd	r2, r3, [r3]
 80067f0:	f7f9 fd16 	bl	8000220 <__aeabi_dsub>
 80067f4:	4622      	mov	r2, r4
 80067f6:	462b      	mov	r3, r5
 80067f8:	f7f9 feca 	bl	8000590 <__aeabi_dmul>
 80067fc:	a358      	add	r3, pc, #352	; (adr r3, 8006960 <__ieee754_pow+0xa08>)
 80067fe:	e9d3 2300 	ldrd	r2, r3, [r3]
 8006802:	f7f9 fd0f 	bl	8000224 <__adddf3>
 8006806:	4622      	mov	r2, r4
 8006808:	462b      	mov	r3, r5
 800680a:	f7f9 fec1 	bl	8000590 <__aeabi_dmul>
 800680e:	a356      	add	r3, pc, #344	; (adr r3, 8006968 <__ieee754_pow+0xa10>)
 8006810:	e9d3 2300 	ldrd	r2, r3, [r3]
 8006814:	f7f9 fd04 	bl	8000220 <__aeabi_dsub>
 8006818:	4622      	mov	r2, r4
 800681a:	462b      	mov	r3, r5
 800681c:	f7f9 feb8 	bl	8000590 <__aeabi_dmul>
 8006820:	a353      	add	r3, pc, #332	; (adr r3, 8006970 <__ieee754_pow+0xa18>)
 8006822:	e9d3 2300 	ldrd	r2, r3, [r3]
 8006826:	f7f9 fcfd 	bl	8000224 <__adddf3>
 800682a:	4622      	mov	r2, r4
 800682c:	462b      	mov	r3, r5
 800682e:	f7f9 feaf 	bl	8000590 <__aeabi_dmul>
 8006832:	4602      	mov	r2, r0
 8006834:	460b      	mov	r3, r1
 8006836:	4640      	mov	r0, r8
 8006838:	4649      	mov	r1, r9
 800683a:	f7f9 fcf1 	bl	8000220 <__aeabi_dsub>
 800683e:	4604      	mov	r4, r0
 8006840:	460d      	mov	r5, r1
 8006842:	4602      	mov	r2, r0
 8006844:	460b      	mov	r3, r1
 8006846:	4640      	mov	r0, r8
 8006848:	4649      	mov	r1, r9
 800684a:	f7f9 fea1 	bl	8000590 <__aeabi_dmul>
 800684e:	2200      	movs	r2, #0
 8006850:	ec41 0b19 	vmov	d9, r0, r1
 8006854:	f04f 4380 	mov.w	r3, #1073741824	; 0x40000000
 8006858:	4620      	mov	r0, r4
 800685a:	4629      	mov	r1, r5
 800685c:	f7f9 fce0 	bl	8000220 <__aeabi_dsub>
 8006860:	4602      	mov	r2, r0
 8006862:	460b      	mov	r3, r1
 8006864:	ec51 0b19 	vmov	r0, r1, d9
 8006868:	f7f9 ffbc 	bl	80007e4 <__aeabi_ddiv>
 800686c:	4632      	mov	r2, r6
 800686e:	4604      	mov	r4, r0
 8006870:	460d      	mov	r5, r1
 8006872:	463b      	mov	r3, r7
 8006874:	4640      	mov	r0, r8
 8006876:	4649      	mov	r1, r9
 8006878:	f7f9 fe8a 	bl	8000590 <__aeabi_dmul>
 800687c:	4632      	mov	r2, r6
 800687e:	463b      	mov	r3, r7
 8006880:	f7f9 fcd0 	bl	8000224 <__adddf3>
 8006884:	4602      	mov	r2, r0
 8006886:	460b      	mov	r3, r1
 8006888:	4620      	mov	r0, r4
 800688a:	4629      	mov	r1, r5
 800688c:	f7f9 fcc8 	bl	8000220 <__aeabi_dsub>
 8006890:	4642      	mov	r2, r8
 8006892:	464b      	mov	r3, r9
 8006894:	f7f9 fcc4 	bl	8000220 <__aeabi_dsub>
 8006898:	460b      	mov	r3, r1
 800689a:	4602      	mov	r2, r0
 800689c:	493a      	ldr	r1, [pc, #232]	; (8006988 <__ieee754_pow+0xa30>)
 800689e:	2000      	movs	r0, #0
 80068a0:	f7f9 fcbe 	bl	8000220 <__aeabi_dsub>
 80068a4:	e9cd 0100 	strd	r0, r1, [sp]
 80068a8:	9b01      	ldr	r3, [sp, #4]
 80068aa:	eb03 530a 	add.w	r3, r3, sl, lsl #20
 80068ae:	f5b3 1f80 	cmp.w	r3, #1048576	; 0x100000
 80068b2:	da2f      	bge.n	8006914 <__ieee754_pow+0x9bc>
 80068b4:	4650      	mov	r0, sl
 80068b6:	ed9d 0b00 	vldr	d0, [sp]
 80068ba:	f000 f9cd 	bl	8006c58 <scalbn>
 80068be:	ec51 0b10 	vmov	r0, r1, d0
 80068c2:	ec53 2b18 	vmov	r2, r3, d8
 80068c6:	f7ff bbe0 	b.w	800608a <__ieee754_pow+0x132>
 80068ca:	4b30      	ldr	r3, [pc, #192]	; (800698c <__ieee754_pow+0xa34>)
 80068cc:	f021 4600 	bic.w	r6, r1, #2147483648	; 0x80000000
 80068d0:	429e      	cmp	r6, r3
 80068d2:	f77f af0b 	ble.w	80066ec <__ieee754_pow+0x794>
 80068d6:	4b2e      	ldr	r3, [pc, #184]	; (8006990 <__ieee754_pow+0xa38>)
 80068d8:	440b      	add	r3, r1
 80068da:	4303      	orrs	r3, r0
 80068dc:	d00b      	beq.n	80068f6 <__ieee754_pow+0x99e>
 80068de:	a326      	add	r3, pc, #152	; (adr r3, 8006978 <__ieee754_pow+0xa20>)
 80068e0:	e9d3 2300 	ldrd	r2, r3, [r3]
 80068e4:	ec51 0b18 	vmov	r0, r1, d8
 80068e8:	f7f9 fe52 	bl	8000590 <__aeabi_dmul>
 80068ec:	a322      	add	r3, pc, #136	; (adr r3, 8006978 <__ieee754_pow+0xa20>)
 80068ee:	e9d3 2300 	ldrd	r2, r3, [r3]
 80068f2:	f7ff bbca 	b.w	800608a <__ieee754_pow+0x132>
 80068f6:	4622      	mov	r2, r4
 80068f8:	462b      	mov	r3, r5
 80068fa:	f7f9 fc91 	bl	8000220 <__aeabi_dsub>
 80068fe:	4642      	mov	r2, r8
 8006900:	464b      	mov	r3, r9
 8006902:	f7fa f8cb 	bl	8000a9c <__aeabi_dcmpge>
 8006906:	2800      	cmp	r0, #0
 8006908:	f43f aef0 	beq.w	80066ec <__ieee754_pow+0x794>
 800690c:	e7e7      	b.n	80068de <__ieee754_pow+0x986>
 800690e:	f04f 0a00 	mov.w	sl, #0
 8006912:	e717      	b.n	8006744 <__ieee754_pow+0x7ec>
 8006914:	e9dd 0100 	ldrd	r0, r1, [sp]
 8006918:	4619      	mov	r1, r3
 800691a:	e7d2      	b.n	80068c2 <__ieee754_pow+0x96a>
 800691c:	491a      	ldr	r1, [pc, #104]	; (8006988 <__ieee754_pow+0xa30>)
 800691e:	2000      	movs	r0, #0
 8006920:	f7ff bb9e 	b.w	8006060 <__ieee754_pow+0x108>
 8006924:	e9dd 0102 	ldrd	r0, r1, [sp, #8]
 8006928:	f7ff bb9a 	b.w	8006060 <__ieee754_pow+0x108>
 800692c:	9000      	str	r0, [sp, #0]
 800692e:	f7ff bb76 	b.w	800601e <__ieee754_pow+0xc6>
 8006932:	2100      	movs	r1, #0
 8006934:	f7ff bb60 	b.w	8005ff8 <__ieee754_pow+0xa0>
 8006938:	00000000 	.word	0x00000000
 800693c:	3fe62e43 	.word	0x3fe62e43
 8006940:	fefa39ef 	.word	0xfefa39ef
 8006944:	3fe62e42 	.word	0x3fe62e42
 8006948:	0ca86c39 	.word	0x0ca86c39
 800694c:	be205c61 	.word	0xbe205c61
 8006950:	72bea4d0 	.word	0x72bea4d0
 8006954:	3e663769 	.word	0x3e663769
 8006958:	c5d26bf1 	.word	0xc5d26bf1
 800695c:	3ebbbd41 	.word	0x3ebbbd41
 8006960:	af25de2c 	.word	0xaf25de2c
 8006964:	3f11566a 	.word	0x3f11566a
 8006968:	16bebd93 	.word	0x16bebd93
 800696c:	3f66c16c 	.word	0x3f66c16c
 8006970:	5555553e 	.word	0x5555553e
 8006974:	3fc55555 	.word	0x3fc55555
 8006978:	c2f8f359 	.word	0xc2f8f359
 800697c:	01a56e1f 	.word	0x01a56e1f
 8006980:	3fe00000 	.word	0x3fe00000
 8006984:	000fffff 	.word	0x000fffff
 8006988:	3ff00000 	.word	0x3ff00000
 800698c:	4090cbff 	.word	0x4090cbff
 8006990:	3f6f3400 	.word	0x3f6f3400
 8006994:	652b82fe 	.word	0x652b82fe
 8006998:	3c971547 	.word	0x3c971547

0800699c <__ieee754_sqrt>:
 800699c:	e92d 41f0 	stmdb	sp!, {r4, r5, r6, r7, r8, lr}
 80069a0:	ec55 4b10 	vmov	r4, r5, d0
 80069a4:	4e56      	ldr	r6, [pc, #344]	; (8006b00 <__ieee754_sqrt+0x164>)
 80069a6:	43ae      	bics	r6, r5
 80069a8:	ee10 0a10 	vmov	r0, s0
 80069ac:	ee10 3a10 	vmov	r3, s0
 80069b0:	4629      	mov	r1, r5
 80069b2:	462a      	mov	r2, r5
 80069b4:	d110      	bne.n	80069d8 <__ieee754_sqrt+0x3c>
 80069b6:	ee10 2a10 	vmov	r2, s0
 80069ba:	462b      	mov	r3, r5
 80069bc:	f7f9 fde8 	bl	8000590 <__aeabi_dmul>
 80069c0:	4602      	mov	r2, r0
 80069c2:	460b      	mov	r3, r1
 80069c4:	4620      	mov	r0, r4
 80069c6:	4629      	mov	r1, r5
 80069c8:	f7f9 fc2c 	bl	8000224 <__adddf3>
 80069cc:	4604      	mov	r4, r0
 80069ce:	460d      	mov	r5, r1
 80069d0:	ec45 4b10 	vmov	d0, r4, r5
 80069d4:	e8bd 81f0 	ldmia.w	sp!, {r4, r5, r6, r7, r8, pc}
 80069d8:	2d00      	cmp	r5, #0
 80069da:	dc10      	bgt.n	80069fe <__ieee754_sqrt+0x62>
 80069dc:	f025 4600 	bic.w	r6, r5, #2147483648	; 0x80000000
 80069e0:	4330      	orrs	r0, r6
 80069e2:	d0f5      	beq.n	80069d0 <__ieee754_sqrt+0x34>
 80069e4:	b15d      	cbz	r5, 80069fe <__ieee754_sqrt+0x62>
 80069e6:	ee10 2a10 	vmov	r2, s0
 80069ea:	462b      	mov	r3, r5
 80069ec:	ee10 0a10 	vmov	r0, s0
 80069f0:	f7f9 fc16 	bl	8000220 <__aeabi_dsub>
 80069f4:	4602      	mov	r2, r0
 80069f6:	460b      	mov	r3, r1
 80069f8:	f7f9 fef4 	bl	80007e4 <__aeabi_ddiv>
 80069fc:	e7e6      	b.n	80069cc <__ieee754_sqrt+0x30>
 80069fe:	1509      	asrs	r1, r1, #20
 8006a00:	d076      	beq.n	8006af0 <__ieee754_sqrt+0x154>
 8006a02:	f3c2 0213 	ubfx	r2, r2, #0, #20
 8006a06:	07ce      	lsls	r6, r1, #31
 8006a08:	f442 1080 	orr.w	r0, r2, #1048576	; 0x100000
 8006a0c:	bf5e      	ittt	pl
 8006a0e:	0fda      	lsrpl	r2, r3, #31
 8006a10:	005b      	lslpl	r3, r3, #1
 8006a12:	eb02 0040 	addpl.w	r0, r2, r0, lsl #1
 8006a16:	0fda      	lsrs	r2, r3, #31
 8006a18:	f2a1 35ff 	subw	r5, r1, #1023	; 0x3ff
 8006a1c:	eb02 0240 	add.w	r2, r2, r0, lsl #1
 8006a20:	2000      	movs	r0, #0
 8006a22:	106d      	asrs	r5, r5, #1
 8006a24:	005b      	lsls	r3, r3, #1
 8006a26:	f04f 0e16 	mov.w	lr, #22
 8006a2a:	4684      	mov	ip, r0
 8006a2c:	f44f 1100 	mov.w	r1, #2097152	; 0x200000
 8006a30:	eb0c 0401 	add.w	r4, ip, r1
 8006a34:	4294      	cmp	r4, r2
 8006a36:	bfde      	ittt	le
 8006a38:	1b12      	suble	r2, r2, r4
 8006a3a:	eb04 0c01 	addle.w	ip, r4, r1
 8006a3e:	1840      	addle	r0, r0, r1
 8006a40:	0052      	lsls	r2, r2, #1
 8006a42:	f1be 0e01 	subs.w	lr, lr, #1
 8006a46:	eb02 72d3 	add.w	r2, r2, r3, lsr #31
 8006a4a:	ea4f 0151 	mov.w	r1, r1, lsr #1
 8006a4e:	ea4f 0343 	mov.w	r3, r3, lsl #1
 8006a52:	d1ed      	bne.n	8006a30 <__ieee754_sqrt+0x94>
 8006a54:	4671      	mov	r1, lr
 8006a56:	2720      	movs	r7, #32
 8006a58:	f04f 4400 	mov.w	r4, #2147483648	; 0x80000000
 8006a5c:	4562      	cmp	r2, ip
 8006a5e:	eb04 060e 	add.w	r6, r4, lr
 8006a62:	dc02      	bgt.n	8006a6a <__ieee754_sqrt+0xce>
 8006a64:	d113      	bne.n	8006a8e <__ieee754_sqrt+0xf2>
 8006a66:	429e      	cmp	r6, r3
 8006a68:	d811      	bhi.n	8006a8e <__ieee754_sqrt+0xf2>
 8006a6a:	2e00      	cmp	r6, #0
 8006a6c:	eb06 0e04 	add.w	lr, r6, r4
 8006a70:	da43      	bge.n	8006afa <__ieee754_sqrt+0x15e>
 8006a72:	f1be 0f00 	cmp.w	lr, #0
 8006a76:	db40      	blt.n	8006afa <__ieee754_sqrt+0x15e>
 8006a78:	f10c 0801 	add.w	r8, ip, #1
 8006a7c:	eba2 020c 	sub.w	r2, r2, ip
 8006a80:	429e      	cmp	r6, r3
 8006a82:	bf88      	it	hi
 8006a84:	f102 32ff 	addhi.w	r2, r2, #4294967295
 8006a88:	1b9b      	subs	r3, r3, r6
 8006a8a:	4421      	add	r1, r4
 8006a8c:	46c4      	mov	ip, r8
 8006a8e:	0052      	lsls	r2, r2, #1
 8006a90:	3f01      	subs	r7, #1
 8006a92:	eb02 72d3 	add.w	r2, r2, r3, lsr #31
 8006a96:	ea4f 0454 	mov.w	r4, r4, lsr #1
 8006a9a:	ea4f 0343 	mov.w	r3, r3, lsl #1
 8006a9e:	d1dd      	bne.n	8006a5c <__ieee754_sqrt+0xc0>
 8006aa0:	4313      	orrs	r3, r2
 8006aa2:	d006      	beq.n	8006ab2 <__ieee754_sqrt+0x116>
 8006aa4:	1c4c      	adds	r4, r1, #1
 8006aa6:	bf13      	iteet	ne
 8006aa8:	3101      	addne	r1, #1
 8006aaa:	3001      	addeq	r0, #1
 8006aac:	4639      	moveq	r1, r7
 8006aae:	f021 0101 	bicne.w	r1, r1, #1
 8006ab2:	1043      	asrs	r3, r0, #1
 8006ab4:	f103 537f 	add.w	r3, r3, #1069547520	; 0x3fc00000
 8006ab8:	0849      	lsrs	r1, r1, #1
 8006aba:	f503 1300 	add.w	r3, r3, #2097152	; 0x200000
 8006abe:	07c2      	lsls	r2, r0, #31
 8006ac0:	bf48      	it	mi
 8006ac2:	f041 4100 	orrmi.w	r1, r1, #2147483648	; 0x80000000
 8006ac6:	eb03 5705 	add.w	r7, r3, r5, lsl #20
 8006aca:	460c      	mov	r4, r1
 8006acc:	463d      	mov	r5, r7
 8006ace:	e77f      	b.n	80069d0 <__ieee754_sqrt+0x34>
 8006ad0:	0ada      	lsrs	r2, r3, #11
 8006ad2:	3815      	subs	r0, #21
 8006ad4:	055b      	lsls	r3, r3, #21
 8006ad6:	2a00      	cmp	r2, #0
 8006ad8:	d0fa      	beq.n	8006ad0 <__ieee754_sqrt+0x134>
 8006ada:	02d7      	lsls	r7, r2, #11
 8006adc:	d50a      	bpl.n	8006af4 <__ieee754_sqrt+0x158>
 8006ade:	f1c1 0420 	rsb	r4, r1, #32
 8006ae2:	fa23 f404 	lsr.w	r4, r3, r4
 8006ae6:	1e4d      	subs	r5, r1, #1
 8006ae8:	408b      	lsls	r3, r1
 8006aea:	4322      	orrs	r2, r4
 8006aec:	1b41      	subs	r1, r0, r5
 8006aee:	e788      	b.n	8006a02 <__ieee754_sqrt+0x66>
 8006af0:	4608      	mov	r0, r1
 8006af2:	e7f0      	b.n	8006ad6 <__ieee754_sqrt+0x13a>
 8006af4:	0052      	lsls	r2, r2, #1
 8006af6:	3101      	adds	r1, #1
 8006af8:	e7ef      	b.n	8006ada <__ieee754_sqrt+0x13e>
 8006afa:	46e0      	mov	r8, ip
 8006afc:	e7be      	b.n	8006a7c <__ieee754_sqrt+0xe0>
 8006afe:	bf00      	nop
 8006b00:	7ff00000 	.word	0x7ff00000

08006b04 <fabs>:
 8006b04:	ec51 0b10 	vmov	r0, r1, d0
 8006b08:	ee10 2a10 	vmov	r2, s0
 8006b0c:	f021 4300 	bic.w	r3, r1, #2147483648	; 0x80000000
 8006b10:	ec43 2b10 	vmov	d0, r2, r3
 8006b14:	4770      	bx	lr

08006b16 <finite>:
 8006b16:	b082      	sub	sp, #8
 8006b18:	ed8d 0b00 	vstr	d0, [sp]
 8006b1c:	9801      	ldr	r0, [sp, #4]
 8006b1e:	f040 4000 	orr.w	r0, r0, #2147483648	; 0x80000000
 8006b22:	f500 1080 	add.w	r0, r0, #1048576	; 0x100000
 8006b26:	0fc0      	lsrs	r0, r0, #31
 8006b28:	b002      	add	sp, #8
 8006b2a:	4770      	bx	lr
 8006b2c:	0000      	movs	r0, r0
	...

08006b30 <nan>:
 8006b30:	ed9f 0b01 	vldr	d0, [pc, #4]	; 8006b38 <nan+0x8>
 8006b34:	4770      	bx	lr
 8006b36:	bf00      	nop
 8006b38:	00000000 	.word	0x00000000
 8006b3c:	7ff80000 	.word	0x7ff80000

08006b40 <rint>:
 8006b40:	b5f7      	push	{r0, r1, r2, r4, r5, r6, r7, lr}
 8006b42:	ec51 0b10 	vmov	r0, r1, d0
 8006b46:	f3c1 520a 	ubfx	r2, r1, #20, #11
 8006b4a:	f2a2 36ff 	subw	r6, r2, #1023	; 0x3ff
 8006b4e:	2e13      	cmp	r6, #19
 8006b50:	ee10 4a10 	vmov	r4, s0
 8006b54:	460b      	mov	r3, r1
 8006b56:	ea4f 75d1 	mov.w	r5, r1, lsr #31
 8006b5a:	dc58      	bgt.n	8006c0e <rint+0xce>
 8006b5c:	2e00      	cmp	r6, #0
 8006b5e:	da2b      	bge.n	8006bb8 <rint+0x78>
 8006b60:	f021 4200 	bic.w	r2, r1, #2147483648	; 0x80000000
 8006b64:	4302      	orrs	r2, r0
 8006b66:	d023      	beq.n	8006bb0 <rint+0x70>
 8006b68:	f3c1 0213 	ubfx	r2, r1, #0, #20
 8006b6c:	4302      	orrs	r2, r0
 8006b6e:	4254      	negs	r4, r2
 8006b70:	4314      	orrs	r4, r2
 8006b72:	0c4b      	lsrs	r3, r1, #17
 8006b74:	0b24      	lsrs	r4, r4, #12
 8006b76:	045b      	lsls	r3, r3, #17
 8006b78:	f404 2400 	and.w	r4, r4, #524288	; 0x80000
 8006b7c:	ea44 0103 	orr.w	r1, r4, r3
 8006b80:	4b32      	ldr	r3, [pc, #200]	; (8006c4c <rint+0x10c>)
 8006b82:	eb03 03c5 	add.w	r3, r3, r5, lsl #3
 8006b86:	e9d3 6700 	ldrd	r6, r7, [r3]
 8006b8a:	4602      	mov	r2, r0
 8006b8c:	460b      	mov	r3, r1
 8006b8e:	4630      	mov	r0, r6
 8006b90:	4639      	mov	r1, r7
 8006b92:	f7f9 fb47 	bl	8000224 <__adddf3>
 8006b96:	e9cd 0100 	strd	r0, r1, [sp]
 8006b9a:	463b      	mov	r3, r7
 8006b9c:	e9dd 0100 	ldrd	r0, r1, [sp]
 8006ba0:	4632      	mov	r2, r6
 8006ba2:	f7f9 fb3d 	bl	8000220 <__aeabi_dsub>
 8006ba6:	f021 4300 	bic.w	r3, r1, #2147483648	; 0x80000000
 8006baa:	ea43 77c5 	orr.w	r7, r3, r5, lsl #31
 8006bae:	4639      	mov	r1, r7
 8006bb0:	ec41 0b10 	vmov	d0, r0, r1
 8006bb4:	b003      	add	sp, #12
 8006bb6:	bdf0      	pop	{r4, r5, r6, r7, pc}
 8006bb8:	4a25      	ldr	r2, [pc, #148]	; (8006c50 <rint+0x110>)
 8006bba:	4132      	asrs	r2, r6
 8006bbc:	ea01 0702 	and.w	r7, r1, r2
 8006bc0:	4307      	orrs	r7, r0
 8006bc2:	d0f5      	beq.n	8006bb0 <rint+0x70>
 8006bc4:	0851      	lsrs	r1, r2, #1
 8006bc6:	ea03 0252 	and.w	r2, r3, r2, lsr #1
 8006bca:	4314      	orrs	r4, r2
 8006bcc:	d00c      	beq.n	8006be8 <rint+0xa8>
 8006bce:	ea23 0201 	bic.w	r2, r3, r1
 8006bd2:	f44f 2380 	mov.w	r3, #262144	; 0x40000
 8006bd6:	2e13      	cmp	r6, #19
 8006bd8:	fa43 f606 	asr.w	r6, r3, r6
 8006bdc:	bf0c      	ite	eq
 8006bde:	f04f 4400 	moveq.w	r4, #2147483648	; 0x80000000
 8006be2:	2400      	movne	r4, #0
 8006be4:	ea42 0306 	orr.w	r3, r2, r6
 8006be8:	4918      	ldr	r1, [pc, #96]	; (8006c4c <rint+0x10c>)
 8006bea:	eb01 05c5 	add.w	r5, r1, r5, lsl #3
 8006bee:	4622      	mov	r2, r4
 8006bf0:	e9d5 4500 	ldrd	r4, r5, [r5]
 8006bf4:	4620      	mov	r0, r4
 8006bf6:	4629      	mov	r1, r5
 8006bf8:	f7f9 fb14 	bl	8000224 <__adddf3>
 8006bfc:	e9cd 0100 	strd	r0, r1, [sp]
 8006c00:	e9dd 0100 	ldrd	r0, r1, [sp]
 8006c04:	4622      	mov	r2, r4
 8006c06:	462b      	mov	r3, r5
 8006c08:	f7f9 fb0a 	bl	8000220 <__aeabi_dsub>
 8006c0c:	e7d0      	b.n	8006bb0 <rint+0x70>
 8006c0e:	2e33      	cmp	r6, #51	; 0x33
 8006c10:	dd07      	ble.n	8006c22 <rint+0xe2>
 8006c12:	f5b6 6f80 	cmp.w	r6, #1024	; 0x400
 8006c16:	d1cb      	bne.n	8006bb0 <rint+0x70>
 8006c18:	ee10 2a10 	vmov	r2, s0
 8006c1c:	f7f9 fb02 	bl	8000224 <__adddf3>
 8006c20:	e7c6      	b.n	8006bb0 <rint+0x70>
 8006c22:	f2a2 4213 	subw	r2, r2, #1043	; 0x413
 8006c26:	f04f 36ff 	mov.w	r6, #4294967295
 8006c2a:	40d6      	lsrs	r6, r2
 8006c2c:	4230      	tst	r0, r6
 8006c2e:	d0bf      	beq.n	8006bb0 <rint+0x70>
 8006c30:	ea14 0056 	ands.w	r0, r4, r6, lsr #1
 8006c34:	ea4f 0156 	mov.w	r1, r6, lsr #1
 8006c38:	bf1f      	itttt	ne
 8006c3a:	ea24 0101 	bicne.w	r1, r4, r1
 8006c3e:	f04f 4480 	movne.w	r4, #1073741824	; 0x40000000
 8006c42:	fa44 f202 	asrne.w	r2, r4, r2
 8006c46:	ea41 0402 	orrne.w	r4, r1, r2
 8006c4a:	e7cd      	b.n	8006be8 <rint+0xa8>
 8006c4c:	08006df8 	.word	0x08006df8
 8006c50:	000fffff 	.word	0x000fffff
 8006c54:	00000000 	.word	0x00000000

08006c58 <scalbn>:
 8006c58:	b570      	push	{r4, r5, r6, lr}
 8006c5a:	ec55 4b10 	vmov	r4, r5, d0
 8006c5e:	f3c5 520a 	ubfx	r2, r5, #20, #11
 8006c62:	4606      	mov	r6, r0
 8006c64:	462b      	mov	r3, r5
 8006c66:	b99a      	cbnz	r2, 8006c90 <scalbn+0x38>
 8006c68:	f025 4300 	bic.w	r3, r5, #2147483648	; 0x80000000
 8006c6c:	4323      	orrs	r3, r4
 8006c6e:	d036      	beq.n	8006cde <scalbn+0x86>
 8006c70:	4b39      	ldr	r3, [pc, #228]	; (8006d58 <scalbn+0x100>)
 8006c72:	4629      	mov	r1, r5
 8006c74:	ee10 0a10 	vmov	r0, s0
 8006c78:	2200      	movs	r2, #0
 8006c7a:	f7f9 fc89 	bl	8000590 <__aeabi_dmul>
 8006c7e:	4b37      	ldr	r3, [pc, #220]	; (8006d5c <scalbn+0x104>)
 8006c80:	429e      	cmp	r6, r3
 8006c82:	4604      	mov	r4, r0
 8006c84:	460d      	mov	r5, r1
 8006c86:	da10      	bge.n	8006caa <scalbn+0x52>
 8006c88:	a32b      	add	r3, pc, #172	; (adr r3, 8006d38 <scalbn+0xe0>)
 8006c8a:	e9d3 2300 	ldrd	r2, r3, [r3]
 8006c8e:	e03a      	b.n	8006d06 <scalbn+0xae>
 8006c90:	f240 71ff 	movw	r1, #2047	; 0x7ff
 8006c94:	428a      	cmp	r2, r1
 8006c96:	d10c      	bne.n	8006cb2 <scalbn+0x5a>
 8006c98:	ee10 2a10 	vmov	r2, s0
 8006c9c:	4620      	mov	r0, r4
 8006c9e:	4629      	mov	r1, r5
 8006ca0:	f7f9 fac0 	bl	8000224 <__adddf3>
 8006ca4:	4604      	mov	r4, r0
 8006ca6:	460d      	mov	r5, r1
 8006ca8:	e019      	b.n	8006cde <scalbn+0x86>
 8006caa:	f3c1 520a 	ubfx	r2, r1, #20, #11
 8006cae:	460b      	mov	r3, r1
 8006cb0:	3a36      	subs	r2, #54	; 0x36
 8006cb2:	4432      	add	r2, r6
 8006cb4:	f240 71fe 	movw	r1, #2046	; 0x7fe
 8006cb8:	428a      	cmp	r2, r1
 8006cba:	dd08      	ble.n	8006cce <scalbn+0x76>
 8006cbc:	2d00      	cmp	r5, #0
 8006cbe:	a120      	add	r1, pc, #128	; (adr r1, 8006d40 <scalbn+0xe8>)
 8006cc0:	e9d1 0100 	ldrd	r0, r1, [r1]
 8006cc4:	da1c      	bge.n	8006d00 <scalbn+0xa8>
 8006cc6:	a120      	add	r1, pc, #128	; (adr r1, 8006d48 <scalbn+0xf0>)
 8006cc8:	e9d1 0100 	ldrd	r0, r1, [r1]
 8006ccc:	e018      	b.n	8006d00 <scalbn+0xa8>
 8006cce:	2a00      	cmp	r2, #0
 8006cd0:	dd08      	ble.n	8006ce4 <scalbn+0x8c>
 8006cd2:	f023 43ff 	bic.w	r3, r3, #2139095040	; 0x7f800000
 8006cd6:	f423 03e0 	bic.w	r3, r3, #7340032	; 0x700000
 8006cda:	ea43 5502 	orr.w	r5, r3, r2, lsl #20
 8006cde:	ec45 4b10 	vmov	d0, r4, r5
 8006ce2:	bd70      	pop	{r4, r5, r6, pc}
 8006ce4:	f112 0f35 	cmn.w	r2, #53	; 0x35
 8006ce8:	da19      	bge.n	8006d1e <scalbn+0xc6>
 8006cea:	f24c 3350 	movw	r3, #50000	; 0xc350
 8006cee:	429e      	cmp	r6, r3
 8006cf0:	f005 4300 	and.w	r3, r5, #2147483648	; 0x80000000
 8006cf4:	dd0a      	ble.n	8006d0c <scalbn+0xb4>
 8006cf6:	a112      	add	r1, pc, #72	; (adr r1, 8006d40 <scalbn+0xe8>)
 8006cf8:	e9d1 0100 	ldrd	r0, r1, [r1]
 8006cfc:	2b00      	cmp	r3, #0
 8006cfe:	d1e2      	bne.n	8006cc6 <scalbn+0x6e>
 8006d00:	a30f      	add	r3, pc, #60	; (adr r3, 8006d40 <scalbn+0xe8>)
 8006d02:	e9d3 2300 	ldrd	r2, r3, [r3]
 8006d06:	f7f9 fc43 	bl	8000590 <__aeabi_dmul>
 8006d0a:	e7cb      	b.n	8006ca4 <scalbn+0x4c>
 8006d0c:	a10a      	add	r1, pc, #40	; (adr r1, 8006d38 <scalbn+0xe0>)
 8006d0e:	e9d1 0100 	ldrd	r0, r1, [r1]
 8006d12:	2b00      	cmp	r3, #0
 8006d14:	d0b8      	beq.n	8006c88 <scalbn+0x30>
 8006d16:	a10e      	add	r1, pc, #56	; (adr r1, 8006d50 <scalbn+0xf8>)
 8006d18:	e9d1 0100 	ldrd	r0, r1, [r1]
 8006d1c:	e7b4      	b.n	8006c88 <scalbn+0x30>
 8006d1e:	f023 43ff 	bic.w	r3, r3, #2139095040	; 0x7f800000
 8006d22:	3236      	adds	r2, #54	; 0x36
 8006d24:	f423 03e0 	bic.w	r3, r3, #7340032	; 0x700000
 8006d28:	ea43 5102 	orr.w	r1, r3, r2, lsl #20
 8006d2c:	4620      	mov	r0, r4
 8006d2e:	4b0c      	ldr	r3, [pc, #48]	; (8006d60 <scalbn+0x108>)
 8006d30:	2200      	movs	r2, #0
 8006d32:	e7e8      	b.n	8006d06 <scalbn+0xae>
 8006d34:	f3af 8000 	nop.w
 8006d38:	c2f8f359 	.word	0xc2f8f359
 8006d3c:	01a56e1f 	.word	0x01a56e1f
 8006d40:	8800759c 	.word	0x8800759c
 8006d44:	7e37e43c 	.word	0x7e37e43c
 8006d48:	8800759c 	.word	0x8800759c
 8006d4c:	fe37e43c 	.word	0xfe37e43c
 8006d50:	c2f8f359 	.word	0xc2f8f359
 8006d54:	81a56e1f 	.word	0x81a56e1f
 8006d58:	43500000 	.word	0x43500000
 8006d5c:	ffff3cb0 	.word	0xffff3cb0
 8006d60:	3c900000 	.word	0x3c900000

08006d64 <_init>:
 8006d64:	b5f8      	push	{r3, r4, r5, r6, r7, lr}
 8006d66:	bf00      	nop
 8006d68:	bcf8      	pop	{r3, r4, r5, r6, r7}
 8006d6a:	bc08      	pop	{r3}
 8006d6c:	469e      	mov	lr, r3
 8006d6e:	4770      	bx	lr

08006d70 <_fini>:
 8006d70:	b5f8      	push	{r3, r4, r5, r6, r7, lr}
 8006d72:	bf00      	nop
 8006d74:	bcf8      	pop	{r3, r4, r5, r6, r7}
 8006d76:	bc08      	pop	{r3}
 8006d78:	469e      	mov	lr, r3
 8006d7a:	4770      	bx	lr
